
out.elf:     file format elf32-tradlittlemips


Disassembly of section .config_BFC02FF0:

bfc02ff0 <__config_BFC02FF0>:
bfc02ff0:	ff ff fe fa                                         ....

Disassembly of section .config_BFC02FF4:

bfc02ff4 <__config_BFC02FF4>:
bfc02ff4:	d9 79 f8 ff                                         .y..

Disassembly of section .config_BFC02FF8:

bfc02ff8 <__config_BFC02FF8>:
bfc02ff8:	db ce 6c ff                                         ..l.

Disassembly of section .config_BFC02FFC:

bfc02ffc <__config_BFC02FFC>:
bfc02ffc:	ff ff ff 7e                                         ...~

Disassembly of section .reset:

bd001970 <_reset>:
bd001970:	0f40065e 	jal	bd001978 <_startup>
bd001974:	00000000 	nop

bd001978 <_startup>:
bd001978:	401a6000 	mfc0	k0,c0_status
bd00197c:	7f5a04c0 	ext	k0,k0,0x13,0x1
bd001980:	13400005 	beqz	k0,bd001998 <_no_nmi>
bd001984:	00000000 	nop
bd001988:	3c1a9d00 	lui	k0,0x9d00
bd00198c:	275a4160 	addiu	k0,k0,16736
bd001990:	03400008 	jr	k0
bd001994:	00000000 	nop

bd001998 <_no_nmi>:
bd001998:	3c1da002 	lui	sp,0xa002
bd00199c:	27bdfff0 	addiu	sp,sp,-16
bd0019a0:	3c1ca000 	lui	gp,0xa000
bd0019a4:	279c7ff0 	addiu	gp,gp,32752
bd0019a8:	40096002 	mfc0	t1,c0_srsctl
bd0019ac:	01205820 	add	t3,t1,zero
bd0019b0:	7d2a1e80 	ext	t2,t1,0x1a,0x4
bd0019b4:	7d494984 	ins	t1,t2,0x6,0x4
bd0019b8:	40896002 	mtc0	t1,c0_srsctl
bd0019bc:	000000c0 	ehb
bd0019c0:	41dce000 	wrpgpr	gp,gp
bd0019c4:	408b6002 	mtc0	t3,c0_srsctl
bd0019c8:	000000c0 	ehb
bd0019cc:	3c089d00 	lui	t0,0x9d00
bd0019d0:	250841dc 	addiu	t0,t0,16860
bd0019d4:	0100f809 	jalr	t0
bd0019d8:	00000000 	nop

bd0019dc <_start_bss_init>:
bd0019dc:	3c08a000 	lui	t0,0xa000
bd0019e0:	2508000c 	addiu	t0,t0,12
bd0019e4:	3c09a000 	lui	t1,0xa000
bd0019e8:	25290010 	addiu	t1,t1,16
bd0019ec:	10000006 	b	bd001a08 <_bss_check>
bd0019f0:	00000000 	nop

bd0019f4 <_bss_init>:
bd0019f4:	ad000000 	sw	zero,0(t0)
bd0019f8:	ad000004 	sw	zero,4(t0)
bd0019fc:	ad000008 	sw	zero,8(t0)
bd001a00:	ad00000c 	sw	zero,12(t0)
bd001a04:	25080010 	addiu	t0,t0,16

bd001a08 <_bss_check>:
bd001a08:	0109082b 	sltu	at,t0,t1
bd001a0c:	1420fff9 	bnez	at,bd0019f4 <_bss_init>
bd001a10:	00000000 	nop
bd001a14:	3c089d00 	lui	t0,0x9d00
bd001a18:	25083ccc 	addiu	t0,t0,15564
bd001a1c:	0100f809 	jalr	t0
bd001a20:	00000000 	nop
bd001a24:	3c090000 	lui	t1,0x0
bd001a28:	25290000 	addiu	t1,t1,0
bd001a2c:	11200010 	beqz	t1,bd001a70 <_ramfunc_done>
bd001a30:	00000000 	nop
bd001a34:	3c090002 	lui	t1,0x2
bd001a38:	25290000 	addiu	t1,t1,0
bd001a3c:	3c0abf88 	lui	t2,0xbf88
bd001a40:	254a2010 	addiu	t2,t2,8208
bd001a44:	ad490000 	sw	t1,0(t2)
bd001a48:	3c090002 	lui	t1,0x2
bd001a4c:	25290000 	addiu	t1,t1,0
bd001a50:	3c0abf88 	lui	t2,0xbf88
bd001a54:	254a2020 	addiu	t2,t2,8224
bd001a58:	ad490000 	sw	t1,0(t2)
bd001a5c:	3c090002 	lui	t1,0x2
bd001a60:	25290000 	addiu	t1,t1,0
bd001a64:	3c0abf88 	lui	t2,0xbf88
bd001a68:	254a2030 	addiu	t2,t2,8240
bd001a6c:	ad490000 	sw	t1,0(t2)

bd001a70 <_ramfunc_done>:
bd001a70:	40804800 	mtc0	zero,c0_count
bd001a74:	240affff 	li	t2,-1
bd001a78:	408a5800 	mtc0	t2,c0_compare
bd001a7c:	3c080040 	lui	t0,0x40
bd001a80:	400a6000 	mfc0	t2,c0_status
bd001a84:	010a5025 	or	t2,t0,t2
bd001a88:	408a6000 	mtc0	t2,c0_status
bd001a8c:	3c099d00 	lui	t1,0x9d00
bd001a90:	25290000 	addiu	t1,t1,0
bd001a94:	000000c0 	ehb
bd001a98:	40897801 	mtc0	t1,c0_ebase
bd001a9c:	3c090000 	lui	t1,0x0
bd001aa0:	25290001 	addiu	t1,t1,1
bd001aa4:	240a0000 	li	t2,0
bd001aa8:	7d2a4944 	ins	t2,t1,0x5,0x5
bd001aac:	408a6001 	mtc0	t2,c0_intctl
bd001ab0:	3c090080 	lui	t1,0x80
bd001ab4:	40896800 	mtc0	t1,c0_cause
bd001ab8:	40088000 	mfc0	t0,c0_config
bd001abc:	7d090580 	ext	t1,t0,0x16,0x1
bd001ac0:	00094c40 	sll	t1,t1,0x11
bd001ac4:	40086000 	mfc0	t0,c0_status
bd001ac8:	3c010058 	lui	at,0x58
bd001acc:	01014024 	and	t0,t0,at
bd001ad0:	01284025 	or	t0,t1,t0
bd001ad4:	40886000 	mtc0	t0,c0_status
bd001ad8:	000000c0 	ehb
bd001adc:	3c089d00 	lui	t0,0x9d00
bd001ae0:	250841e4 	addiu	t0,t0,16868
bd001ae4:	0100f809 	jalr	t0
bd001ae8:	00000000 	nop
bd001aec:	40086000 	mfc0	t0,c0_status
bd001af0:	3c01ffbf 	lui	at,0xffbf
bd001af4:	3421ffff 	ori	at,at,0xffff
bd001af8:	01014024 	and	t0,t0,at
bd001afc:	40886000 	mtc0	t0,c0_status
bd001b00:	30840000 	andi	a0,a0,0x0
bd001b04:	30a50000 	andi	a1,a1,0x0
bd001b08:	3c089d00 	lui	t0,0x9d00
bd001b0c:	25083ebc 	addiu	t0,t0,16060
bd001b10:	01000008 	jr	t0
bd001b14:	00000000 	nop

Disassembly of section .bev_excpt:

bd001cf0 <_bev_exception>:
bd001cf0:	3c1a9d00 	lui	k0,0x9d00
bd001cf4:	275a3f5c 	addiu	k0,k0,16220
bd001cf8:	03400008 	jr	k0
bd001cfc:	00000000 	nop

Disassembly of section .app_excpt:

9d000180 <_gen_exception>:
9d000180:	3c1a9d00 	lui	k0,0x9d00
9d000184:	275a3930 	addiu	k0,k0,14640
9d000188:	03400008 	jr	k0
9d00018c:	00000000 	nop

Disassembly of section .vector_0:

9d000200 <__vector_dispatch_0>:
9d000200:	0b400ffb 	j	9d003fec <.LFE0>
9d000204:	00000000 	nop

Disassembly of section .vector_1:

9d000220 <__vector_dispatch_1>:
9d000220:	0b400ffb 	j	9d003fec <.LFE0>
9d000224:	00000000 	nop

Disassembly of section .vector_2:

9d000240 <__vector_dispatch_2>:
9d000240:	0b400ffb 	j	9d003fec <.LFE0>
9d000244:	00000000 	nop

Disassembly of section .vector_3:

9d000260 <__vector_dispatch_3>:
9d000260:	0b400c4b 	j	9d00312c <.LFE1>
9d000264:	00000000 	nop

Disassembly of section .vector_4:

9d000280 <__vector_dispatch_4>:
9d000280:	0b400ffb 	j	9d003fec <.LFE0>
9d000284:	00000000 	nop

Disassembly of section .vector_5:

9d0002a0 <__vector_dispatch_5>:
9d0002a0:	0b400ffb 	j	9d003fec <.LFE0>
9d0002a4:	00000000 	nop

Disassembly of section .vector_6:

9d0002c0 <__vector_dispatch_6>:
9d0002c0:	0b400ffb 	j	9d003fec <.LFE0>
9d0002c4:	00000000 	nop

Disassembly of section .vector_7:

9d0002e0 <__vector_dispatch_7>:
9d0002e0:	0b400ffb 	j	9d003fec <.LFE0>
9d0002e4:	00000000 	nop

Disassembly of section .vector_8:

9d000300 <__vector_dispatch_8>:
9d000300:	0b400ffb 	j	9d003fec <.LFE0>
9d000304:	00000000 	nop

Disassembly of section .vector_9:

9d000320 <__vector_dispatch_9>:
9d000320:	0b400ffb 	j	9d003fec <.LFE0>
9d000324:	00000000 	nop

Disassembly of section .vector_10:

9d000340 <__vector_dispatch_10>:
9d000340:	0b400ffb 	j	9d003fec <.LFE0>
9d000344:	00000000 	nop

Disassembly of section .vector_11:

9d000360 <__vector_dispatch_11>:
9d000360:	0b400ffb 	j	9d003fec <.LFE0>
9d000364:	00000000 	nop

Disassembly of section .vector_12:

9d000380 <__vector_dispatch_12>:
9d000380:	0b400ffb 	j	9d003fec <.LFE0>
9d000384:	00000000 	nop

Disassembly of section .vector_13:

9d0003a0 <__vector_dispatch_13>:
9d0003a0:	0b400ffb 	j	9d003fec <.LFE0>
9d0003a4:	00000000 	nop

Disassembly of section .vector_14:

9d0003c0 <__vector_dispatch_14>:
9d0003c0:	0b400ffb 	j	9d003fec <.LFE0>
9d0003c4:	00000000 	nop

Disassembly of section .vector_15:

9d0003e0 <__vector_dispatch_15>:
9d0003e0:	0b400ffb 	j	9d003fec <.LFE0>
9d0003e4:	00000000 	nop

Disassembly of section .vector_16:

9d000400 <__vector_dispatch_16>:
9d000400:	0b400ffb 	j	9d003fec <.LFE0>
9d000404:	00000000 	nop

Disassembly of section .vector_17:

9d000420 <__vector_dispatch_17>:
9d000420:	0b400ffb 	j	9d003fec <.LFE0>
9d000424:	00000000 	nop

Disassembly of section .vector_18:

9d000440 <__vector_dispatch_18>:
9d000440:	0b400ffb 	j	9d003fec <.LFE0>
9d000444:	00000000 	nop

Disassembly of section .vector_19:

9d000460 <__vector_dispatch_19>:
9d000460:	0b400ffb 	j	9d003fec <.LFE0>
9d000464:	00000000 	nop

Disassembly of section .vector_20:

9d000480 <__vector_dispatch_20>:
9d000480:	0b400ffb 	j	9d003fec <.LFE0>
9d000484:	00000000 	nop

Disassembly of section .vector_21:

9d0004a0 <__vector_dispatch_21>:
9d0004a0:	0b400ffb 	j	9d003fec <.LFE0>
9d0004a4:	00000000 	nop

Disassembly of section .vector_22:

9d0004c0 <__vector_dispatch_22>:
9d0004c0:	0b400ffb 	j	9d003fec <.LFE0>
9d0004c4:	00000000 	nop

Disassembly of section .vector_23:

9d0004e0 <__vector_dispatch_23>:
9d0004e0:	0b400ffb 	j	9d003fec <.LFE0>
9d0004e4:	00000000 	nop

Disassembly of section .vector_24:

9d000500 <__vector_dispatch_24>:
9d000500:	0b400ffb 	j	9d003fec <.LFE0>
9d000504:	00000000 	nop

Disassembly of section .vector_25:

9d000520 <__vector_dispatch_25>:
9d000520:	0b400ffb 	j	9d003fec <.LFE0>
9d000524:	00000000 	nop

Disassembly of section .vector_26:

9d000540 <__vector_dispatch_26>:
9d000540:	0b400ffb 	j	9d003fec <.LFE0>
9d000544:	00000000 	nop

Disassembly of section .vector_27:

9d000560 <__vector_dispatch_27>:
9d000560:	0b400ffb 	j	9d003fec <.LFE0>
9d000564:	00000000 	nop

Disassembly of section .vector_28:

9d000580 <__vector_dispatch_28>:
9d000580:	0b400ffb 	j	9d003fec <.LFE0>
9d000584:	00000000 	nop

Disassembly of section .vector_29:

9d0005a0 <__vector_dispatch_29>:
9d0005a0:	0b400ffb 	j	9d003fec <.LFE0>
9d0005a4:	00000000 	nop

Disassembly of section .vector_30:

9d0005c0 <__vector_dispatch_30>:
9d0005c0:	0b400ffb 	j	9d003fec <.LFE0>
9d0005c4:	00000000 	nop

Disassembly of section .vector_31:

9d0005e0 <__vector_dispatch_31>:
9d0005e0:	0b400ffb 	j	9d003fec <.LFE0>
9d0005e4:	00000000 	nop

Disassembly of section .vector_32:

9d000600 <__vector_dispatch_32>:
9d000600:	0b400ffb 	j	9d003fec <.LFE0>
9d000604:	00000000 	nop

Disassembly of section .vector_33:

9d000620 <__vector_dispatch_33>:
9d000620:	0b400ffb 	j	9d003fec <.LFE0>
9d000624:	00000000 	nop

Disassembly of section .vector_34:

9d000640 <__vector_dispatch_34>:
9d000640:	0b400ffb 	j	9d003fec <.LFE0>
9d000644:	00000000 	nop

Disassembly of section .vector_35:

9d000660 <__vector_dispatch_35>:
9d000660:	0b400ffb 	j	9d003fec <.LFE0>
9d000664:	00000000 	nop

Disassembly of section .vector_36:

9d000680 <__vector_dispatch_36>:
9d000680:	0b400ffb 	j	9d003fec <.LFE0>
9d000684:	00000000 	nop

Disassembly of section .vector_37:

9d0006a0 <__vector_dispatch_37>:
9d0006a0:	0b400ffb 	j	9d003fec <.LFE0>
9d0006a4:	00000000 	nop

Disassembly of section .vector_38:

9d0006c0 <__vector_dispatch_38>:
9d0006c0:	0b400ffb 	j	9d003fec <.LFE0>
9d0006c4:	00000000 	nop

Disassembly of section .vector_39:

9d0006e0 <__vector_dispatch_39>:
9d0006e0:	0b400ffb 	j	9d003fec <.LFE0>
9d0006e4:	00000000 	nop

Disassembly of section .vector_40:

9d000700 <__vector_dispatch_40>:
9d000700:	0b400ffb 	j	9d003fec <.LFE0>
9d000704:	00000000 	nop

Disassembly of section .vector_41:

9d000720 <__vector_dispatch_41>:
9d000720:	0b400ffb 	j	9d003fec <.LFE0>
9d000724:	00000000 	nop

Disassembly of section .vector_42:

9d000740 <__vector_dispatch_42>:
9d000740:	0b400ffb 	j	9d003fec <.LFE0>
9d000744:	00000000 	nop

Disassembly of section .vector_43:

9d000760 <__vector_dispatch_43>:
9d000760:	0b400ffb 	j	9d003fec <.LFE0>
9d000764:	00000000 	nop

Disassembly of section .vector_44:

9d000780 <__vector_dispatch_44>:
9d000780:	0b400ffb 	j	9d003fec <.LFE0>
9d000784:	00000000 	nop

Disassembly of section .vector_45:

9d0007a0 <__vector_dispatch_45>:
9d0007a0:	0b400ffb 	j	9d003fec <.LFE0>
9d0007a4:	00000000 	nop

Disassembly of section .vector_46:

9d0007c0 <__vector_dispatch_46>:
9d0007c0:	0b400ffb 	j	9d003fec <.LFE0>
9d0007c4:	00000000 	nop

Disassembly of section .vector_47:

9d0007e0 <__vector_dispatch_47>:
9d0007e0:	0b400ffb 	j	9d003fec <.LFE0>
9d0007e4:	00000000 	nop

Disassembly of section .vector_48:

9d000800 <__vector_dispatch_48>:
9d000800:	0b400ffb 	j	9d003fec <.LFE0>
9d000804:	00000000 	nop

Disassembly of section .vector_49:

9d000820 <__vector_dispatch_49>:
9d000820:	0b400ffb 	j	9d003fec <.LFE0>
9d000824:	00000000 	nop

Disassembly of section .vector_50:

9d000840 <__vector_dispatch_50>:
9d000840:	0b400ffb 	j	9d003fec <.LFE0>
9d000844:	00000000 	nop

Disassembly of section .vector_51:

9d000860 <__vector_dispatch_51>:
9d000860:	0b400ffb 	j	9d003fec <.LFE0>
9d000864:	00000000 	nop

Disassembly of section ._debug_exception:

bfc00480 <__DbgExecReturn>:
bfc00480:	409bf800 	mtc0	k1,c0_desave
bfc00484:	000000c0 	ehb
bfc00488:	3c1b9d00 	lui	k1,0x9d00
bfc0048c:	277b4034 	addiu	k1,k1,16436
bfc00490:	13600002 	beqz	k1,bfc0049c <__DbgExecReturn+0x1c>
bfc00494:	00000000 	nop
bfc00498:	409bc000 	mtc0	k1,c0_depc
bfc0049c:	401bf800 	mfc0	k1,c0_desave
bfc004a0:	000000c0 	ehb
bfc004a4:	4200001f 	deret
bfc004a8:	00000000 	nop

Disassembly of section .text._do_print_cdnopuxX:

9d001e00 <_do_print_cdnopuxX>:
9d001e00:	27bdff68 	addiu	sp,sp,-152
9d001e04:	afbf0094 	sw	ra,148(sp)
9d001e08:	afbe0090 	sw	s8,144(sp)
9d001e0c:	afb7008c 	sw	s7,140(sp)
9d001e10:	afb60088 	sw	s6,136(sp)
9d001e14:	afb50084 	sw	s5,132(sp)
9d001e18:	afb40080 	sw	s4,128(sp)
9d001e1c:	afb3007c 	sw	s3,124(sp)
9d001e20:	afb20078 	sw	s2,120(sp)
9d001e24:	afb10074 	sw	s1,116(sp)
9d001e28:	afb00070 	sw	s0,112(sp)
9d001e2c:	afa40098 	sw	a0,152(sp)
9d001e30:	8c820018 	lw	v0,24(a0)
9d001e34:	00a09021 	move	s2,a1
9d001e38:	24050001 	li	a1,1
9d001e3c:	8c420010 	lw	v0,16(v0)
9d001e40:	0040f809 	jalr	v0
9d001e44:	afa600a0 	sw	a2,160(sp)
9d001e48:	104001bd 	beqz	v0,9d002540 <_do_print_cdnopuxX+0x740>
9d001e4c:	27a20058 	addiu	v0,sp,88
9d001e50:	afa00060 	sw	zero,96(sp)
9d001e54:	afa20058 	sw	v0,88(sp)
9d001e58:	82440000 	lb	a0,0(s2)
9d001e5c:	1080000d 	beqz	a0,9d001e94 <_do_print_cdnopuxX+0x94>
9d001e60:	26500001 	addiu	s0,s2,1
9d001e64:	24020025 	li	v0,37
9d001e68:	5082001c 	beql	a0,v0,9d001edc <_do_print_cdnopuxX+0xdc>
9d001e6c:	82420001 	lb	v0,1(s2)
9d001e70:	0f400ee3 	jal	9d003b8c <fputc>
9d001e74:	8fa50098 	lw	a1,152(sp)
9d001e78:	8fa30060 	lw	v1,96(sp)
9d001e7c:	24630001 	addiu	v1,v1,1
9d001e80:	afa30060 	sw	v1,96(sp)
9d001e84:	02009021 	move	s2,s0
9d001e88:	82440000 	lb	a0,0(s2)
9d001e8c:	1480fff5 	bnez	a0,9d001e64 <_do_print_cdnopuxX+0x64>
9d001e90:	26500001 	addiu	s0,s2,1
9d001e94:	8fa40098 	lw	a0,152(sp)
9d001e98:	94820010 	lhu	v0,16(a0)
9d001e9c:	30420040 	andi	v0,v0,0x40
9d001ea0:	144001a8 	bnez	v0,9d002544 <_do_print_cdnopuxX+0x744>
9d001ea4:	2402ffff 	li	v0,-1
9d001ea8:	8fa20060 	lw	v0,96(sp)
9d001eac:	8fbf0094 	lw	ra,148(sp)
9d001eb0:	8fbe0090 	lw	s8,144(sp)
9d001eb4:	8fb7008c 	lw	s7,140(sp)
9d001eb8:	8fb60088 	lw	s6,136(sp)
9d001ebc:	8fb50084 	lw	s5,132(sp)
9d001ec0:	8fb40080 	lw	s4,128(sp)
9d001ec4:	8fb3007c 	lw	s3,124(sp)
9d001ec8:	8fb20078 	lw	s2,120(sp)
9d001ecc:	8fb10074 	lw	s1,116(sp)
9d001ed0:	8fb00070 	lw	s0,112(sp)
9d001ed4:	03e00008 	jr	ra
9d001ed8:	27bd0098 	addiu	sp,sp,152
9d001edc:	10440177 	beq	v0,a0,9d0024bc <_do_print_cdnopuxX+0x6bc>
9d001ee0:	0000b821 	move	s7,zero
9d001ee4:	2403002d 	li	v1,45
9d001ee8:	2404002b 	li	a0,43
9d001eec:	24050020 	li	a1,32
9d001ef0:	24060023 	li	a2,35
9d001ef4:	1043000e 	beq	v0,v1,9d001f30 <_do_print_cdnopuxX+0x130>
9d001ef8:	24070030 	li	a3,48
9d001efc:	50440010 	beql	v0,a0,9d001f40 <_do_print_cdnopuxX+0x140>
9d001f00:	36f70002 	ori	s7,s7,0x2
9d001f04:	50450011 	beql	v0,a1,9d001f4c <_do_print_cdnopuxX+0x14c>
9d001f08:	36f70001 	ori	s7,s7,0x1
9d001f0c:	50460012 	beql	v0,a2,9d001f58 <_do_print_cdnopuxX+0x158>
9d001f10:	36f70800 	ori	s7,s7,0x800
9d001f14:	54470013 	bnel	v0,a3,9d001f64 <_do_print_cdnopuxX+0x164>
9d001f18:	2403002a 	li	v1,42
9d001f1c:	36f70004 	ori	s7,s7,0x4
9d001f20:	26100001 	addiu	s0,s0,1
9d001f24:	82020000 	lb	v0,0(s0)
9d001f28:	1443fff4 	bne	v0,v1,9d001efc <_do_print_cdnopuxX+0xfc>
9d001f2c:	00000000 	nop
9d001f30:	36f70008 	ori	s7,s7,0x8
9d001f34:	26100001 	addiu	s0,s0,1
9d001f38:	0b4007ca 	j	9d001f28 <_do_print_cdnopuxX+0x128>
9d001f3c:	82020000 	lb	v0,0(s0)
9d001f40:	26100001 	addiu	s0,s0,1
9d001f44:	0b4007ca 	j	9d001f28 <_do_print_cdnopuxX+0x128>
9d001f48:	82020000 	lb	v0,0(s0)
9d001f4c:	26100001 	addiu	s0,s0,1
9d001f50:	0b4007ca 	j	9d001f28 <_do_print_cdnopuxX+0x128>
9d001f54:	82020000 	lb	v0,0(s0)
9d001f58:	26100001 	addiu	s0,s0,1
9d001f5c:	0b4007ca 	j	9d001f28 <_do_print_cdnopuxX+0x128>
9d001f60:	82020000 	lb	v0,0(s0)
9d001f64:	104300fe 	beq	v0,v1,9d002360 <_do_print_cdnopuxX+0x560>
9d001f68:	02002021 	move	a0,s0
9d001f6c:	2443ffd0 	addiu	v1,v0,-48
9d001f70:	2c63000a 	sltiu	v1,v1,10
9d001f74:	1060000b 	beqz	v1,9d001fa4 <_do_print_cdnopuxX+0x1a4>
9d001f78:	0000b021 	move	s6,zero
9d001f7c:	00161840 	sll	v1,s6,0x1
9d001f80:	001650c0 	sll	t2,s6,0x3
9d001f84:	006a5021 	addu	t2,v1,t2
9d001f88:	26100001 	addiu	s0,s0,1
9d001f8c:	01425021 	addu	t2,t2,v0
9d001f90:	82020000 	lb	v0,0(s0)
9d001f94:	2443ffd0 	addiu	v1,v0,-48
9d001f98:	2c63000a 	sltiu	v1,v1,10
9d001f9c:	1460fff7 	bnez	v1,9d001f7c <_do_print_cdnopuxX+0x17c>
9d001fa0:	2556ffd0 	addiu	s6,t2,-48
9d001fa4:	2403002e 	li	v1,46
9d001fa8:	104300f9 	beq	v0,v1,9d002390 <_do_print_cdnopuxX+0x590>
9d001fac:	241effff 	li	s8,-1
9d001fb0:	24030068 	li	v1,104
9d001fb4:	5043010c 	beql	v0,v1,9d0023e8 <_do_print_cdnopuxX+0x5e8>
9d001fb8:	82030001 	lb	v1,1(s0)
9d001fbc:	2403006c 	li	v1,108
9d001fc0:	1043011a 	beq	v0,v1,9d00242c <_do_print_cdnopuxX+0x62c>
9d001fc4:	24030071 	li	v1,113
9d001fc8:	10430144 	beq	v0,v1,9d0024dc <_do_print_cdnopuxX+0x6dc>
9d001fcc:	32e40002 	andi	a0,s7,0x2
9d001fd0:	32e3fffe 	andi	v1,s7,0xfffe
9d001fd4:	0064b80b 	movn	s7,v1,a0
9d001fd8:	2442ffbc 	addiu	v0,v0,-68
9d001fdc:	32e50008 	andi	a1,s7,0x8
9d001fe0:	32e4fffb 	andi	a0,s7,0xfffb
9d001fe4:	2c430035 	sltiu	v1,v0,53
9d001fe8:	26120001 	addiu	s2,s0,1
9d001fec:	1060010d 	beqz	v1,9d002424 <_do_print_cdnopuxX+0x624>
9d001ff0:	0085b80b 	movn	s7,a0,a1
9d001ff4:	00021080 	sll	v0,v0,0x2
9d001ff8:	3c049d00 	lui	a0,0x9d00
9d001ffc:	24842010 	addiu	a0,a0,8208
9d002000:	00821021 	addu	v0,a0,v0
9d002004:	8c420000 	lw	v0,0(v0)
9d002008:	00400008 	jr	v0
9d00200c:	00000000 	nop
9d002010:	9d0022d8 	0x9d0022d8
9d002014:	9d002424 	0x9d002424
9d002018:	9d002424 	0x9d002424
9d00201c:	9d002424 	0x9d002424
9d002020:	9d002424 	0x9d002424
9d002024:	9d002424 	0x9d002424
9d002028:	9d002424 	0x9d002424
9d00202c:	9d002424 	0x9d002424
9d002030:	9d002424 	0x9d002424
9d002034:	9d002424 	0x9d002424
9d002038:	9d002424 	0x9d002424
9d00203c:	9d00269c 	0x9d00269c
9d002040:	9d00227c 	0x9d00227c
9d002044:	9d002424 	0x9d002424
9d002048:	9d002424 	0x9d002424
9d00204c:	9d002424 	0x9d002424
9d002050:	9d002424 	0x9d002424
9d002054:	9d0020e4 	0x9d0020e4
9d002058:	9d002424 	0x9d002424
9d00205c:	9d002424 	0x9d002424
9d002060:	9d0022ec 	0x9d0022ec
9d002064:	9d002424 	0x9d002424
9d002068:	9d002424 	0x9d002424
9d00206c:	9d002424 	0x9d002424
9d002070:	9d002424 	0x9d002424
9d002074:	9d002424 	0x9d002424
9d002078:	9d002424 	0x9d002424
9d00207c:	9d002424 	0x9d002424
9d002080:	9d002424 	0x9d002424
9d002084:	9d002424 	0x9d002424
9d002088:	9d002424 	0x9d002424
9d00208c:	9d002668 	0x9d002668
9d002090:	9d0022dc 	0x9d0022dc
9d002094:	9d002424 	0x9d002424
9d002098:	9d002424 	0x9d002424
9d00209c:	9d002424 	0x9d002424
9d0020a0:	9d002424 	0x9d002424
9d0020a4:	9d0022dc 	0x9d0022dc
9d0020a8:	9d002424 	0x9d002424
9d0020ac:	9d002424 	0x9d002424
9d0020b0:	9d002424 	0x9d002424
9d0020b4:	9d002424 	0x9d002424
9d0020b8:	9d0025ac 	0x9d0025ac
9d0020bc:	9d0025a4 	0x9d0025a4
9d0020c0:	9d002280 	0x9d002280
9d0020c4:	9d002424 	0x9d002424
9d0020c8:	9d002424 	0x9d002424
9d0020cc:	9d0025f4 	0x9d0025f4
9d0020d0:	9d002424 	0x9d002424
9d0020d4:	9d0020e8 	0x9d0020e8
9d0020d8:	9d002424 	0x9d002424
9d0020dc:	9d002424 	0x9d002424
9d0020e0:	9d0022f0 	0x9d0022f0
9d0020e4:	36f70010 	ori	s7,s7,0x10
9d0020e8:	32f7f7ff 	andi	s7,s7,0xf7ff
9d0020ec:	2410000a 	li	s0,10
9d0020f0:	2402ffff 	li	v0,-1
9d0020f4:	13c20067 	beq	s8,v0,9d002294 <_do_print_cdnopuxX+0x494>
9d0020f8:	00002821 	move	a1,zero
9d0020fc:	32f7fffb 	andi	s7,s7,0xfffb
9d002100:	27c5ffff 	addiu	a1,s8,-1
9d002104:	32e200c0 	andi	v0,s7,0xc0
9d002108:	10400066 	beqz	v0,9d0022a4 <_do_print_cdnopuxX+0x4a4>
9d00210c:	afa20064 	sw	v0,100(sp)
9d002110:	7c171620 	seh	v0,s7
9d002114:	04400182 	bltz	v0,9d002720 <_do_print_cdnopuxX+0x920>
9d002118:	32e20010 	andi	v0,s7,0x10
9d00211c:	104000f3 	beqz	v0,9d0024ec <_do_print_cdnopuxX+0x6ec>
9d002120:	32e20041 	andi	v0,s7,0x41
9d002124:	8fa400a0 	lw	a0,160(sp)
9d002128:	8c950000 	lw	s5,0(a0)
9d00212c:	24840004 	addiu	a0,a0,4
9d002130:	afa400a0 	sw	a0,160(sp)
9d002134:	0015a7c3 	sra	s4,s5,0x1f
9d002138:	02801021 	move	v0,s4
9d00213c:	0440010d 	bltz	v0,9d002574 <_do_print_cdnopuxX+0x774>
9d002140:	02a01821 	move	v1,s5
9d002144:	afa0006c 	sw	zero,108(sp)
9d002148:	128000bf 	beqz	s4,9d002448 <_do_print_cdnopuxX+0x648>
9d00214c:	02b41025 	or	v0,s5,s4
9d002150:	10400195 	beqz	v0,9d0027a8 <_do_print_cdnopuxX+0x9a8>
9d002154:	27a20057 	addiu	v0,sp,87
9d002158:	afa20068 	sw	v0,104(sp)
9d00215c:	32e30020 	andi	v1,s7,0x20
9d002160:	24040037 	li	a0,55
9d002164:	00108fc3 	sra	s1,s0,0x1f
9d002168:	00409821 	move	s3,v0
9d00216c:	24020057 	li	v0,87
9d002170:	0043200a 	movz	a0,v0,v1
9d002174:	afa4005c 	sw	a0,92(sp)
9d002178:	02a02021 	move	a0,s5
9d00217c:	02802821 	move	a1,s4
9d002180:	02003021 	move	a2,s0
9d002184:	0f400a1c 	jal	9d002870 <__umoddi3>
9d002188:	02203821 	move	a3,s1
9d00218c:	2843000a 	slti	v1,v0,10
9d002190:	24460030 	addiu	a2,v0,48
9d002194:	8fa4005c 	lw	a0,92(sp)
9d002198:	00441021 	addu	v0,v0,a0
9d00219c:	0043300a 	movz	a2,v0,v1
9d0021a0:	2673ffff 	addiu	s3,s3,-1
9d0021a4:	02a02021 	move	a0,s5
9d0021a8:	02802821 	move	a1,s4
9d0021ac:	a2660001 	sb	a2,1(s3)
9d0021b0:	02003021 	move	a2,s0
9d0021b4:	0f400b35 	jal	9d002cd4 <__udivdi3>
9d0021b8:	02203821 	move	a3,s1
9d0021bc:	00622025 	or	a0,v1,v0
9d0021c0:	0040a821 	move	s5,v0
9d0021c4:	0060a021 	move	s4,v1
9d0021c8:	1480ffeb 	bnez	a0,9d002178 <_do_print_cdnopuxX+0x378>
9d0021cc:	27deffff 	addiu	s8,s8,-1
9d0021d0:	27c5ffff 	addiu	a1,s8,-1
9d0021d4:	04a0000a 	bltz	a1,9d002200 <_do_print_cdnopuxX+0x400>
9d0021d8:	02601021 	move	v0,s3
9d0021dc:	2664ffff 	addiu	a0,s3,-1
9d0021e0:	00852023 	subu	a0,a0,a1
9d0021e4:	24030030 	li	v1,48
9d0021e8:	a0430000 	sb	v1,0(v0)
9d0021ec:	2442ffff 	addiu	v0,v0,-1
9d0021f0:	5444fffe 	bnel	v0,a0,9d0021ec <_do_print_cdnopuxX+0x3ec>
9d0021f4:	a0430000 	sb	v1,0(v0)
9d0021f8:	00052827 	nor	a1,zero,a1
9d0021fc:	02659821 	addu	s3,s3,a1
9d002200:	32e20004 	andi	v0,s7,0x4
9d002204:	1440003c 	bnez	v0,9d0022f8 <_do_print_cdnopuxX+0x4f8>
9d002208:	32e40800 	andi	a0,s7,0x800
9d00220c:	3084ffff 	andi	a0,a0,0xffff
9d002210:	50800007 	beqzl	a0,9d002230 <_do_print_cdnopuxX+0x430>
9d002214:	8fa30064 	lw	v1,100(sp)
9d002218:	24020008 	li	v0,8
9d00221c:	12020131 	beq	s0,v0,9d0026e4 <_do_print_cdnopuxX+0x8e4>
9d002220:	24020010 	li	v0,16
9d002224:	12020158 	beq	s0,v0,9d002788 <_do_print_cdnopuxX+0x988>
9d002228:	32e40020 	andi	a0,s7,0x20
9d00222c:	8fa30064 	lw	v1,100(sp)
9d002230:	10600007 	beqz	v1,9d002250 <_do_print_cdnopuxX+0x450>
9d002234:	8fa4006c 	lw	a0,108(sp)
9d002238:	1480009c 	bnez	a0,9d0024ac <_do_print_cdnopuxX+0x6ac>
9d00223c:	32e20002 	andi	v0,s7,0x2
9d002240:	10400003 	beqz	v0,9d002250 <_do_print_cdnopuxX+0x450>
9d002244:	2402002b 	li	v0,43
9d002248:	a2620000 	sb	v0,0(s3)
9d00224c:	2673ffff 	addiu	s3,s3,-1
9d002250:	26650001 	addiu	a1,s3,1
9d002254:	afb70010 	sw	s7,16(sp)
9d002258:	8fa40098 	lw	a0,152(sp)
9d00225c:	8fa20058 	lw	v0,88(sp)
9d002260:	00453023 	subu	a2,v0,a1
9d002264:	0f400d39 	jal	9d0034e4 <.LFE9>
9d002268:	02c03821 	move	a3,s6
9d00226c:	8fa30060 	lw	v1,96(sp)
9d002270:	00621821 	addu	v1,v1,v0
9d002274:	0b400796 	j	9d001e58 <_do_print_cdnopuxX+0x58>
9d002278:	afa30060 	sw	v1,96(sp)
9d00227c:	36f70020 	ori	s7,s7,0x20
9d002280:	36f70810 	ori	s7,s7,0x810
9d002284:	2402ffff 	li	v0,-1
9d002288:	17c2ff9c 	bne	s8,v0,9d0020fc <_do_print_cdnopuxX+0x2fc>
9d00228c:	24100010 	li	s0,16
9d002290:	00002821 	move	a1,zero
9d002294:	241e0001 	li	s8,1
9d002298:	32e200c0 	andi	v0,s7,0xc0
9d00229c:	1440ff9c 	bnez	v0,9d002110 <_do_print_cdnopuxX+0x310>
9d0022a0:	afa20064 	sw	v0,100(sp)
9d0022a4:	7c171620 	seh	v0,s7
9d0022a8:	04400115 	bltz	v0,9d002700 <_do_print_cdnopuxX+0x900>
9d0022ac:	8fa400a0 	lw	a0,160(sp)
9d0022b0:	32e20010 	andi	v0,s7,0x10
9d0022b4:	50400099 	beqzl	v0,9d00251c <_do_print_cdnopuxX+0x71c>
9d0022b8:	32e20041 	andi	v0,s7,0x41
9d0022bc:	8fa400a0 	lw	a0,160(sp)
9d0022c0:	8c950000 	lw	s5,0(a0)
9d0022c4:	0000a021 	move	s4,zero
9d0022c8:	24840004 	addiu	a0,a0,4
9d0022cc:	afa400a0 	sw	a0,160(sp)
9d0022d0:	0b400852 	j	9d002148 <_do_print_cdnopuxX+0x348>
9d0022d4:	afa0006c 	sw	zero,108(sp)
9d0022d8:	36f70010 	ori	s7,s7,0x10
9d0022dc:	32e8f7ff 	andi	t0,s7,0xf7ff
9d0022e0:	351700c0 	ori	s7,t0,0xc0
9d0022e4:	0b40083c 	j	9d0020f0 <_do_print_cdnopuxX+0x2f0>
9d0022e8:	2410000a 	li	s0,10
9d0022ec:	36f70020 	ori	s7,s7,0x20
9d0022f0:	0b40083c 	j	9d0020f0 <_do_print_cdnopuxX+0x2f0>
9d0022f4:	24100010 	li	s0,16
9d0022f8:	8fa20068 	lw	v0,104(sp)
9d0022fc:	02621823 	subu	v1,s3,v0
9d002300:	3084ffff 	andi	a0,a0,0xffff
9d002304:	10800006 	beqz	a0,9d002320 <_do_print_cdnopuxX+0x520>
9d002308:	02c31821 	addu	v1,s6,v1
9d00230c:	24020008 	li	v0,8
9d002310:	1202012d 	beq	s0,v0,9d0027c8 <_do_print_cdnopuxX+0x9c8>
9d002314:	2462fffe 	addiu	v0,v1,-2
9d002318:	3a050010 	xori	a1,s0,0x10
9d00231c:	0045180a 	movz	v1,v0,a1
9d002320:	8fa20064 	lw	v0,100(sp)
9d002324:	10400004 	beqz	v0,9d002338 <_do_print_cdnopuxX+0x538>
9d002328:	8fa2006c 	lw	v0,108(sp)
9d00232c:	10400099 	beqz	v0,9d002594 <_do_print_cdnopuxX+0x794>
9d002330:	32e20003 	andi	v0,s7,0x3
9d002334:	2463ffff 	addiu	v1,v1,-1
9d002338:	1860ffb5 	blez	v1,9d002210 <_do_print_cdnopuxX+0x410>
9d00233c:	02601021 	move	v0,s3
9d002340:	02634823 	subu	t1,s3,v1
9d002344:	24030030 	li	v1,48
9d002348:	a0430000 	sb	v1,0(v0)
9d00234c:	2442ffff 	addiu	v0,v0,-1
9d002350:	5522fffe 	bnel	t1,v0,9d00234c <_do_print_cdnopuxX+0x54c>
9d002354:	a0430000 	sb	v1,0(v0)
9d002358:	0b400884 	j	9d002210 <_do_print_cdnopuxX+0x410>
9d00235c:	01209821 	move	s3,t1
9d002360:	8fa200a0 	lw	v0,160(sp)
9d002364:	8c560000 	lw	s6,0(v0)
9d002368:	24550004 	addiu	s5,v0,4
9d00236c:	26100001 	addiu	s0,s0,1
9d002370:	06c10003 	bgez	s6,9d002380 <_do_print_cdnopuxX+0x580>
9d002374:	80820001 	lb	v0,1(a0)
9d002378:	36f70008 	ori	s7,s7,0x8
9d00237c:	0016b023 	negu	s6,s6
9d002380:	afb500a0 	sw	s5,160(sp)
9d002384:	2403002e 	li	v1,46
9d002388:	1443ff09 	bne	v0,v1,9d001fb0 <_do_print_cdnopuxX+0x1b0>
9d00238c:	241effff 	li	s8,-1
9d002390:	82020001 	lb	v0,1(s0)
9d002394:	2403002a 	li	v1,42
9d002398:	104300ed 	beq	v0,v1,9d002750 <_do_print_cdnopuxX+0x950>
9d00239c:	2443ffd0 	addiu	v1,v0,-48
9d0023a0:	2c63000a 	sltiu	v1,v1,10
9d0023a4:	26100001 	addiu	s0,s0,1
9d0023a8:	1060ff01 	beqz	v1,9d001fb0 <_do_print_cdnopuxX+0x1b0>
9d0023ac:	0000f021 	move	s8,zero
9d0023b0:	001e1840 	sll	v1,s8,0x1
9d0023b4:	001e58c0 	sll	t3,s8,0x3
9d0023b8:	006b5821 	addu	t3,v1,t3
9d0023bc:	26100001 	addiu	s0,s0,1
9d0023c0:	01625821 	addu	t3,t3,v0
9d0023c4:	82020000 	lb	v0,0(s0)
9d0023c8:	2443ffd0 	addiu	v1,v0,-48
9d0023cc:	2c63000a 	sltiu	v1,v1,10
9d0023d0:	1460fff7 	bnez	v1,9d0023b0 <_do_print_cdnopuxX+0x5b0>
9d0023d4:	257effd0 	addiu	s8,t3,-48
9d0023d8:	24030068 	li	v1,104
9d0023dc:	1443fef8 	bne	v0,v1,9d001fc0 <_do_print_cdnopuxX+0x1c0>
9d0023e0:	2403006c 	li	v1,108
9d0023e4:	82030001 	lb	v1,1(s0)
9d0023e8:	506200e3 	beql	v1,v0,9d002778 <_do_print_cdnopuxX+0x978>
9d0023ec:	82020002 	lb	v0,2(s0)
9d0023f0:	36f70040 	ori	s7,s7,0x40
9d0023f4:	00601021 	move	v0,v1
9d0023f8:	26100001 	addiu	s0,s0,1
9d0023fc:	32e40002 	andi	a0,s7,0x2
9d002400:	32e3fffe 	andi	v1,s7,0xfffe
9d002404:	0064b80b 	movn	s7,v1,a0
9d002408:	2442ffbc 	addiu	v0,v0,-68
9d00240c:	32e50008 	andi	a1,s7,0x8
9d002410:	32e4fffb 	andi	a0,s7,0xfffb
9d002414:	2c430035 	sltiu	v1,v0,53
9d002418:	26120001 	addiu	s2,s0,1
9d00241c:	1460fef5 	bnez	v1,9d001ff4 <_do_print_cdnopuxX+0x1f4>
9d002420:	0085b80b 	movn	s7,a0,a1
9d002424:	0b40089b 	j	9d00226c <_do_print_cdnopuxX+0x46c>
9d002428:	00001021 	move	v0,zero
9d00242c:	82030001 	lb	v1,1(s0)
9d002430:	506200e1 	beql	v1,v0,9d0027b8 <_do_print_cdnopuxX+0x9b8>
9d002434:	82020002 	lb	v0,2(s0)
9d002438:	36f70010 	ori	s7,s7,0x10
9d00243c:	00601021 	move	v0,v1
9d002440:	0b4008ff 	j	9d0023fc <_do_print_cdnopuxX+0x5fc>
9d002444:	26100001 	addiu	s0,s0,1
9d002448:	12a000d7 	beqz	s5,9d0027a8 <_do_print_cdnopuxX+0x9a8>
9d00244c:	02a06821 	move	t5,s5
9d002450:	27a30057 	addiu	v1,sp,87
9d002454:	afa30068 	sw	v1,104(sp)
9d002458:	32e30020 	andi	v1,s7,0x20
9d00245c:	24050037 	li	a1,55
9d002460:	8fb30068 	lw	s3,104(sp)
9d002464:	24020057 	li	v0,87
9d002468:	0043280a 	movz	a1,v0,v1
9d00246c:	01b0001b 	divu	zero,t5,s0
9d002470:	020001f4 	teq	s0,zero,0x7
9d002474:	00001810 	mfhi	v1
9d002478:	2673ffff 	addiu	s3,s3,-1
9d00247c:	27deffff 	addiu	s8,s8,-1
9d002480:	01b0001b 	divu	zero,t5,s0
9d002484:	020001f4 	teq	s0,zero,0x7
9d002488:	00006812 	mflo	t5
9d00248c:	2864000a 	slti	a0,v1,10
9d002490:	24620030 	addiu	v0,v1,48
9d002494:	00651821 	addu	v1,v1,a1
9d002498:	0064100a 	movz	v0,v1,a0
9d00249c:	15a0fff3 	bnez	t5,9d00246c <_do_print_cdnopuxX+0x66c>
9d0024a0:	a2620001 	sb	v0,1(s3)
9d0024a4:	0b400875 	j	9d0021d4 <_do_print_cdnopuxX+0x3d4>
9d0024a8:	27c5ffff 	addiu	a1,s8,-1
9d0024ac:	2402002d 	li	v0,45
9d0024b0:	a2620000 	sb	v0,0(s3)
9d0024b4:	0b400894 	j	9d002250 <_do_print_cdnopuxX+0x450>
9d0024b8:	2673ffff 	addiu	s3,s3,-1
9d0024bc:	24040025 	li	a0,37
9d0024c0:	0f400ee3 	jal	9d003b8c <fputc>
9d0024c4:	8fa50098 	lw	a1,152(sp)
9d0024c8:	26520002 	addiu	s2,s2,2
9d0024cc:	8fa40060 	lw	a0,96(sp)
9d0024d0:	24840001 	addiu	a0,a0,1
9d0024d4:	0b400796 	j	9d001e58 <_do_print_cdnopuxX+0x58>
9d0024d8:	afa40060 	sw	a0,96(sp)
9d0024dc:	82020001 	lb	v0,1(s0)
9d0024e0:	36f78000 	ori	s7,s7,0x8000
9d0024e4:	0b4008ff 	j	9d0023fc <_do_print_cdnopuxX+0x5fc>
9d0024e8:	26100001 	addiu	s0,s0,1
9d0024ec:	50400074 	beqzl	v0,9d0026c0 <_do_print_cdnopuxX+0x8c0>
9d0024f0:	8fa300a0 	lw	v1,160(sp)
9d0024f4:	8fa200a0 	lw	v0,160(sp)
9d0024f8:	8c550000 	lw	s5,0(v0)
9d0024fc:	24420004 	addiu	v0,v0,4
9d002500:	afa200a0 	sw	v0,160(sp)
9d002504:	0015a7c3 	sra	s4,s5,0x1f
9d002508:	02801021 	move	v0,s4
9d00250c:	0441ff0d 	bgez	v0,9d002144 <_do_print_cdnopuxX+0x344>
9d002510:	02a01821 	move	v1,s5
9d002514:	0b40095e 	j	9d002578 <_do_print_cdnopuxX+0x778>
9d002518:	00036823 	negu	t5,v1
9d00251c:	50400062 	beqzl	v0,9d0026a8 <_do_print_cdnopuxX+0x8a8>
9d002520:	8fa300a0 	lw	v1,160(sp)
9d002524:	8fa200a0 	lw	v0,160(sp)
9d002528:	8c550000 	lw	s5,0(v0)
9d00252c:	0000a021 	move	s4,zero
9d002530:	24420004 	addiu	v0,v0,4
9d002534:	afa200a0 	sw	v0,160(sp)
9d002538:	0b400852 	j	9d002148 <_do_print_cdnopuxX+0x348>
9d00253c:	afa0006c 	sw	zero,108(sp)
9d002540:	2402ffff 	li	v0,-1
9d002544:	8fbf0094 	lw	ra,148(sp)
9d002548:	8fbe0090 	lw	s8,144(sp)
9d00254c:	8fb7008c 	lw	s7,140(sp)
9d002550:	8fb60088 	lw	s6,136(sp)
9d002554:	8fb50084 	lw	s5,132(sp)
9d002558:	8fb40080 	lw	s4,128(sp)
9d00255c:	8fb3007c 	lw	s3,124(sp)
9d002560:	8fb20078 	lw	s2,120(sp)
9d002564:	8fb10074 	lw	s1,116(sp)
9d002568:	8fb00070 	lw	s0,112(sp)
9d00256c:	03e00008 	jr	ra
9d002570:	27bd0098 	addiu	sp,sp,152
9d002574:	00036823 	negu	t5,v1
9d002578:	000d182b 	sltu	v1,zero,t5
9d00257c:	00021023 	negu	v0,v0
9d002580:	01a0a821 	move	s5,t5
9d002584:	0043a023 	subu	s4,v0,v1
9d002588:	24040001 	li	a0,1
9d00258c:	0b400852 	j	9d002148 <_do_print_cdnopuxX+0x348>
9d002590:	afa4006c 	sw	a0,108(sp)
9d002594:	5440ff68 	bnezl	v0,9d002338 <_do_print_cdnopuxX+0x538>
9d002598:	2463ffff 	addiu	v1,v1,-1
9d00259c:	0b4008ce 	j	9d002338 <_do_print_cdnopuxX+0x538>
9d0025a0:	00000000 	nop
9d0025a4:	0b40083c 	j	9d0020f0 <_do_print_cdnopuxX+0x2f0>
9d0025a8:	24100008 	li	s0,8
9d0025ac:	7c171620 	seh	v0,s7
9d0025b0:	04400096 	bltz	v0,9d00280c <_do_print_cdnopuxX+0xa0c>
9d0025b4:	8fa400a0 	lw	a0,160(sp)
9d0025b8:	32e20010 	andi	v0,s7,0x10
9d0025bc:	14400087 	bnez	v0,9d0027dc <_do_print_cdnopuxX+0x9dc>
9d0025c0:	8fa200a0 	lw	v0,160(sp)
9d0025c4:	32e20040 	andi	v0,s7,0x40
9d0025c8:	1040009b 	beqz	v0,9d002838 <_do_print_cdnopuxX+0xa38>
9d0025cc:	32e80001 	andi	t0,s7,0x1
9d0025d0:	8fa200a0 	lw	v0,160(sp)
9d0025d4:	8c430000 	lw	v1,0(v0)
9d0025d8:	00001021 	move	v0,zero
9d0025dc:	8fa400a0 	lw	a0,160(sp)
9d0025e0:	24840004 	addiu	a0,a0,4
9d0025e4:	afa400a0 	sw	a0,160(sp)
9d0025e8:	8fa40060 	lw	a0,96(sp)
9d0025ec:	0b40089b 	j	9d00226c <_do_print_cdnopuxX+0x46c>
9d0025f0:	a4640000 	sh	a0,0(v1)
9d0025f4:	8fa400a0 	lw	a0,160(sp)
9d0025f8:	8c900000 	lw	s0,0(a0)
9d0025fc:	3c039d00 	lui	v1,0x9d00
9d002600:	246240dc 	addiu	v0,v1,16604
9d002604:	0050800a 	movz	s0,v0,s0
9d002608:	2402ffff 	li	v0,-1
9d00260c:	13c2007b 	beq	s8,v0,9d0027fc <_do_print_cdnopuxX+0x9fc>
9d002610:	24950004 	addiu	s5,a0,4
9d002614:	1bc00094 	blez	s8,9d002868 <_do_print_cdnopuxX+0xa68>
9d002618:	021e5821 	addu	t3,s0,s8
9d00261c:	82030000 	lb	v1,0(s0)
9d002620:	14600005 	bnez	v1,9d002638 <_do_print_cdnopuxX+0x838>
9d002624:	02001021 	move	v0,s0
9d002628:	0b400992 	j	9d002648 <_do_print_cdnopuxX+0x848>
9d00262c:	00001021 	move	v0,zero
9d002630:	50600005 	beqzl	v1,9d002648 <_do_print_cdnopuxX+0x848>
9d002634:	00501023 	subu	v0,v0,s0
9d002638:	24420001 	addiu	v0,v0,1
9d00263c:	544bfffc 	bnel	v0,t3,9d002630 <_do_print_cdnopuxX+0x830>
9d002640:	80430000 	lb	v1,0(v0)
9d002644:	00501023 	subu	v0,v0,s0
9d002648:	afb70010 	sw	s7,16(sp)
9d00264c:	8fa40098 	lw	a0,152(sp)
9d002650:	02002821 	move	a1,s0
9d002654:	00403021 	move	a2,v0
9d002658:	0f400d39 	jal	9d0034e4 <.LFE9>
9d00265c:	02c03821 	move	a3,s6
9d002660:	0b40089b 	j	9d00226c <_do_print_cdnopuxX+0x46c>
9d002664:	afb500a0 	sw	s5,160(sp)
9d002668:	8fa300a0 	lw	v1,160(sp)
9d00266c:	8c620000 	lw	v0,0(v1)
9d002670:	24750004 	addiu	s5,v1,4
9d002674:	afb70010 	sw	s7,16(sp)
9d002678:	8fa40098 	lw	a0,152(sp)
9d00267c:	27a50018 	addiu	a1,sp,24
9d002680:	24060001 	li	a2,1
9d002684:	02c03821 	move	a3,s6
9d002688:	a3a20018 	sb	v0,24(sp)
9d00268c:	0f400d39 	jal	9d0034e4 <.LFE9>
9d002690:	afb500a0 	sw	s5,160(sp)
9d002694:	0b40089c 	j	9d002270 <_do_print_cdnopuxX+0x470>
9d002698:	8fa30060 	lw	v1,96(sp)
9d00269c:	36f70010 	ori	s7,s7,0x10
9d0026a0:	0b40083c 	j	9d0020f0 <_do_print_cdnopuxX+0x2f0>
9d0026a4:	24100008 	li	s0,8
9d0026a8:	8c750000 	lw	s5,0(v1)
9d0026ac:	0000a021 	move	s4,zero
9d0026b0:	24630004 	addiu	v1,v1,4
9d0026b4:	afa300a0 	sw	v1,160(sp)
9d0026b8:	0b400852 	j	9d002148 <_do_print_cdnopuxX+0x348>
9d0026bc:	afa0006c 	sw	zero,108(sp)
9d0026c0:	8c750000 	lw	s5,0(v1)
9d0026c4:	24630004 	addiu	v1,v1,4
9d0026c8:	afa300a0 	sw	v1,160(sp)
9d0026cc:	0015a7c3 	sra	s4,s5,0x1f
9d0026d0:	02801021 	move	v0,s4
9d0026d4:	0441fe9b 	bgez	v0,9d002144 <_do_print_cdnopuxX+0x344>
9d0026d8:	02a01821 	move	v1,s5
9d0026dc:	0b40095e 	j	9d002578 <_do_print_cdnopuxX+0x778>
9d0026e0:	00036823 	negu	t5,v1
9d0026e4:	82630001 	lb	v1,1(s3)
9d0026e8:	24020030 	li	v0,48
9d0026ec:	1062fed0 	beq	v1,v0,9d002230 <_do_print_cdnopuxX+0x430>
9d0026f0:	8fa30064 	lw	v1,100(sp)
9d0026f4:	a2620000 	sb	v0,0(s3)
9d0026f8:	0b40088b 	j	9d00222c <_do_print_cdnopuxX+0x42c>
9d0026fc:	2673ffff 	addiu	s3,s3,-1
9d002700:	24820007 	addiu	v0,a0,7
9d002704:	7c021004 	ins	v0,zero,0x0,0x3
9d002708:	24430008 	addiu	v1,v0,8
9d00270c:	afa300a0 	sw	v1,160(sp)
9d002710:	8c550000 	lw	s5,0(v0)
9d002714:	8c540004 	lw	s4,4(v0)
9d002718:	0b400852 	j	9d002148 <_do_print_cdnopuxX+0x348>
9d00271c:	afa0006c 	sw	zero,108(sp)
9d002720:	8fa300a0 	lw	v1,160(sp)
9d002724:	24750007 	addiu	s5,v1,7
9d002728:	7c151004 	ins	s5,zero,0x0,0x3
9d00272c:	8ea30000 	lw	v1,0(s5)
9d002730:	8ea20004 	lw	v0,4(s5)
9d002734:	26b50008 	addiu	s5,s5,8
9d002738:	afb500a0 	sw	s5,160(sp)
9d00273c:	0060a821 	move	s5,v1
9d002740:	0441fe80 	bgez	v0,9d002144 <_do_print_cdnopuxX+0x344>
9d002744:	0040a021 	move	s4,v0
9d002748:	0b40095e 	j	9d002578 <_do_print_cdnopuxX+0x778>
9d00274c:	00036823 	negu	t5,v1
9d002750:	8fa300a0 	lw	v1,160(sp)
9d002754:	8c7e0000 	lw	s8,0(v1)
9d002758:	24750004 	addiu	s5,v1,4
9d00275c:	26030002 	addiu	v1,s0,2
9d002760:	82020002 	lb	v0,2(s0)
9d002764:	afb500a0 	sw	s5,160(sp)
9d002768:	07c1fe11 	bgez	s8,9d001fb0 <_do_print_cdnopuxX+0x1b0>
9d00276c:	00608021 	move	s0,v1
9d002770:	0b4007ec 	j	9d001fb0 <_do_print_cdnopuxX+0x1b0>
9d002774:	241effff 	li	s8,-1
9d002778:	36f70001 	ori	s7,s7,0x1
9d00277c:	26100001 	addiu	s0,s0,1
9d002780:	0b4008ff 	j	9d0023fc <_do_print_cdnopuxX+0x5fc>
9d002784:	26100001 	addiu	s0,s0,1
9d002788:	24020058 	li	v0,88
9d00278c:	24030078 	li	v1,120
9d002790:	0064100a 	movz	v0,v1,a0
9d002794:	a2620000 	sb	v0,0(s3)
9d002798:	24020030 	li	v0,48
9d00279c:	a262ffff 	sb	v0,-1(s3)
9d0027a0:	0b40088b 	j	9d00222c <_do_print_cdnopuxX+0x42c>
9d0027a4:	2673fffe 	addiu	s3,s3,-2
9d0027a8:	27a20057 	addiu	v0,sp,87
9d0027ac:	afa20068 	sw	v0,104(sp)
9d0027b0:	0b400875 	j	9d0021d4 <_do_print_cdnopuxX+0x3d4>
9d0027b4:	00409821 	move	s3,v0
9d0027b8:	36f78000 	ori	s7,s7,0x8000
9d0027bc:	26100001 	addiu	s0,s0,1
9d0027c0:	0b4008ff 	j	9d0023fc <_do_print_cdnopuxX+0x5fc>
9d0027c4:	26100001 	addiu	s0,s0,1
9d0027c8:	82620001 	lb	v0,1(s3)
9d0027cc:	38420030 	xori	v0,v0,0x30
9d0027d0:	0002102b 	sltu	v0,zero,v0
9d0027d4:	0b4008c8 	j	9d002320 <_do_print_cdnopuxX+0x520>
9d0027d8:	00621823 	subu	v1,v1,v0
9d0027dc:	8c430000 	lw	v1,0(v0)
9d0027e0:	00001021 	move	v0,zero
9d0027e4:	8fa400a0 	lw	a0,160(sp)
9d0027e8:	24840004 	addiu	a0,a0,4
9d0027ec:	afa400a0 	sw	a0,160(sp)
9d0027f0:	8fa40060 	lw	a0,96(sp)
9d0027f4:	0b40089b 	j	9d00226c <_do_print_cdnopuxX+0x46c>
9d0027f8:	ac640000 	sw	a0,0(v1)
9d0027fc:	0f400f0e 	jal	9d003c38 <strlen>
9d002800:	02002021 	move	a0,s0
9d002804:	0b400993 	j	9d00264c <_do_print_cdnopuxX+0x84c>
9d002808:	afb70010 	sw	s7,16(sp)
9d00280c:	8c820000 	lw	v0,0(a0)
9d002810:	8fa40060 	lw	a0,96(sp)
9d002814:	00041fc3 	sra	v1,a0,0x1f
9d002818:	8fa400a0 	lw	a0,160(sp)
9d00281c:	24840004 	addiu	a0,a0,4
9d002820:	afa400a0 	sw	a0,160(sp)
9d002824:	8fa40060 	lw	a0,96(sp)
9d002828:	ac440000 	sw	a0,0(v0)
9d00282c:	ac430004 	sw	v1,4(v0)
9d002830:	0b40089b 	j	9d00226c <_do_print_cdnopuxX+0x46c>
9d002834:	00001021 	move	v0,zero
9d002838:	8fa200a0 	lw	v0,160(sp)
9d00283c:	8c430000 	lw	v1,0(v0)
9d002840:	00001021 	move	v0,zero
9d002844:	8fa400a0 	lw	a0,160(sp)
9d002848:	24840004 	addiu	a0,a0,4
9d00284c:	afa400a0 	sw	a0,160(sp)
9d002850:	11000003 	beqz	t0,9d002860 <_do_print_cdnopuxX+0xa60>
9d002854:	8fa40060 	lw	a0,96(sp)
9d002858:	0b40089b 	j	9d00226c <_do_print_cdnopuxX+0x46c>
9d00285c:	a0640000 	sb	a0,0(v1)
9d002860:	0b40089b 	j	9d00226c <_do_print_cdnopuxX+0x46c>
9d002864:	ac640000 	sw	a0,0(v1)
9d002868:	0b400992 	j	9d002648 <_do_print_cdnopuxX+0x848>
9d00286c:	00001021 	move	v0,zero

Disassembly of section .text:

9d002870 <__umoddi3>:
9d002870:	00c04021 	move	t0,a2
9d002874:	00804821 	move	t1,a0
9d002878:	14e0003b 	bnez	a3,9d002968 <.LBE15+0xc>
9d00287c:	00a01821 	move	v1,a1
9d002880:	00a6102b 	sltu	v0,a1,a2
9d002884:	10400048 	beqz	v0,9d0029a8 <.LBE16+0x8>
9d002888:	70c21020 	clz	v0,a2
9d00288c:	50400008 	beqzl	v0,9d0028b0 <.LBB15+0x4>
9d002890:	00083402 	srl	a2,t0,0x10
9d002894:	00021823 	negu	v1,v0
9d002898:	00452804 	sllv	a1,a1,v0
9d00289c:	00641806 	srlv	v1,a0,v1
9d0028a0:	00464004 	sllv	t0,a2,v0
9d0028a4:	00651825 	or	v1,v1,a1
9d0028a8:	00444804 	sllv	t1,a0,v0

9d0028ac <.LBB15>:
9d0028ac:	00083402 	srl	a2,t0,0x10
9d0028b0:	0066001b 	divu	zero,v1,a2
9d0028b4:	00c001f4 	teq	a2,zero,0x7
9d0028b8:	00002010 	mfhi	a0
9d0028bc:	00005812 	mflo	t3
9d0028c0:	310cffff 	andi	t4,t0,0xffff
9d0028c4:	00095402 	srl	t2,t1,0x10
9d0028c8:	716c5802 	mul	t3,t3,t4
9d0028cc:	00042400 	sll	a0,a0,0x10
9d0028d0:	008a5025 	or	t2,a0,t2
9d0028d4:	014b682b 	sltu	t5,t2,t3
9d0028d8:	0066001b 	divu	zero,v1,a2
9d0028dc:	00c001f4 	teq	a2,zero,0x7
9d0028e0:	51a00009 	beqzl	t5,9d002908 <.LBB15+0x5c>
9d0028e4:	014b5023 	subu	t2,t2,t3
9d0028e8:	01485021 	addu	t2,t2,t0
9d0028ec:	0148182b 	sltu	v1,t2,t0
9d0028f0:	54600005 	bnezl	v1,9d002908 <.LBB15+0x5c>
9d0028f4:	014b5023 	subu	t2,t2,t3
9d0028f8:	014b202b 	sltu	a0,t2,t3
9d0028fc:	01481821 	addu	v1,t2,t0
9d002900:	0064500b 	movn	t2,v1,a0
9d002904:	014b5023 	subu	t2,t2,t3
9d002908:	3123ffff 	andi	v1,t1,0xffff
9d00290c:	0146001b 	divu	zero,t2,a2
9d002910:	00c001f4 	teq	a2,zero,0x7
9d002914:	00004810 	mfhi	t1
9d002918:	00002012 	mflo	a0
9d00291c:	708c2002 	mul	a0,a0,t4
9d002920:	00094c00 	sll	t1,t1,0x10
9d002924:	01234825 	or	t1,t1,v1
9d002928:	0124182b 	sltu	v1,t1,a0
9d00292c:	0146001b 	divu	zero,t2,a2
9d002930:	00c001f4 	teq	a2,zero,0x7
9d002934:	50600009 	beqzl	v1,9d00295c <.LBE15>
9d002938:	01244823 	subu	t1,t1,a0
9d00293c:	01284821 	addu	t1,t1,t0
9d002940:	0128182b 	sltu	v1,t1,t0
9d002944:	54600005 	bnezl	v1,9d00295c <.LBE15>
9d002948:	01244823 	subu	t1,t1,a0
9d00294c:	0124182b 	sltu	v1,t1,a0
9d002950:	01284021 	addu	t0,t1,t0
9d002954:	0103480b 	movn	t1,t0,v1
9d002958:	01244823 	subu	t1,t1,a0

9d00295c <.LBE15>:
9d00295c:	00491006 	srlv	v0,t1,v0
9d002960:	03e00008 	jr	ra
9d002964:	00001821 	move	v1,zero
9d002968:	00a7102b 	sltu	v0,a1,a3
9d00296c:	14400047 	bnez	v0,9d002a8c <.LBE17+0xc>
9d002970:	70ea5020 	clz	t2,a3
9d002974:	15400048 	bnez	t2,9d002a98 <.LBE17+0x18>
9d002978:	240b0020 	li	t3,32
9d00297c:	00e5102b 	sltu	v0,a3,a1
9d002980:	14400005 	bnez	v0,9d002998 <.LBB16+0x4>
9d002984:	00861023 	subu	v0,a0,a2
9d002988:	0086402b 	sltu	t0,a0,a2
9d00298c:	15000089 	bnez	t0,9d002bb4 <.LBE24+0x10>
9d002990:	00801021 	move	v0,a0

9d002994 <.LBB16>:
9d002994:	00861023 	subu	v0,a0,a2
9d002998:	00a72823 	subu	a1,a1,a3
9d00299c:	0082202b 	sltu	a0,a0,v0

9d0029a0 <.LBE16>:
9d0029a0:	03e00008 	jr	ra
9d0029a4:	00a41823 	subu	v1,a1,a0
9d0029a8:	14c00006 	bnez	a2,9d0029c4 <.LBE16+0x24>
9d0029ac:	71021020 	clz	v0,t0
9d0029b0:	24020001 	li	v0,1
9d0029b4:	0046001b 	divu	zero,v0,a2
9d0029b8:	00c001f4 	teq	a2,zero,0x7
9d0029bc:	00004012 	mflo	t0
9d0029c0:	71021020 	clz	v0,t0
9d0029c4:	5440007d 	bnezl	v0,9d002bbc <.LBE24+0x18>
9d0029c8:	00484004 	sllv	t0,t0,v0
9d0029cc:	00a82823 	subu	a1,a1,t0
9d0029d0:	00081c02 	srl	v1,t0,0x10
9d0029d4:	3107ffff 	andi	a3,t0,0xffff

9d0029d8 <.LBB17>:
9d0029d8:	00092402 	srl	a0,t1,0x10
9d0029dc:	00a3001b 	divu	zero,a1,v1
9d0029e0:	006001f4 	teq	v1,zero,0x7
9d0029e4:	00005010 	mfhi	t2
9d0029e8:	00003012 	mflo	a2
9d0029ec:	70c73002 	mul	a2,a2,a3
9d0029f0:	000a5400 	sll	t2,t2,0x10
9d0029f4:	01442025 	or	a0,t2,a0
9d0029f8:	0086502b 	sltu	t2,a0,a2
9d0029fc:	00a3001b 	divu	zero,a1,v1
9d002a00:	006001f4 	teq	v1,zero,0x7
9d002a04:	51400009 	beqzl	t2,9d002a2c <.LBB17+0x54>
9d002a08:	00862023 	subu	a0,a0,a2
9d002a0c:	00882021 	addu	a0,a0,t0
9d002a10:	0088282b 	sltu	a1,a0,t0
9d002a14:	54a00005 	bnezl	a1,9d002a2c <.LBB17+0x54>
9d002a18:	00862023 	subu	a0,a0,a2
9d002a1c:	0086502b 	sltu	t2,a0,a2
9d002a20:	00882821 	addu	a1,a0,t0
9d002a24:	00aa200b 	movn	a0,a1,t2
9d002a28:	00862023 	subu	a0,a0,a2
9d002a2c:	3126ffff 	andi	a2,t1,0xffff
9d002a30:	0083001b 	divu	zero,a0,v1
9d002a34:	006001f4 	teq	v1,zero,0x7
9d002a38:	00004810 	mfhi	t1
9d002a3c:	00002812 	mflo	a1
9d002a40:	70a72802 	mul	a1,a1,a3
9d002a44:	00094c00 	sll	t1,t1,0x10
9d002a48:	01264825 	or	t1,t1,a2
9d002a4c:	0125302b 	sltu	a2,t1,a1
9d002a50:	0083001b 	divu	zero,a0,v1
9d002a54:	006001f4 	teq	v1,zero,0x7
9d002a58:	50c00009 	beqzl	a2,9d002a80 <.LBE17>
9d002a5c:	01254823 	subu	t1,t1,a1
9d002a60:	01284821 	addu	t1,t1,t0
9d002a64:	0128182b 	sltu	v1,t1,t0
9d002a68:	54600005 	bnezl	v1,9d002a80 <.LBE17>
9d002a6c:	01254823 	subu	t1,t1,a1
9d002a70:	0125182b 	sltu	v1,t1,a1
9d002a74:	01284021 	addu	t0,t1,t0
9d002a78:	0103480b 	movn	t1,t0,v1
9d002a7c:	01254823 	subu	t1,t1,a1

9d002a80 <.LBE17>:
9d002a80:	00491006 	srlv	v0,t1,v0
9d002a84:	03e00008 	jr	ra
9d002a88:	00001821 	move	v1,zero
9d002a8c:	00801021 	move	v0,a0
9d002a90:	03e00008 	jr	ra
9d002a94:	00a01821 	move	v1,a1
9d002a98:	016a5823 	subu	t3,t3,t2
9d002a9c:	01473804 	sllv	a3,a3,t2
9d002aa0:	01661006 	srlv	v0,a2,t3
9d002aa4:	00473825 	or	a3,v0,a3
9d002aa8:	01656806 	srlv	t5,a1,t3
9d002aac:	00074c02 	srl	t1,a3,0x10
9d002ab0:	01a9001b 	divu	zero,t5,t1
9d002ab4:	012001f4 	teq	t1,zero,0x7
9d002ab8:	00006010 	mfhi	t4
9d002abc:	00001812 	mflo	v1
9d002ac0:	30eeffff 	andi	t6,a3,0xffff
9d002ac4:	01452804 	sllv	a1,a1,t2
9d002ac8:	01641006 	srlv	v0,a0,t3
9d002acc:	00451025 	or	v0,v0,a1
9d002ad0:	00022c02 	srl	a1,v0,0x10
9d002ad4:	01463004 	sllv	a2,a2,t2
9d002ad8:	00004012 	mflo	t0
9d002adc:	706e7802 	mul	t7,v1,t6
9d002ae0:	000c6400 	sll	t4,t4,0x10
9d002ae4:	01856025 	or	t4,t4,a1
9d002ae8:	018f282b 	sltu	a1,t4,t7
9d002aec:	01a9001b 	divu	zero,t5,t1
9d002af0:	012001f4 	teq	t1,zero,0x7
9d002af4:	10a0000a 	beqz	a1,9d002b20 <.LBE17+0xa0>
9d002af8:	01442004 	sllv	a0,a0,t2
9d002afc:	01876021 	addu	t4,t4,a3
9d002b00:	0187282b 	sltu	a1,t4,a3
9d002b04:	14a00006 	bnez	a1,9d002b20 <.LBE17+0xa0>
9d002b08:	2468ffff 	addiu	t0,v1,-1
9d002b0c:	018f282b 	sltu	a1,t4,t7
9d002b10:	50a00004 	beqzl	a1,9d002b24 <.LBE17+0xa4>
9d002b14:	018f6023 	subu	t4,t4,t7
9d002b18:	2468fffe 	addiu	t0,v1,-2
9d002b1c:	01876021 	addu	t4,t4,a3
9d002b20:	018f6023 	subu	t4,t4,t7
9d002b24:	3042ffff 	andi	v0,v0,0xffff
9d002b28:	0189001b 	divu	zero,t4,t1
9d002b2c:	012001f4 	teq	t1,zero,0x7
9d002b30:	00002810 	mfhi	a1
9d002b34:	00001812 	mflo	v1
9d002b38:	00006812 	mflo	t5
9d002b3c:	706e7002 	mul	t6,v1,t6
9d002b40:	00052c00 	sll	a1,a1,0x10
9d002b44:	00a21025 	or	v0,a1,v0
9d002b48:	004e282b 	sltu	a1,v0,t6
9d002b4c:	0189001b 	divu	zero,t4,t1
9d002b50:	012001f4 	teq	t1,zero,0x7
9d002b54:	50a00006 	beqzl	a1,9d002b70 <.LBE17+0xf0>
9d002b58:	00084400 	sll	t0,t0,0x10
9d002b5c:	00471021 	addu	v0,v0,a3
9d002b60:	0047282b 	sltu	a1,v0,a3
9d002b64:	10a0004c 	beqz	a1,9d002c98 <.LBE25>
9d002b68:	246dffff 	addiu	t5,v1,-1
9d002b6c:	00084400 	sll	t0,t0,0x10
9d002b70:	01a84025 	or	t0,t5,t0
9d002b74:	004e1023 	subu	v0,v0,t6
9d002b78:	01060019 	multu	t0,a2
9d002b7c:	00004810 	mfhi	t1
9d002b80:	0049182b 	sltu	v1,v0,t1
9d002b84:	1460003e 	bnez	v1,9d002c80 <.LBB25>
9d002b88:	00004012 	mflo	t0
9d002b8c:	1049004b 	beq	v0,t1,9d002cbc <.LBE25+0x24>
9d002b90:	00491823 	subu	v1,v0,t1
9d002b94:	00003012 	mflo	a2

9d002b98 <.LBB24>:
9d002b98:	00863023 	subu	a2,a0,a2
9d002b9c:	0086202b 	sltu	a0,a0,a2
9d002ba0:	00641823 	subu	v1,v1,a0

9d002ba4 <.LBE24>:
9d002ba4:	01631004 	sllv	v0,v1,t3
9d002ba8:	01463006 	srlv	a2,a2,t2
9d002bac:	00461025 	or	v0,v0,a2
9d002bb0:	01431806 	srlv	v1,v1,t2
9d002bb4:	03e00008 	jr	ra
9d002bb8:	00000000 	nop
9d002bbc:	24090020 	li	t1,32
9d002bc0:	01224823 	subu	t1,t1,v0
9d002bc4:	01255006 	srlv	t2,a1,t1
9d002bc8:	00081c02 	srl	v1,t0,0x10
9d002bcc:	0143001b 	divu	zero,t2,v1
9d002bd0:	006001f4 	teq	v1,zero,0x7
9d002bd4:	00003010 	mfhi	a2
9d002bd8:	00005812 	mflo	t3
9d002bdc:	3107ffff 	andi	a3,t0,0xffff
9d002be0:	00452804 	sllv	a1,a1,v0
9d002be4:	01244806 	srlv	t1,a0,t1
9d002be8:	01252825 	or	a1,t1,a1
9d002bec:	00056402 	srl	t4,a1,0x10
9d002bf0:	00444804 	sllv	t1,a0,v0
9d002bf4:	71675802 	mul	t3,t3,a3
9d002bf8:	00063400 	sll	a2,a2,0x10
9d002bfc:	01863025 	or	a2,t4,a2
9d002c00:	00cb202b 	sltu	a0,a2,t3
9d002c04:	0143001b 	divu	zero,t2,v1
9d002c08:	006001f4 	teq	v1,zero,0x7
9d002c0c:	50800006 	beqzl	a0,9d002c28 <.LBE24+0x84>
9d002c10:	00cb3023 	subu	a2,a2,t3
9d002c14:	00c83021 	addu	a2,a2,t0
9d002c18:	00c8202b 	sltu	a0,a2,t0
9d002c1c:	10800024 	beqz	a0,9d002cb0 <.LBE25+0x18>
9d002c20:	00cb502b 	sltu	t2,a2,t3
9d002c24:	00cb3023 	subu	a2,a2,t3
9d002c28:	30aaffff 	andi	t2,a1,0xffff
9d002c2c:	00c3001b 	divu	zero,a2,v1
9d002c30:	006001f4 	teq	v1,zero,0x7
9d002c34:	00002010 	mfhi	a0
9d002c38:	00002812 	mflo	a1
9d002c3c:	70a72802 	mul	a1,a1,a3
9d002c40:	00042400 	sll	a0,a0,0x10
9d002c44:	008a2025 	or	a0,a0,t2
9d002c48:	0085502b 	sltu	t2,a0,a1
9d002c4c:	00c3001b 	divu	zero,a2,v1
9d002c50:	006001f4 	teq	v1,zero,0x7
9d002c54:	5140ff60 	beqzl	t2,9d0029d8 <.LBB17>
9d002c58:	00852823 	subu	a1,a0,a1
9d002c5c:	00882021 	addu	a0,a0,t0
9d002c60:	0088302b 	sltu	a2,a0,t0
9d002c64:	54c0ff5c 	bnezl	a2,9d0029d8 <.LBB17>
9d002c68:	00852823 	subu	a1,a0,a1
9d002c6c:	0085502b 	sltu	t2,a0,a1
9d002c70:	00883021 	addu	a2,a0,t0
9d002c74:	00ca200b 	movn	a0,a2,t2
9d002c78:	0b400a76 	j	9d0029d8 <.LBB17>
9d002c7c:	00852823 	subu	a1,a0,a1

9d002c80 <.LBB25>:
9d002c80:	01063023 	subu	a2,t0,a2
9d002c84:	01271823 	subu	v1,t1,a3
9d002c88:	0106402b 	sltu	t0,t0,a2
9d002c8c:	00681823 	subu	v1,v1,t0
9d002c90:	0b400ae6 	j	9d002b98 <.LBB24>
9d002c94:	00431823 	subu	v1,v0,v1

9d002c98 <.LBE25>:
9d002c98:	004e282b 	sltu	a1,v0,t6
9d002c9c:	50a0ffb4 	beqzl	a1,9d002b70 <.LBE17+0xf0>
9d002ca0:	00084400 	sll	t0,t0,0x10
9d002ca4:	246dfffe 	addiu	t5,v1,-2
9d002ca8:	0b400adb 	j	9d002b6c <.LBE17+0xec>
9d002cac:	00471021 	addu	v0,v0,a3
9d002cb0:	00c82021 	addu	a0,a2,t0
9d002cb4:	0b400b09 	j	9d002c24 <.LBE24+0x80>
9d002cb8:	008a300b 	movn	a2,a0,t2
9d002cbc:	0088182b 	sltu	v1,a0,t0
9d002cc0:	5460fff0 	bnezl	v1,9d002c84 <.LBB25+0x4>
9d002cc4:	01063023 	subu	a2,t0,a2
9d002cc8:	00003012 	mflo	a2
9d002ccc:	0b400ae6 	j	9d002b98 <.LBB24>
9d002cd0:	00001821 	move	v1,zero

9d002cd4 <__udivdi3>:
9d002cd4:	00c04021 	move	t0,a2
9d002cd8:	00801021 	move	v0,a0
9d002cdc:	14e0003f 	bnez	a3,9d002ddc <.LBE15+0x8>
9d002ce0:	00a04821 	move	t1,a1
9d002ce4:	00a6182b 	sltu	v1,a1,a2
9d002ce8:	10600047 	beqz	v1,9d002e08 <.LBE15+0x34>
9d002cec:	70c31820 	clz	v1,a2
9d002cf0:	50600008 	beqzl	v1,9d002d14 <.LBB15+0x4>
9d002cf4:	00081c02 	srl	v1,t0,0x10
9d002cf8:	00034823 	negu	t1,v1
9d002cfc:	00652804 	sllv	a1,a1,v1
9d002d00:	01244806 	srlv	t1,a0,t1
9d002d04:	00664004 	sllv	t0,a2,v1
9d002d08:	01254825 	or	t1,t1,a1
9d002d0c:	00641004 	sllv	v0,a0,v1

9d002d10 <.LBB15>:
9d002d10:	00081c02 	srl	v1,t0,0x10
9d002d14:	0123001b 	divu	zero,t1,v1
9d002d18:	006001f4 	teq	v1,zero,0x7
9d002d1c:	00006010 	mfhi	t4
9d002d20:	00005812 	mflo	t3
9d002d24:	310affff 	andi	t2,t0,0xffff
9d002d28:	00022402 	srl	a0,v0,0x10
9d002d2c:	00003012 	mflo	a2
9d002d30:	716a3802 	mul	a3,t3,t2
9d002d34:	000c6400 	sll	t4,t4,0x10
9d002d38:	01842025 	or	a0,t4,a0
9d002d3c:	0087602b 	sltu	t4,a0,a3
9d002d40:	0123001b 	divu	zero,t1,v1
9d002d44:	006001f4 	teq	v1,zero,0x7
9d002d48:	1180000b 	beqz	t4,9d002d78 <.LBB15+0x68>
9d002d4c:	00872823 	subu	a1,a0,a3
9d002d50:	00882021 	addu	a0,a0,t0
9d002d54:	0088282b 	sltu	a1,a0,t0
9d002d58:	14a00006 	bnez	a1,9d002d74 <.LBB15+0x64>
9d002d5c:	2566ffff 	addiu	a2,t3,-1
9d002d60:	0087282b 	sltu	a1,a0,a3
9d002d64:	10a00004 	beqz	a1,9d002d78 <.LBB15+0x68>
9d002d68:	00872823 	subu	a1,a0,a3
9d002d6c:	2566fffe 	addiu	a2,t3,-2
9d002d70:	00882021 	addu	a0,a0,t0
9d002d74:	00872823 	subu	a1,a0,a3
9d002d78:	3042ffff 	andi	v0,v0,0xffff
9d002d7c:	00a3001b 	divu	zero,a1,v1
9d002d80:	006001f4 	teq	v1,zero,0x7
9d002d84:	00004810 	mfhi	t1
9d002d88:	00003812 	mflo	a3
9d002d8c:	00002012 	mflo	a0
9d002d90:	70ea5002 	mul	t2,a3,t2
9d002d94:	00094c00 	sll	t1,t1,0x10
9d002d98:	01221025 	or	v0,t1,v0
9d002d9c:	004a482b 	sltu	t1,v0,t2
9d002da0:	00a3001b 	divu	zero,a1,v1
9d002da4:	006001f4 	teq	v1,zero,0x7
9d002da8:	51200009 	beqzl	t1,9d002dd0 <.LBB15+0xc0>
9d002dac:	00061400 	sll	v0,a2,0x10
9d002db0:	00481021 	addu	v0,v0,t0
9d002db4:	0048402b 	sltu	t0,v0,t0
9d002db8:	15000004 	bnez	t0,9d002dcc <.LBB15+0xbc>
9d002dbc:	24e4ffff 	addiu	a0,a3,-1
9d002dc0:	004a502b 	sltu	t2,v0,t2
9d002dc4:	24e7fffe 	addiu	a3,a3,-2
9d002dc8:	00ea200b 	movn	a0,a3,t2
9d002dcc:	00061400 	sll	v0,a2,0x10
9d002dd0:	00821025 	or	v0,a0,v0

9d002dd4 <.LBE15>:
9d002dd4:	03e00008 	jr	ra
9d002dd8:	00001821 	move	v1,zero
9d002ddc:	00a7102b 	sltu	v0,a1,a3
9d002de0:	14400044 	bnez	v0,9d002ef4 <.LBE16+0x8>
9d002de4:	70e84020 	clz	t0,a3
9d002de8:	55000045 	bnezl	t0,9d002f00 <.LBE16+0x14>
9d002dec:	24020020 	li	v0,32
9d002df0:	00e5282b 	sltu	a1,a3,a1
9d002df4:	14a000c8 	bnez	a1,9d003118 <.LBE20+0x120>
9d002df8:	0086302b 	sltu	a2,a0,a2
9d002dfc:	38c20001 	xori	v0,a2,0x1
9d002e00:	03e00008 	jr	ra
9d002e04:	00001821 	move	v1,zero
9d002e08:	14c00006 	bnez	a2,9d002e24 <.LBE15+0x50>
9d002e0c:	71031820 	clz	v1,t0
9d002e10:	24030001 	li	v1,1
9d002e14:	0066001b 	divu	zero,v1,a2
9d002e18:	00c001f4 	teq	a2,zero,0x7
9d002e1c:	00004012 	mflo	t0
9d002e20:	71031820 	clz	v1,t0
9d002e24:	5460007b 	bnezl	v1,9d003014 <.LBE20+0x1c>
9d002e28:	00684004 	sllv	t0,t0,v1
9d002e2c:	00a82023 	subu	a0,a1,t0
9d002e30:	00083c02 	srl	a3,t0,0x10
9d002e34:	310bffff 	andi	t3,t0,0xffff
9d002e38:	24030001 	li	v1,1

9d002e3c <.LBB16>:
9d002e3c:	00023402 	srl	a2,v0,0x10
9d002e40:	0087001b 	divu	zero,a0,a3
9d002e44:	00e001f4 	teq	a3,zero,0x7
9d002e48:	00006810 	mfhi	t5
9d002e4c:	00006012 	mflo	t4
9d002e50:	00004812 	mflo	t1
9d002e54:	718b5002 	mul	t2,t4,t3
9d002e58:	000d6c00 	sll	t5,t5,0x10
9d002e5c:	01a63025 	or	a2,t5,a2
9d002e60:	00ca682b 	sltu	t5,a2,t2
9d002e64:	0087001b 	divu	zero,a0,a3
9d002e68:	00e001f4 	teq	a3,zero,0x7
9d002e6c:	11a00009 	beqz	t5,9d002e94 <.LBB16+0x58>
9d002e70:	00ca2823 	subu	a1,a2,t2
9d002e74:	00c83021 	addu	a2,a2,t0
9d002e78:	00c8202b 	sltu	a0,a2,t0
9d002e7c:	14800004 	bnez	a0,9d002e90 <.LBB16+0x54>
9d002e80:	2589ffff 	addiu	t1,t4,-1
9d002e84:	00ca202b 	sltu	a0,a2,t2
9d002e88:	548000a6 	bnezl	a0,9d003124 <.LBE20+0x12c>
9d002e8c:	2589fffe 	addiu	t1,t4,-2
9d002e90:	00ca2823 	subu	a1,a2,t2
9d002e94:	3042ffff 	andi	v0,v0,0xffff
9d002e98:	00a7001b 	divu	zero,a1,a3
9d002e9c:	00e001f4 	teq	a3,zero,0x7
9d002ea0:	00005010 	mfhi	t2
9d002ea4:	00003012 	mflo	a2
9d002ea8:	00002012 	mflo	a0
9d002eac:	70cb5802 	mul	t3,a2,t3
9d002eb0:	000a5400 	sll	t2,t2,0x10
9d002eb4:	01421025 	or	v0,t2,v0
9d002eb8:	004b502b 	sltu	t2,v0,t3
9d002ebc:	00a7001b 	divu	zero,a1,a3
9d002ec0:	00e001f4 	teq	a3,zero,0x7
9d002ec4:	51400009 	beqzl	t2,9d002eec <.LBE16>
9d002ec8:	00091400 	sll	v0,t1,0x10
9d002ecc:	00481021 	addu	v0,v0,t0
9d002ed0:	0048402b 	sltu	t0,v0,t0
9d002ed4:	15000004 	bnez	t0,9d002ee8 <.LBB16+0xac>
9d002ed8:	24c4ffff 	addiu	a0,a2,-1
9d002edc:	004b582b 	sltu	t3,v0,t3
9d002ee0:	24c6fffe 	addiu	a2,a2,-2
9d002ee4:	00cb200b 	movn	a0,a2,t3
9d002ee8:	00091400 	sll	v0,t1,0x10

9d002eec <.LBE16>:
9d002eec:	03e00008 	jr	ra
9d002ef0:	00821025 	or	v0,a0,v0
9d002ef4:	00001821 	move	v1,zero
9d002ef8:	03e00008 	jr	ra
9d002efc:	00001021 	move	v0,zero
9d002f00:	00481023 	subu	v0,v0,t0
9d002f04:	01073804 	sllv	a3,a3,t0
9d002f08:	00461806 	srlv	v1,a2,v0
9d002f0c:	00673825 	or	a3,v1,a3
9d002f10:	00455006 	srlv	t2,a1,v0
9d002f14:	00071c02 	srl	v1,a3,0x10
9d002f18:	0143001b 	divu	zero,t2,v1
9d002f1c:	006001f4 	teq	v1,zero,0x7
9d002f20:	00004810 	mfhi	t1
9d002f24:	00006812 	mflo	t5
9d002f28:	30ebffff 	andi	t3,a3,0xffff
9d002f2c:	01052804 	sllv	a1,a1,t0
9d002f30:	00441006 	srlv	v0,a0,v0
9d002f34:	00452825 	or	a1,v0,a1
9d002f38:	00057402 	srl	t6,a1,0x10
9d002f3c:	00001012 	mflo	v0
9d002f40:	71ab6002 	mul	t4,t5,t3
9d002f44:	00094c00 	sll	t1,t1,0x10
9d002f48:	012e4825 	or	t1,t1,t6
9d002f4c:	012c702b 	sltu	t6,t1,t4
9d002f50:	0143001b 	divu	zero,t2,v1
9d002f54:	006001f4 	teq	v1,zero,0x7
9d002f58:	11c0000a 	beqz	t6,9d002f84 <.LBE16+0x98>
9d002f5c:	01063004 	sllv	a2,a2,t0
9d002f60:	01274821 	addu	t1,t1,a3
9d002f64:	0127502b 	sltu	t2,t1,a3
9d002f68:	15400006 	bnez	t2,9d002f84 <.LBE16+0x98>
9d002f6c:	25a2ffff 	addiu	v0,t5,-1
9d002f70:	012c502b 	sltu	t2,t1,t4
9d002f74:	51400004 	beqzl	t2,9d002f88 <.LBE16+0x9c>
9d002f78:	012c4823 	subu	t1,t1,t4
9d002f7c:	25a2fffe 	addiu	v0,t5,-2
9d002f80:	01274821 	addu	t1,t1,a3
9d002f84:	012c4823 	subu	t1,t1,t4
9d002f88:	30a5ffff 	andi	a1,a1,0xffff
9d002f8c:	0123001b 	divu	zero,t1,v1
9d002f90:	006001f4 	teq	v1,zero,0x7
9d002f94:	00006810 	mfhi	t5
9d002f98:	00006012 	mflo	t4
9d002f9c:	00005012 	mflo	t2
9d002fa0:	718b5802 	mul	t3,t4,t3
9d002fa4:	000d6c00 	sll	t5,t5,0x10
9d002fa8:	01a52825 	or	a1,t5,a1
9d002fac:	00ab682b 	sltu	t5,a1,t3
9d002fb0:	0123001b 	divu	zero,t1,v1
9d002fb4:	006001f4 	teq	v1,zero,0x7
9d002fb8:	51a0000b 	beqzl	t5,9d002fe8 <.LBE16+0xfc>
9d002fbc:	00021400 	sll	v0,v0,0x10
9d002fc0:	00a72821 	addu	a1,a1,a3
9d002fc4:	00a7182b 	sltu	v1,a1,a3
9d002fc8:	14600006 	bnez	v1,9d002fe4 <.LBE16+0xf8>
9d002fcc:	258affff 	addiu	t2,t4,-1
9d002fd0:	00ab182b 	sltu	v1,a1,t3
9d002fd4:	50600004 	beqzl	v1,9d002fe8 <.LBE16+0xfc>
9d002fd8:	00021400 	sll	v0,v0,0x10
9d002fdc:	258afffe 	addiu	t2,t4,-2
9d002fe0:	00a72821 	addu	a1,a1,a3
9d002fe4:	00021400 	sll	v0,v0,0x10
9d002fe8:	01421025 	or	v0,t2,v0
9d002fec:	00ab2823 	subu	a1,a1,t3

9d002ff0 <.LBB20>:
9d002ff0:	00460019 	multu	v0,a2
9d002ff4:	00003810 	mfhi	a3

9d002ff8 <.LBE20>:
9d002ff8:	00a7182b 	sltu	v1,a1,a3
9d002ffc:	14600044 	bnez	v1,9d003110 <.LBE20+0x118>
9d003000:	00003012 	mflo	a2
9d003004:	10a7003f 	beq	a1,a3,9d003104 <.LBE20+0x10c>
9d003008:	01042004 	sllv	a0,a0,t0
9d00300c:	03e00008 	jr	ra
9d003010:	00001821 	move	v1,zero
9d003014:	24020020 	li	v0,32
9d003018:	00431023 	subu	v0,v0,v1
9d00301c:	00454806 	srlv	t1,a1,v0
9d003020:	00083c02 	srl	a3,t0,0x10
9d003024:	0127001b 	divu	zero,t1,a3
9d003028:	00e001f4 	teq	a3,zero,0x7
9d00302c:	00003010 	mfhi	a2
9d003030:	00006012 	mflo	t4
9d003034:	310bffff 	andi	t3,t0,0xffff
9d003038:	00652804 	sllv	a1,a1,v1
9d00303c:	00441006 	srlv	v0,a0,v0
9d003040:	00452825 	or	a1,v0,a1
9d003044:	00056c02 	srl	t5,a1,0x10
9d003048:	00641004 	sllv	v0,a0,v1
9d00304c:	00001812 	mflo	v1
9d003050:	718b5002 	mul	t2,t4,t3
9d003054:	00063400 	sll	a2,a2,0x10
9d003058:	01a63025 	or	a2,t5,a2
9d00305c:	00ca202b 	sltu	a0,a2,t2
9d003060:	0127001b 	divu	zero,t1,a3
9d003064:	00e001f4 	teq	a3,zero,0x7
9d003068:	5080000b 	beqzl	a0,9d003098 <.LBE20+0xa0>
9d00306c:	00ca3023 	subu	a2,a2,t2
9d003070:	00c83021 	addu	a2,a2,t0
9d003074:	00c8202b 	sltu	a0,a2,t0
9d003078:	14800006 	bnez	a0,9d003094 <.LBE20+0x9c>
9d00307c:	2583ffff 	addiu	v1,t4,-1
9d003080:	00ca202b 	sltu	a0,a2,t2
9d003084:	50800004 	beqzl	a0,9d003098 <.LBE20+0xa0>
9d003088:	00ca3023 	subu	a2,a2,t2
9d00308c:	2583fffe 	addiu	v1,t4,-2
9d003090:	00c83021 	addu	a2,a2,t0
9d003094:	00ca3023 	subu	a2,a2,t2
9d003098:	30acffff 	andi	t4,a1,0xffff
9d00309c:	00c7001b 	divu	zero,a2,a3
9d0030a0:	00e001f4 	teq	a3,zero,0x7
9d0030a4:	00002010 	mfhi	a0
9d0030a8:	00005012 	mflo	t2
9d0030ac:	00004812 	mflo	t1
9d0030b0:	714b2802 	mul	a1,t2,t3
9d0030b4:	00042400 	sll	a0,a0,0x10
9d0030b8:	008c2025 	or	a0,a0,t4
9d0030bc:	0085602b 	sltu	t4,a0,a1
9d0030c0:	00c7001b 	divu	zero,a2,a3
9d0030c4:	00e001f4 	teq	a3,zero,0x7
9d0030c8:	5180000b 	beqzl	t4,9d0030f8 <.LBE20+0x100>
9d0030cc:	00031c00 	sll	v1,v1,0x10
9d0030d0:	00882021 	addu	a0,a0,t0
9d0030d4:	0088302b 	sltu	a2,a0,t0
9d0030d8:	14c00006 	bnez	a2,9d0030f4 <.LBE20+0xfc>
9d0030dc:	2549ffff 	addiu	t1,t2,-1
9d0030e0:	0085302b 	sltu	a2,a0,a1
9d0030e4:	50c00004 	beqzl	a2,9d0030f8 <.LBE20+0x100>
9d0030e8:	00031c00 	sll	v1,v1,0x10
9d0030ec:	2549fffe 	addiu	t1,t2,-2
9d0030f0:	00882021 	addu	a0,a0,t0
9d0030f4:	00031c00 	sll	v1,v1,0x10
9d0030f8:	00852023 	subu	a0,a0,a1
9d0030fc:	0b400b8f 	j	9d002e3c <.LBB16>
9d003100:	01231825 	or	v1,t1,v1
9d003104:	0086302b 	sltu	a2,a0,a2
9d003108:	10c0ffc0 	beqz	a2,9d00300c <.LBE20+0x14>
9d00310c:	00000000 	nop
9d003110:	0b400c03 	j	9d00300c <.LBE20+0x14>
9d003114:	2442ffff 	addiu	v0,v0,-1
9d003118:	00001821 	move	v1,zero
9d00311c:	03e00008 	jr	ra
9d003120:	24020001 	li	v0,1
9d003124:	0b400ba4 	j	9d002e90 <.LBB16+0x54>
9d003128:	00c83021 	addu	a2,a2,t0

Disassembly of section .text:

9d00312c <Ext0ISR>:
#define MAX_MESSAGE_LENGTH 100
#define DELAY 20000000

int count = 1; // count number of presses

void __ISR(_EXTERNAL_0_VECTOR, IPL2SOFT) Ext0ISR(void) { // step 1: the ISR
9d00312c:	415de800 	rdpgpr	sp,sp
9d003130:	401a7000 	mfc0	k0,c0_epc
9d003134:	401b6000 	mfc0	k1,c0_status
9d003138:	27bdff28 	addiu	sp,sp,-216
9d00313c:	afba00d4 	sw	k0,212(sp)
9d003140:	401a6002 	mfc0	k0,c0_srsctl
9d003144:	afbb00d0 	sw	k1,208(sp)
9d003148:	afba00cc 	sw	k0,204(sp)
9d00314c:	7c1b7844 	ins	k1,zero,0x1,0xf
9d003150:	377b0800 	ori	k1,k1,0x800
9d003154:	409b6000 	mtc0	k1,c0_status
9d003158:	afbf00bc 	sw	ra,188(sp)
9d00315c:	afb900b8 	sw	t9,184(sp)
9d003160:	afb800b4 	sw	t8,180(sp)
9d003164:	afaf00b0 	sw	t7,176(sp)
9d003168:	afae00ac 	sw	t6,172(sp)
9d00316c:	afad00a8 	sw	t5,168(sp)
9d003170:	afac00a4 	sw	t4,164(sp)
9d003174:	afab00a0 	sw	t3,160(sp)
9d003178:	afaa009c 	sw	t2,156(sp)
9d00317c:	afa90098 	sw	t1,152(sp)
9d003180:	afa80094 	sw	t0,148(sp)
9d003184:	afa70090 	sw	a3,144(sp)
9d003188:	afa6008c 	sw	a2,140(sp)
9d00318c:	afa50088 	sw	a1,136(sp)
9d003190:	afa40084 	sw	a0,132(sp)
9d003194:	afa30080 	sw	v1,128(sp)
9d003198:	afa2007c 	sw	v0,124(sp)
9d00319c:	afa10078 	sw	at,120(sp)
9d0031a0:	00001012 	mflo	v0
9d0031a4:	afa200c4 	sw	v0,196(sp)
9d0031a8:	00001810 	mfhi	v1
9d0031ac:	afa300c0 	sw	v1,192(sp)
  // write message to screen
  char message[MAX_MESSAGE_LENGTH];
  sprintf(message, "Pressed %d times\r\n", count++);
9d0031b0:	8f868010 	lw	a2,-32752(gp)
9d0031b4:	24c20001 	addiu	v0,a2,1
9d0031b8:	af828010 	sw	v0,-32752(gp)
9d0031bc:	27a40010 	addiu	a0,sp,16
9d0031c0:	3c059d00 	lui	a1,0x9d00
9d0031c4:	0f400f94 	jal	9d003e50 <_sprintf_cdnopuxX>
9d0031c8:	24a54178 	addiu	a1,a1,16760

9d0031cc <.LVL0>:
  NU32_WriteUART3(message);
9d0031cc:	0f400d2a 	jal	9d0034a8 <NU32_WriteUART3>
9d0031d0:	27a40010 	addiu	a0,sp,16

9d0031d4 <.LVL1>:

  LATF = 0x0; // LED1 and LED2 on
9d0031d4:	3c02bf88 	lui	v0,0xbf88
9d0031d8:	ac406160 	sw	zero,24928(v0)
  _CP0_SET_COUNT(0);
9d0031dc:	00001021 	move	v0,zero
9d0031e0:	40824800 	mtc0	v0,c0_count
9d0031e4:	000000c0 	ehb
  while(_CP0_GET_COUNT() < DELAY) { ; } // delay for 20 M core ticks, 0.5 s
9d0031e8:	3c030131 	lui	v1,0x131
9d0031ec:	24632d00 	addiu	v1,v1,11520
9d0031f0:	40024800 	mfc0	v0,c0_count
9d0031f4:	0043102b 	sltu	v0,v0,v1
9d0031f8:	1440fffd 	bnez	v0,9d0031f0 <.LVL1+0x1c>
9d0031fc:	3c02bf88 	lui	v0,0xbf88
  LATF = 0x3; // LED1 and LED2 off
9d003200:	24030003 	li	v1,3
9d003204:	ac436160 	sw	v1,24928(v0)

  IFS0bits.INT0IF = 0;            // clear interrupt flag IFS0<3>
9d003208:	3c02bf88 	lui	v0,0xbf88
9d00320c:	8c431030 	lw	v1,4144(v0)
9d003210:	7c0318c4 	ins	v1,zero,0x3,0x1
9d003214:	ac431030 	sw	v1,4144(v0)
}
9d003218:	8fa200c4 	lw	v0,196(sp)
9d00321c:	00400013 	mtlo	v0
9d003220:	8fa300c0 	lw	v1,192(sp)
9d003224:	00600011 	mthi	v1
9d003228:	8fbf00bc 	lw	ra,188(sp)
9d00322c:	8fb900b8 	lw	t9,184(sp)
9d003230:	8fb800b4 	lw	t8,180(sp)
9d003234:	8faf00b0 	lw	t7,176(sp)
9d003238:	8fae00ac 	lw	t6,172(sp)
9d00323c:	8fad00a8 	lw	t5,168(sp)
9d003240:	8fac00a4 	lw	t4,164(sp)
9d003244:	8fab00a0 	lw	t3,160(sp)
9d003248:	8faa009c 	lw	t2,156(sp)
9d00324c:	8fa90098 	lw	t1,152(sp)
9d003250:	8fa80094 	lw	t0,148(sp)
9d003254:	8fa70090 	lw	a3,144(sp)
9d003258:	8fa6008c 	lw	a2,140(sp)
9d00325c:	8fa50088 	lw	a1,136(sp)
9d003260:	8fa40084 	lw	a0,132(sp)
9d003264:	8fa30080 	lw	v1,128(sp)
9d003268:	8fa2007c 	lw	v0,124(sp)
9d00326c:	8fa10078 	lw	at,120(sp)
9d003270:	41606000 	di
9d003274:	000000c0 	ehb
9d003278:	8fba00d4 	lw	k0,212(sp)
9d00327c:	8fbb00d0 	lw	k1,208(sp)
9d003280:	409a7000 	mtc0	k0,c0_epc
9d003284:	8fba00cc 	lw	k0,204(sp)
9d003288:	27bd00d8 	addiu	sp,sp,216
9d00328c:	409a6002 	mtc0	k0,c0_srsctl
9d003290:	41dde800 	wrpgpr	sp,sp
9d003294:	409b6000 	mtc0	k1,c0_status
9d003298:	42000018 	eret

9d00329c <main>:

int main(void) {
9d00329c:	27bdffe8 	addiu	sp,sp,-24
9d0032a0:	afbf0014 	sw	ra,20(sp)
  NU32_Startup(); // cache on, interrupts on, LED/button init, UART init
9d0032a4:	0f400cc8 	jal	9d003320 <NU32_Startup>
9d0032a8:	00000000 	nop

9d0032ac <.LVL2>:
  LATF = 0x3; // LED1 and LED2 off
9d0032ac:	24030003 	li	v1,3
9d0032b0:	3c02bf88 	lui	v0,0xbf88
9d0032b4:	ac436160 	sw	v1,24928(v0)

  __builtin_disable_interrupts(); // step 2: disable interrupts
9d0032b8:	41626000 	di	v0
9d0032bc:	000000c0 	ehb
  INTCONbits.INT0EP = 0;          // step 3: INT0 triggers on falling edge
9d0032c0:	3c02bf88 	lui	v0,0xbf88
9d0032c4:	8c431000 	lw	v1,4096(v0)
9d0032c8:	7c030004 	ins	v1,zero,0x0,0x1
9d0032cc:	ac431000 	sw	v1,4096(v0)
  IPC0bits.INT0IP = 2;            // step 4: interrupt priority 2
9d0032d0:	3c02bf88 	lui	v0,0xbf88
9d0032d4:	8c431090 	lw	v1,4240(v0)
9d0032d8:	24040002 	li	a0,2
9d0032dc:	7c83e684 	ins	v1,a0,0x1a,0x3
9d0032e0:	ac431090 	sw	v1,4240(v0)
  IPC0bits.INT0IS = 1;            // step 4: interrupt priority 1
9d0032e4:	8c431090 	lw	v1,4240(v0)
9d0032e8:	24040001 	li	a0,1
9d0032ec:	7c83ce04 	ins	v1,a0,0x18,0x2
9d0032f0:	ac431090 	sw	v1,4240(v0)
  IFS0bits.INT0IF = 0;            // step 5: clear the int flag
9d0032f4:	3c02bf88 	lui	v0,0xbf88
9d0032f8:	8c431030 	lw	v1,4144(v0)
9d0032fc:	7c0318c4 	ins	v1,zero,0x3,0x1
9d003300:	ac431030 	sw	v1,4144(v0)
  IEC0bits.INT0IE = 1;            // step 6: enable INT0 by setting IEC0<3>
9d003304:	3c02bf88 	lui	v0,0xbf88
9d003308:	8c431060 	lw	v1,4192(v0)
9d00330c:	7c8318c4 	ins	v1,a0,0x3,0x1
9d003310:	ac431060 	sw	v1,4192(v0)
  __builtin_enable_interrupts();  // step 7: enable interrupts
9d003314:	41626020 	ei	v0
9d003318:	0b400cc6 	j	9d003318 <.LVL2+0x6c>
9d00331c:	00000000 	nop

9d003320 <NU32_Startup>:

// Perform startup routines:
//  Make NU32_LED1 and NU32_LED2 pins outputs (NU32_USER is by default an input)
//  Initialize the serial port - UART3 (no interrupt) 
//  Enable interrupts
void NU32_Startup() {
9d003320:	27bdfff8 	addiu	sp,sp,-8
9d003324:	afbf0004 	sw	ra,4(sp)
  // disable interrupts
  __builtin_disable_interrupts();
9d003328:	41626000 	di	v0
9d00332c:	000000c0 	ehb
  // see Chapter 2 "CPU for Devices with M4K Core" of the PIC32 reference manual
  // most of the other bits have prescribed values
  // microchip does not provide a _CP0_SET_CONFIG macro, so we directly use
  // the compiler built-in command _mtc0
  // to disable cache, use 0xa4210582 
  __builtin_mtc0(_CP0_CONFIG, _CP0_CONFIG_SELECT, 0xa4210583); 
9d003330:	3c02a421 	lui	v0,0xa421
9d003334:	24420583 	addiu	v0,v0,1411
9d003338:	40828000 	mtc0	v0,c0_config
9d00333c:	000000c0 	ehb
  
  // set the prefectch cache wait state to 2, as per the
  // electrical characteristics data sheet
  CHECONbits.PFMWS = 0x2;   
9d003340:	3c02bf88 	lui	v0,0xbf88
9d003344:	8c434000 	lw	v1,16384(v0)
9d003348:	24050002 	li	a1,2
9d00334c:	7ca31004 	ins	v1,a1,0x0,0x3
9d003350:	ac434000 	sw	v1,16384(v0)

  //enable prefetch for cacheable and noncacheable memory
  CHECONbits.PREFEN = 0x3; 
9d003354:	8c434000 	lw	v1,16384(v0)
9d003358:	24040003 	li	a0,3
9d00335c:	7c832904 	ins	v1,a0,0x4,0x2
9d003360:	ac434000 	sw	v1,16384(v0)

  // 0 data RAM access wait states
  BMXCONbits.BMXWSDRM = 0x0;
9d003364:	3c02bf88 	lui	v0,0xbf88
9d003368:	8c432000 	lw	v1,8192(v0)
9d00336c:	7c033184 	ins	v1,zero,0x6,0x1
9d003370:	ac432000 	sw	v1,8192(v0)
  
  // enable multi vector interrupts
  INTCONbits.MVEC = 0x1;
9d003374:	3c02bf88 	lui	v0,0xbf88
9d003378:	8c461000 	lw	a2,4096(v0)
9d00337c:	24030001 	li	v1,1
9d003380:	7c666304 	ins	a2,v1,0xc,0x1
9d003384:	ac461000 	sw	a2,4096(v0)

  // disable JTAG to get B10, B11, B12 and B13 back
  DDPCONbits.JTAGEN = 0;
9d003388:	3c02bf81 	lui	v0,0xbf81
9d00338c:	9046f200 	lbu	a2,-3584(v0)
9d003390:	7c0618c4 	ins	a2,zero,0x3,0x1
9d003394:	a046f200 	sb	a2,-3584(v0)

  TRISFCLR = 0x0003;  // Make F0 and F1 outputs (LED1 and LED2)
9d003398:	3c02bf88 	lui	v0,0xbf88
9d00339c:	ac446144 	sw	a0,24900(v0)
  NU32_LED1 = 1;      // LED1 is off
9d0033a0:	3c02bf88 	lui	v0,0xbf88
9d0033a4:	90446160 	lbu	a0,24928(v0)
9d0033a8:	7c640004 	ins	a0,v1,0x0,0x1
9d0033ac:	a0446160 	sb	a0,24928(v0)
  NU32_LED2 = 0;      // LED2 is on
9d0033b0:	90446160 	lbu	a0,24928(v0)
9d0033b4:	7c040844 	ins	a0,zero,0x1,0x1
9d0033b8:	a0446160 	sb	a0,24928(v0)

  // turn on UART3 without an interrupt
  U3MODEbits.BRGH = 0; // set baud to NU32_DESIRED_BAUD
9d0033bc:	3c02bf80 	lui	v0,0xbf80
9d0033c0:	94446400 	lhu	a0,25600(v0)
9d0033c4:	7c0418c4 	ins	a0,zero,0x3,0x1
9d0033c8:	a4446400 	sh	a0,25600(v0)
  U3BRG = ((NU32_SYS_FREQ / NU32_DESIRED_BAUD) / 16) - 1;
9d0033cc:	24060014 	li	a2,20
9d0033d0:	3c04bf80 	lui	a0,0xbf80
9d0033d4:	ac866440 	sw	a2,25664(a0)

  // 8 bit, no parity bit, and 1 stop bit (8N1 setup)
  U3MODEbits.PDSEL = 0;
9d0033d8:	94446400 	lhu	a0,25600(v0)
9d0033dc:	7c041044 	ins	a0,zero,0x1,0x2
9d0033e0:	a4446400 	sh	a0,25600(v0)
  U3MODEbits.STSEL = 0;
9d0033e4:	94446400 	lhu	a0,25600(v0)
9d0033e8:	7c040004 	ins	a0,zero,0x0,0x1
9d0033ec:	a4446400 	sh	a0,25600(v0)

  // configure TX & RX pins as output & input pins
  U3STAbits.UTXEN = 1;
9d0033f0:	3c04bf80 	lui	a0,0xbf80
9d0033f4:	8c866410 	lw	a2,25616(a0)
9d0033f8:	7c665284 	ins	a2,v1,0xa,0x1
9d0033fc:	ac866410 	sw	a2,25616(a0)
  U3STAbits.URXEN = 1;
9d003400:	8c866410 	lw	a2,25616(a0)
9d003404:	7c666304 	ins	a2,v1,0xc,0x1
9d003408:	ac866410 	sw	a2,25616(a0)
  // configure hardware flow control using RTS and CTS
  U3MODEbits.UEN = 2;
9d00340c:	94446400 	lhu	a0,25600(v0)
9d003410:	7ca44a04 	ins	a0,a1,0x8,0x2
9d003414:	a4446400 	sh	a0,25600(v0)

  // enable the uart
  U3MODEbits.ON = 1;
9d003418:	94446400 	lhu	a0,25600(v0)
9d00341c:	7c647bc4 	ins	a0,v1,0xf,0x1
9d003420:	a4446400 	sh	a0,25600(v0)

  __builtin_enable_interrupts();
9d003424:	41626020 	ei	v0
}
9d003428:	8fbf0004 	lw	ra,4(sp)
9d00342c:	03e00008 	jr	ra
9d003430:	27bd0008 	addiu	sp,sp,8

9d003434 <NU32_ReadUART3>:
// Read from UART3
// block other functions until you get a '\r' or '\n'
// send the pointer to your char array and the number of elements in the array
void NU32_ReadUART3(char * message, int maxLength) {
  char data = 0;
  int complete = 0, num_bytes = 0;
9d003434:	00003021 	move	a2,zero
  // loop until you get a '\r' or '\n'
  while (!complete) {
    if (U3STAbits.URXDA) { // if data is available
9d003438:	3c03bf80 	lui	v1,0xbf80
      data = U3RXREG;      // read the data
9d00343c:	3c08bf80 	lui	t0,0xbf80
      if ((data == '\n') || (data == '\r')) {
9d003440:	2407000a 	li	a3,10
9d003444:	0b400d21 	j	9d003484 <NU32_ReadUART3+0x50>
9d003448:	2409000d 	li	t1,13
void NU32_ReadUART3(char * message, int maxLength) {
  char data = 0;
  int complete = 0, num_bytes = 0;
  // loop until you get a '\r' or '\n'
  while (!complete) {
    if (U3STAbits.URXDA) { // if data is available
9d00344c:	8c626410 	lw	v0,25616(v1)
9d003450:	30420001 	andi	v0,v0,0x1
9d003454:	1040fffd 	beqz	v0,9d00344c <NU32_ReadUART3+0x18>
9d003458:	00000000 	nop
      data = U3RXREG;      // read the data
9d00345c:	8d026430 	lw	v0,25648(t0)
9d003460:	7c021420 	seb	v0,v0
      if ((data == '\n') || (data == '\r')) {
9d003464:	5047000e 	beql	v0,a3,9d0034a0 <NU32_ReadUART3+0x6c>
9d003468:	00862021 	addu	a0,a0,a2
9d00346c:	1049000b 	beq	v0,t1,9d00349c <NU32_ReadUART3+0x68>
9d003470:	00865021 	addu	t2,a0,a2
        complete = 1;
      } else {
        message[num_bytes] = data;
9d003474:	a1420000 	sb	v0,0(t2)
        ++num_bytes;
9d003478:	24c60001 	addiu	a2,a2,1
        // roll over if the array is too small
        if (num_bytes >= maxLength) {
9d00347c:	00c5102a 	slt	v0,a2,a1
          num_bytes = 0;
9d003480:	0002300a 	movz	a2,zero,v0
void NU32_ReadUART3(char * message, int maxLength) {
  char data = 0;
  int complete = 0, num_bytes = 0;
  // loop until you get a '\r' or '\n'
  while (!complete) {
    if (U3STAbits.URXDA) { // if data is available
9d003484:	8c626410 	lw	v0,25616(v1)
9d003488:	30420001 	andi	v0,v0,0x1
9d00348c:	1040ffef 	beqz	v0,9d00344c <NU32_ReadUART3+0x18>
9d003490:	00000000 	nop
9d003494:	0b400d17 	j	9d00345c <NU32_ReadUART3+0x28>
9d003498:	00000000 	nop
        }
      }
    }
  }
  // end the string
  message[num_bytes] = '\0';
9d00349c:	00862021 	addu	a0,a0,a2
9d0034a0:	03e00008 	jr	ra
9d0034a4:	a0800000 	sb	zero,0(a0)

9d0034a8 <NU32_WriteUART3>:
}

// Write a character array using UART3
void NU32_WriteUART3(const char * string) {
  while (*string != '\0') {
9d0034a8:	80850000 	lb	a1,0(a0)
9d0034ac:	10a0000b 	beqz	a1,9d0034dc <NU32_WriteUART3+0x34>
9d0034b0:	3c03bf80 	lui	v1,0xbf80
    while (U3STAbits.UTXBF) {
      ; // wait until tx buffer isn't full
    }
    U3TXREG = *string;
9d0034b4:	3c06bf80 	lui	a2,0xbf80
}

// Write a character array using UART3
void NU32_WriteUART3(const char * string) {
  while (*string != '\0') {
    while (U3STAbits.UTXBF) {
9d0034b8:	8c626410 	lw	v0,25616(v1)
9d0034bc:	30420200 	andi	v0,v0,0x200
9d0034c0:	1440fffd 	bnez	v0,9d0034b8 <NU32_WriteUART3+0x10>
9d0034c4:	00000000 	nop
      ; // wait until tx buffer isn't full
    }
    U3TXREG = *string;
9d0034c8:	acc56420 	sw	a1,25632(a2)
    ++string;
9d0034cc:	24840001 	addiu	a0,a0,1
  message[num_bytes] = '\0';
}

// Write a character array using UART3
void NU32_WriteUART3(const char * string) {
  while (*string != '\0') {
9d0034d0:	80850000 	lb	a1,0(a0)
9d0034d4:	14a0fff8 	bnez	a1,9d0034b8 <NU32_WriteUART3+0x10>
9d0034d8:	00000000 	nop
9d0034dc:	03e00008 	jr	ra
9d0034e0:	00000000 	nop

Disassembly of section .text._outcnvrt:

9d0034e4 <_outcnvrt>:
9d0034e4:	27bdffc8 	addiu	sp,sp,-56
9d0034e8:	afbf0034 	sw	ra,52(sp)
9d0034ec:	afb70030 	sw	s7,48(sp)
9d0034f0:	afb6002c 	sw	s6,44(sp)
9d0034f4:	afb50028 	sw	s5,40(sp)
9d0034f8:	afb40024 	sw	s4,36(sp)
9d0034fc:	afb30020 	sw	s3,32(sp)
9d003500:	afb2001c 	sw	s2,28(sp)
9d003504:	afb10018 	sw	s1,24(sp)
9d003508:	afb00014 	sw	s0,20(sp)
9d00350c:	00808821 	move	s1,a0
9d003510:	00a08021 	move	s0,a1
9d003514:	97b70048 	lhu	s7,72(sp)
9d003518:	32f70008 	andi	s7,s7,0x8
9d00351c:	32f7ffff 	andi	s7,s7,0xffff
9d003520:	00c0a021 	move	s4,a2
9d003524:	00e0a821 	move	s5,a3
9d003528:	16e00003 	bnez	s7,9d003538 <_outcnvrt+0x54>
9d00352c:	00c7b02a 	slt	s6,a2,a3
9d003530:	16c0002a 	bnez	s6,9d0035dc <_outcnvrt+0xf8>
9d003534:	00000000 	nop
9d003538:	02149021 	addu	s2,s0,s4
9d00353c:	0b400d56 	j	9d003558 <_outcnvrt+0x74>
9d003540:	2413ffff 	li	s3,-1
9d003544:	26100001 	addiu	s0,s0,1
9d003548:	0f400ee3 	jal	9d003b8c <fputc>
9d00354c:	8204ffff 	lb	a0,-1(s0)
9d003550:	10530007 	beq	v0,s3,9d003570 <_outcnvrt+0x8c>
9d003554:	02a01021 	move	v0,s5
9d003558:	1612fffa 	bne	s0,s2,9d003544 <_outcnvrt+0x60>
9d00355c:	02202821 	move	a1,s1
9d003560:	12e00003 	beqz	s7,9d003570 <_outcnvrt+0x8c>
9d003564:	02a01021 	move	v0,s5
9d003568:	56c0000d 	bnezl	s6,9d0035a0 <_outcnvrt+0xbc>
9d00356c:	02202021 	move	a0,s1
9d003570:	0296100a 	movz	v0,s4,s6
9d003574:	8fbf0034 	lw	ra,52(sp)
9d003578:	8fb70030 	lw	s7,48(sp)
9d00357c:	8fb6002c 	lw	s6,44(sp)
9d003580:	8fb50028 	lw	s5,40(sp)
9d003584:	8fb40024 	lw	s4,36(sp)
9d003588:	8fb30020 	lw	s3,32(sp)
9d00358c:	8fb2001c 	lw	s2,28(sp)
9d003590:	8fb10018 	lw	s1,24(sp)
9d003594:	8fb00014 	lw	s0,20(sp)
9d003598:	03e00008 	jr	ra
9d00359c:	27bd0038 	addiu	sp,sp,56
9d0035a0:	0f400eb8 	jal	9d003ae0 <.LFE0>
9d0035a4:	02b42823 	subu	a1,s5,s4
9d0035a8:	02a01021 	move	v0,s5
9d0035ac:	0296100a 	movz	v0,s4,s6
9d0035b0:	8fbf0034 	lw	ra,52(sp)
9d0035b4:	8fb70030 	lw	s7,48(sp)
9d0035b8:	8fb6002c 	lw	s6,44(sp)
9d0035bc:	8fb50028 	lw	s5,40(sp)
9d0035c0:	8fb40024 	lw	s4,36(sp)
9d0035c4:	8fb30020 	lw	s3,32(sp)
9d0035c8:	8fb2001c 	lw	s2,28(sp)
9d0035cc:	8fb10018 	lw	s1,24(sp)
9d0035d0:	8fb00014 	lw	s0,20(sp)
9d0035d4:	03e00008 	jr	ra
9d0035d8:	27bd0038 	addiu	sp,sp,56
9d0035dc:	0f400eb8 	jal	9d003ae0 <.LFE0>
9d0035e0:	00e62823 	subu	a1,a3,a2
9d0035e4:	2403ffff 	li	v1,-1
9d0035e8:	1443ffd3 	bne	v0,v1,9d003538 <_outcnvrt+0x54>
9d0035ec:	02a01021 	move	v0,s5
9d0035f0:	0296100a 	movz	v0,s4,s6
9d0035f4:	8fbf0034 	lw	ra,52(sp)
9d0035f8:	8fb70030 	lw	s7,48(sp)
9d0035fc:	8fb6002c 	lw	s6,44(sp)
9d003600:	8fb50028 	lw	s5,40(sp)
9d003604:	8fb40024 	lw	s4,36(sp)
9d003608:	8fb30020 	lw	s3,32(sp)
9d00360c:	8fb2001c 	lw	s2,28(sp)
9d003610:	8fb10018 	lw	s1,24(sp)
9d003614:	8fb00014 	lw	s0,20(sp)
9d003618:	03e00008 	jr	ra
9d00361c:	27bd0038 	addiu	sp,sp,56

Disassembly of section .dinit:

9d003620 <.dinit>:
9d003620:	a0000000 	sb	zero,0(zero)
9d003624:	00000004 	sllv	zero,zero,zero
9d003628:	00000001 	movf	zero,zero,$fcc0
9d00362c:	00000001 	movf	zero,zero,$fcc0
9d003630:	a0000010 	sb	zero,16(zero)
9d003634:	000000d4 	0xd4
9d003638:	00000001 	movf	zero,zero,$fcc0
9d00363c:	a0000074 	sb	zero,116(zero)
9d003640:	a0000090 	sb	zero,144(zero)
9d003644:	a00000ac 	sb	zero,172(zero)
9d003648:	a0000070 	sb	zero,112(zero)
9d00364c:	a00000e4 	sb	zero,228(zero)
9d003650:	00000001 	movf	zero,zero,$fcc0
	...
9d0036a0:	ffffffff 	sdc3	$31,-1(ra)
9d0036a4:	ffffffff 	sdc3	$31,-1(ra)
9d0036a8:	00000000 	nop
9d0036ac:	00000040 	ssnop
9d0036b0:	00001009 	jalr	v0,zero
9d0036b4:	00000000 	nop
9d0036b8:	9d0041a0 	0x9d0041a0
9d0036bc:	ffffffff 	sdc3	$31,-1(ra)
	...
9d0036cc:	00011002 	srl	v0,at,0x0
9d0036d0:	00000000 	nop
9d0036d4:	9d0041a0 	0x9d0041a0
9d0036d8:	ffffffff 	sdc3	$31,-1(ra)
	...
9d0036e8:	00020002 	srl	zero,v0,0x0
9d0036ec:	00000000 	nop
9d0036f0:	9d0041a0 	0x9d0041a0
9d0036f4:	fffffffd 	sdc3	$31,-3(ra)
	...
9d003710:	a00000e4 	sb	zero,228(zero)
9d003714:	00000088 	0x88
9d003718:	00000000 	nop
9d00371c:	a0000004 	sb	zero,4(zero)
9d003720:	00000004 	sllv	zero,zero,zero
9d003724:	00000001 	movf	zero,zero,$fcc0
9d003728:	a0000010 	sb	zero,16(zero)
9d00372c:	a000000c 	sb	zero,12(zero)
9d003730:	00000004 	sllv	zero,zero,zero
9d003734:	00000000 	nop
9d003738:	a0000008 	sb	zero,8(zero)
9d00373c:	00000004 	sllv	zero,zero,zero
9d003740:	00000001 	movf	zero,zero,$fcc0
9d003744:	00000002 	srl	zero,zero,0x0
9d003748:	00000000 	nop
9d00374c:	22222222 	addi	v0,s1,8738

Disassembly of section .text._flsbuf_simple:

9d003750 <_flsbuf_simple>:
9d003750:	27bdffd8 	addiu	sp,sp,-40
9d003754:	afbf0024 	sw	ra,36(sp)
9d003758:	afb10020 	sw	s1,32(sp)
9d00375c:	afb0001c 	sw	s0,28(sp)
9d003760:	00a08021 	move	s0,a1
9d003764:	8ca2000c 	lw	v0,12(a1)
9d003768:	1040002d 	beqz	v0,9d003820 <_flsbuf_simple+0xd0>
9d00376c:	00808821 	move	s1,a0
9d003770:	8ca20000 	lw	v0,0(a1)
9d003774:	24420001 	addiu	v0,v0,1
9d003778:	2403ffff 	li	v1,-1
9d00377c:	1043001e 	beq	v0,v1,9d0037f8 <_flsbuf_simple+0xa8>
9d003780:	aca20000 	sw	v0,0(a1)
9d003784:	0f400f54 	jal	9d003d50 <_fflush_simple>
9d003788:	02002021 	move	a0,s0
9d00378c:	8e040000 	lw	a0,0(s0)
9d003790:	8e020004 	lw	v0,4(s0)
9d003794:	2484ffff 	addiu	a0,a0,-1
9d003798:	24430001 	addiu	v1,v0,1
9d00379c:	ae040000 	sw	a0,0(s0)
9d0037a0:	ae030004 	sw	v1,4(s0)
9d0037a4:	a0510000 	sb	s1,0(v0)
9d0037a8:	2402000a 	li	v0,10
9d0037ac:	52220007 	beql	s1,v0,9d0037cc <_flsbuf_simple+0x7c>
9d0037b0:	96020010 	lhu	v0,16(s0)
9d0037b4:	02201021 	move	v0,s1
9d0037b8:	8fbf0024 	lw	ra,36(sp)
9d0037bc:	8fb10020 	lw	s1,32(sp)
9d0037c0:	8fb0001c 	lw	s0,28(sp)
9d0037c4:	03e00008 	jr	ra
9d0037c8:	27bd0028 	addiu	sp,sp,40
9d0037cc:	30420008 	andi	v0,v0,0x8
9d0037d0:	1040fff9 	beqz	v0,9d0037b8 <_flsbuf_simple+0x68>
9d0037d4:	02201021 	move	v0,s1
9d0037d8:	0f400f54 	jal	9d003d50 <_fflush_simple>
9d0037dc:	02002021 	move	a0,s0
9d0037e0:	02201021 	move	v0,s1
9d0037e4:	8fbf0024 	lw	ra,36(sp)
9d0037e8:	8fb10020 	lw	s1,32(sp)
9d0037ec:	8fb0001c 	lw	s0,28(sp)
9d0037f0:	03e00008 	jr	ra
9d0037f4:	27bd0028 	addiu	sp,sp,40
9d0037f8:	8ca20008 	lw	v0,8(a1)
9d0037fc:	1440ffe1 	bnez	v0,9d003784 <_flsbuf_simple+0x34>
9d003800:	00000000 	nop
9d003804:	94a20010 	lhu	v0,16(a1)
9d003808:	aca00004 	sw	zero,4(a1)
9d00380c:	aca0000c 	sw	zero,12(a1)
9d003810:	34420010 	ori	v0,v0,0x10
9d003814:	aca00000 	sw	zero,0(a1)
9d003818:	0b400de1 	j	9d003784 <_flsbuf_simple+0x34>
9d00381c:	a4a20010 	sh	v0,16(a1)
9d003820:	27a40010 	addiu	a0,sp,16
9d003824:	24050001 	li	a1,1
9d003828:	0f400fc4 	jal	9d003f10 <_mon_write>
9d00382c:	a3b10010 	sb	s1,16(sp)
9d003830:	ae000000 	sw	zero,0(s0)
9d003834:	02201021 	move	v0,s1
9d003838:	8fbf0024 	lw	ra,36(sp)
9d00383c:	8fb10020 	lw	s1,32(sp)
9d003840:	8fb0001c 	lw	s0,28(sp)
9d003844:	03e00008 	jr	ra
9d003848:	27bd0028 	addiu	sp,sp,40

Disassembly of section .text._mon_getc:

9d00384c <_mon_getc>:
9d00384c:	27bdffe8 	addiu	sp,sp,-24

9d003850 <.LCFI0>:
9d003850:	afbf0014 	sw	ra,20(sp)
9d003854:	3c02a000 	lui	v0,0xa000
9d003858:	8c420008 	lw	v0,8(v0)
9d00385c:	1440000a 	bnez	v0,9d003888 <.LCFI0+0x38>
9d003860:	24030002 	li	v1,2
9d003864:	3c020000 	lui	v0,0x0
9d003868:	24420000 	addiu	v0,v0,0
9d00386c:	10400029 	beqz	v0,9d003914 <.LCFI0+0xc4>
9d003870:	3c020000 	lui	v0,0x0
9d003874:	0c000000 	jal	90000000 <_bmxdudba_address+0x8ffe0000>
9d003878:	00000000 	nop
9d00387c:	8fbf0014 	lw	ra,20(sp)
9d003880:	03e00008 	jr	ra
9d003884:	27bd0018 	addiu	sp,sp,24
9d003888:	1043001c 	beq	v0,v1,9d0038fc <.LCFI0+0xac>
9d00388c:	3c02bf80 	lui	v0,0xbf80
9d003890:	3c02bf80 	lui	v0,0xbf80
9d003894:	8c426000 	lw	v0,24576(v0)
9d003898:	3c05bf80 	lui	a1,0xbf80
9d00389c:	24a56030 	addiu	a1,a1,24624
9d0038a0:	3c04bf80 	lui	a0,0xbf80
9d0038a4:	24846010 	addiu	a0,a0,24592
9d0038a8:	30428000 	andi	v0,v0,0x8000
9d0038ac:	14400003 	bnez	v0,9d0038bc <.LCFI0+0x6c>
9d0038b0:	34038000 	li	v1,0x8000
9d0038b4:	3c02bf80 	lui	v0,0xbf80
9d0038b8:	ac436008 	sw	v1,24584(v0)
9d0038bc:	8c820000 	lw	v0,0(a0)
9d0038c0:	30420001 	andi	v0,v0,0x1
9d0038c4:	14400009 	bnez	v0,9d0038ec <.LCFI0+0x9c>
9d0038c8:	240200a0 	li	v0,160
9d0038cc:	0b400e37 	j	9d0038dc <.LCFI0+0x8c>
9d0038d0:	00000000 	nop
9d0038d4:	10400005 	beqz	v0,9d0038ec <.LCFI0+0x9c>
9d0038d8:	00000000 	nop
9d0038dc:	8c830000 	lw	v1,0(a0)
9d0038e0:	30630001 	andi	v1,v1,0x1
9d0038e4:	1060fffb 	beqz	v1,9d0038d4 <.LCFI0+0x84>
9d0038e8:	2442ffff 	addiu	v0,v0,-1
9d0038ec:	8ca20000 	lw	v0,0(a1)
9d0038f0:	8fbf0014 	lw	ra,20(sp)
9d0038f4:	03e00008 	jr	ra
9d0038f8:	27bd0018 	addiu	sp,sp,24
9d0038fc:	8c426800 	lw	v0,26624(v0)
9d003900:	3c05bf80 	lui	a1,0xbf80
9d003904:	24a56830 	addiu	a1,a1,26672
9d003908:	3c04bf80 	lui	a0,0xbf80
9d00390c:	0b400e2a 	j	9d0038a8 <.LCFI0+0x58>
9d003910:	24846810 	addiu	a0,a0,26640
9d003914:	24420000 	addiu	v0,v0,0
9d003918:	5040ffde 	beqzl	v0,9d003894 <.LCFI0+0x44>
9d00391c:	3c02bf80 	lui	v0,0xbf80
9d003920:	0c000000 	jal	90000000 <_bmxdudba_address+0x8ffe0000>
9d003924:	00000000 	nop
9d003928:	0b400e20 	j	9d003880 <.LCFI0+0x30>
9d00392c:	8fbf0014 	lw	ra,20(sp)

Disassembly of section .text.general_exception:

9d003930 <_general_exception_context>:
9d003930:	27bdffa8 	addiu	sp,sp,-88
9d003934:	afa10004 	sw	at,4(sp)
9d003938:	afa20008 	sw	v0,8(sp)
9d00393c:	afa3000c 	sw	v1,12(sp)
9d003940:	afa40010 	sw	a0,16(sp)
9d003944:	afa50014 	sw	a1,20(sp)
9d003948:	afa60018 	sw	a2,24(sp)
9d00394c:	afa7001c 	sw	a3,28(sp)
9d003950:	afa80020 	sw	t0,32(sp)
9d003954:	afa90024 	sw	t1,36(sp)
9d003958:	afaa0028 	sw	t2,40(sp)
9d00395c:	afab002c 	sw	t3,44(sp)
9d003960:	afac0030 	sw	t4,48(sp)
9d003964:	afad0034 	sw	t5,52(sp)
9d003968:	afae0038 	sw	t6,56(sp)
9d00396c:	afaf003c 	sw	t7,60(sp)
9d003970:	afb80040 	sw	t8,64(sp)
9d003974:	afb90044 	sw	t9,68(sp)
9d003978:	afbf0048 	sw	ra,72(sp)
9d00397c:	00004012 	mflo	t0
9d003980:	afa8004c 	sw	t0,76(sp)
9d003984:	00004010 	mfhi	t0
9d003988:	afa80050 	sw	t0,80(sp)
9d00398c:	3c1a9d00 	lui	k0,0x9d00
9d003990:	275a3fa4 	addiu	k0,k0,16292
9d003994:	00000000 	nop
9d003998:	40046800 	mfc0	a0,c0_cause
9d00399c:	40056000 	mfc0	a1,c0_status
9d0039a0:	0340f809 	jalr	k0
9d0039a4:	00000000 	nop
9d0039a8:	8fa80050 	lw	t0,80(sp)
9d0039ac:	01000011 	mthi	t0
9d0039b0:	8fa8004c 	lw	t0,76(sp)
9d0039b4:	01000013 	mtlo	t0
9d0039b8:	8fa10004 	lw	at,4(sp)
9d0039bc:	8fa20008 	lw	v0,8(sp)
9d0039c0:	8fa3000c 	lw	v1,12(sp)
9d0039c4:	8fa40010 	lw	a0,16(sp)
9d0039c8:	8fa50014 	lw	a1,20(sp)
9d0039cc:	8fa60018 	lw	a2,24(sp)
9d0039d0:	8fa7001c 	lw	a3,28(sp)
9d0039d4:	8fa80020 	lw	t0,32(sp)
9d0039d8:	8fa90024 	lw	t1,36(sp)
9d0039dc:	8faa0028 	lw	t2,40(sp)
9d0039e0:	8fab002c 	lw	t3,44(sp)
9d0039e4:	8fac0030 	lw	t4,48(sp)
9d0039e8:	8fad0034 	lw	t5,52(sp)
9d0039ec:	8fae0038 	lw	t6,56(sp)
9d0039f0:	8faf003c 	lw	t7,60(sp)
9d0039f4:	8fb80040 	lw	t8,64(sp)
9d0039f8:	8fb90044 	lw	t9,68(sp)
9d0039fc:	8fbf0048 	lw	ra,72(sp)
9d003a00:	27bd0058 	addiu	sp,sp,88
9d003a04:	000000c0 	ehb
9d003a08:	42000018 	eret

Disassembly of section .text._mon_putc:

9d003a0c <_mon_putc>:
9d003a0c:	27bdffe8 	addiu	sp,sp,-24

9d003a10 <.LCFI0>:
9d003a10:	afbf0014 	sw	ra,20(sp)
9d003a14:	3c02a000 	lui	v0,0xa000
9d003a18:	8c420008 	lw	v0,8(v0)
9d003a1c:	1440000a 	bnez	v0,9d003a48 <.LCFI0+0x38>
9d003a20:	00802821 	move	a1,a0
9d003a24:	3c020000 	lui	v0,0x0
9d003a28:	24420000 	addiu	v0,v0,0
9d003a2c:	10400025 	beqz	v0,9d003ac4 <.LCFI0+0xb4>
9d003a30:	3c020000 	lui	v0,0x0
9d003a34:	0c000000 	jal	90000000 <_bmxdudba_address+0x8ffe0000>
9d003a38:	00000000 	nop
9d003a3c:	8fbf0014 	lw	ra,20(sp)
9d003a40:	03e00008 	jr	ra
9d003a44:	27bd0018 	addiu	sp,sp,24
9d003a48:	24030001 	li	v1,1
9d003a4c:	10430015 	beq	v0,v1,9d003aa4 <.LCFI0+0x94>
9d003a50:	3c04bf80 	lui	a0,0xbf80
9d003a54:	3c04bf80 	lui	a0,0xbf80
9d003a58:	24846820 	addiu	a0,a0,26656
9d003a5c:	3c02bf80 	lui	v0,0xbf80
9d003a60:	24426818 	addiu	v0,v0,26648
9d003a64:	3c06bf80 	lui	a2,0xbf80
9d003a68:	24c66808 	addiu	a2,a2,26632
9d003a6c:	3c03bf80 	lui	v1,0xbf80
9d003a70:	24636810 	addiu	v1,v1,26640
9d003a74:	34078000 	li	a3,0x8000
9d003a78:	acc70000 	sw	a3,0(a2)
9d003a7c:	24060400 	li	a2,1024
9d003a80:	ac460000 	sw	a2,0(v0)
9d003a84:	8c620000 	lw	v0,0(v1)
9d003a88:	30420100 	andi	v0,v0,0x100
9d003a8c:	1040fffd 	beqz	v0,9d003a84 <.LCFI0+0x74>
9d003a90:	00000000 	nop
9d003a94:	ac850000 	sw	a1,0(a0)
9d003a98:	8fbf0014 	lw	ra,20(sp)
9d003a9c:	03e00008 	jr	ra
9d003aa0:	27bd0018 	addiu	sp,sp,24
9d003aa4:	24846020 	addiu	a0,a0,24608
9d003aa8:	3c02bf80 	lui	v0,0xbf80
9d003aac:	24426018 	addiu	v0,v0,24600
9d003ab0:	3c06bf80 	lui	a2,0xbf80
9d003ab4:	24c66008 	addiu	a2,a2,24584
9d003ab8:	3c03bf80 	lui	v1,0xbf80
9d003abc:	0b400e9d 	j	9d003a74 <.LCFI0+0x64>
9d003ac0:	24636010 	addiu	v1,v1,24592
9d003ac4:	24420000 	addiu	v0,v0,0
9d003ac8:	5040ffe3 	beqzl	v0,9d003a58 <.LCFI0+0x48>
9d003acc:	3c04bf80 	lui	a0,0xbf80
9d003ad0:	0c000000 	jal	90000000 <_bmxdudba_address+0x8ffe0000>
9d003ad4:	00000000 	nop
9d003ad8:	0b400e90 	j	9d003a40 <.LCFI0+0x30>
9d003adc:	8fbf0014 	lw	ra,20(sp)

Disassembly of section .text.repl.constprop.0:

9d003ae0 <repl.constprop.0>:
9d003ae0:	27bdffd0 	addiu	sp,sp,-48
9d003ae4:	afbf002c 	sw	ra,44(sp)
9d003ae8:	afb60028 	sw	s6,40(sp)
9d003aec:	afb50024 	sw	s5,36(sp)
9d003af0:	afb40020 	sw	s4,32(sp)
9d003af4:	afb3001c 	sw	s3,28(sp)
9d003af8:	afb20018 	sw	s2,24(sp)
9d003afc:	afb10014 	sw	s1,20(sp)
9d003b00:	afb00010 	sw	s0,16(sp)
9d003b04:	10a00016 	beqz	a1,9d003b60 <repl.constprop.0+0x80>
9d003b08:	00a0a021 	move	s4,a1
9d003b0c:	00809021 	move	s2,a0
9d003b10:	3c159d00 	lui	s5,0x9d00
9d003b14:	26b540e4 	addiu	s5,s5,16612
9d003b18:	24160020 	li	s6,32
9d003b1c:	2413ffff 	li	s3,-1
9d003b20:	2e910021 	sltiu	s1,s4,33
9d003b24:	02c01021 	move	v0,s6
9d003b28:	0291100b 	movn	v0,s4,s1
9d003b2c:	0282a023 	subu	s4,s4,v0
9d003b30:	02a28821 	addu	s1,s5,v0
9d003b34:	0b400ed4 	j	9d003b50 <repl.constprop.0+0x70>
9d003b38:	02a08021 	move	s0,s5
9d003b3c:	26100001 	addiu	s0,s0,1
9d003b40:	0f400ee3 	jal	9d003b8c <fputc>
9d003b44:	8204ffff 	lb	a0,-1(s0)
9d003b48:	10530007 	beq	v0,s3,9d003b68 <repl.constprop.0+0x88>
9d003b4c:	8fbf002c 	lw	ra,44(sp)
9d003b50:	1611fffa 	bne	s0,s1,9d003b3c <repl.constprop.0+0x5c>
9d003b54:	02402821 	move	a1,s2
9d003b58:	1680fff2 	bnez	s4,9d003b24 <repl.constprop.0+0x44>
9d003b5c:	2e910021 	sltiu	s1,s4,33
9d003b60:	00001021 	move	v0,zero
9d003b64:	8fbf002c 	lw	ra,44(sp)
9d003b68:	8fb60028 	lw	s6,40(sp)
9d003b6c:	8fb50024 	lw	s5,36(sp)
9d003b70:	8fb40020 	lw	s4,32(sp)
9d003b74:	8fb3001c 	lw	s3,28(sp)
9d003b78:	8fb20018 	lw	s2,24(sp)
9d003b7c:	8fb10014 	lw	s1,20(sp)
9d003b80:	8fb00010 	lw	s0,16(sp)
9d003b84:	03e00008 	jr	ra
9d003b88:	27bd0030 	addiu	sp,sp,48

Disassembly of section .text.fputc:

9d003b8c <fputc>:
9d003b8c:	27bdffe0 	addiu	sp,sp,-32
9d003b90:	afbf001c 	sw	ra,28(sp)
9d003b94:	afb10018 	sw	s1,24(sp)
9d003b98:	afb00014 	sw	s0,20(sp)
9d003b9c:	00a08021 	move	s0,a1
9d003ba0:	8ca20018 	lw	v0,24(a1)
9d003ba4:	00808821 	move	s1,a0
9d003ba8:	24050001 	li	a1,1
9d003bac:	8c420010 	lw	v0,16(v0)
9d003bb0:	0040f809 	jalr	v0
9d003bb4:	02002021 	move	a0,s0
9d003bb8:	1040000e 	beqz	v0,9d003bf4 <fputc+0x68>
9d003bbc:	2402ffff 	li	v0,-1
9d003bc0:	8e020000 	lw	v0,0(s0)
9d003bc4:	2442ffff 	addiu	v0,v0,-1
9d003bc8:	04400011 	bltz	v0,9d003c10 <fputc+0x84>
9d003bcc:	ae020000 	sw	v0,0(s0)
9d003bd0:	96020010 	lhu	v0,16(s0)
9d003bd4:	30420008 	andi	v0,v0,0x8
9d003bd8:	1440000b 	bnez	v0,9d003c08 <fputc+0x7c>
9d003bdc:	2402000a 	li	v0,10
9d003be0:	8e030004 	lw	v1,4(s0)
9d003be4:	02201021 	move	v0,s1
9d003be8:	24640001 	addiu	a0,v1,1
9d003bec:	ae040004 	sw	a0,4(s0)
9d003bf0:	a0710000 	sb	s1,0(v1)
9d003bf4:	8fbf001c 	lw	ra,28(sp)
9d003bf8:	8fb10018 	lw	s1,24(sp)
9d003bfc:	8fb00014 	lw	s0,20(sp)
9d003c00:	03e00008 	jr	ra
9d003c04:	27bd0020 	addiu	sp,sp,32
9d003c08:	5622fff6 	bnel	s1,v0,9d003be4 <fputc+0x58>
9d003c0c:	8e030004 	lw	v1,4(s0)
9d003c10:	8e020018 	lw	v0,24(s0)
9d003c14:	02202021 	move	a0,s1
9d003c18:	8c420004 	lw	v0,4(v0)
9d003c1c:	0040f809 	jalr	v0
9d003c20:	02002821 	move	a1,s0
9d003c24:	8fbf001c 	lw	ra,28(sp)
9d003c28:	8fb10018 	lw	s1,24(sp)
9d003c2c:	8fb00014 	lw	s0,20(sp)
9d003c30:	03e00008 	jr	ra
9d003c34:	27bd0020 	addiu	sp,sp,32

Disassembly of section .text.strlen:

9d003c38 <strlen>:
9d003c38:	30830003 	andi	v1,a0,0x3
9d003c3c:	1460001e 	bnez	v1,9d003cb8 <strlen+0x80>
9d003c40:	00801021 	move	v0,a0
9d003c44:	8c820000 	lw	v0,0(a0)
9d003c48:	3c07fefe 	lui	a3,0xfefe
9d003c4c:	34e7feff 	ori	a3,a3,0xfeff
9d003c50:	00471821 	addu	v1,v0,a3
9d003c54:	00021027 	nor	v0,zero,v0
9d003c58:	3c068080 	lui	a2,0x8080
9d003c5c:	34c68080 	ori	a2,a2,0x8080
9d003c60:	00621824 	and	v1,v1,v0
9d003c64:	00661824 	and	v1,v1,a2
9d003c68:	14600013 	bnez	v1,9d003cb8 <strlen+0x80>
9d003c6c:	00801021 	move	v0,a0
9d003c70:	24420004 	addiu	v0,v0,4
9d003c74:	8c430000 	lw	v1,0(v0)
9d003c78:	00672821 	addu	a1,v1,a3
9d003c7c:	00031827 	nor	v1,zero,v1
9d003c80:	00a31824 	and	v1,a1,v1
9d003c84:	00661824 	and	v1,v1,a2
9d003c88:	5460000c 	bnezl	v1,9d003cbc <strlen+0x84>
9d003c8c:	80430000 	lb	v1,0(v0)
9d003c90:	24420004 	addiu	v0,v0,4
9d003c94:	8c430000 	lw	v1,0(v0)
9d003c98:	00672821 	addu	a1,v1,a3
9d003c9c:	00031827 	nor	v1,zero,v1
9d003ca0:	00a31824 	and	v1,a1,v1
9d003ca4:	00661824 	and	v1,v1,a2
9d003ca8:	5060fff2 	beqzl	v1,9d003c74 <strlen+0x3c>
9d003cac:	24420004 	addiu	v0,v0,4
9d003cb0:	0b400f2f 	j	9d003cbc <strlen+0x84>
9d003cb4:	80430000 	lb	v1,0(v0)
9d003cb8:	80430000 	lb	v1,0(v0)
9d003cbc:	5460fffe 	bnezl	v1,9d003cb8 <strlen+0x80>
9d003cc0:	24420001 	addiu	v0,v0,1
9d003cc4:	03e00008 	jr	ra
9d003cc8:	00441023 	subu	v0,v0,a0

Disassembly of section .text:

9d003ccc <__pic32_data_init>:
9d003ccc:	03e01821 	move	v1,ra

9d003cd0 <_dinit_init>:
9d003cd0:	3c089d00 	lui	t0,0x9d00
9d003cd4:	25083620 	addiu	t0,t0,13856
9d003cd8:	8d090000 	lw	t1,0(t0)
9d003cdc:	11200018 	beqz	t1,9d003d40 <_dinit_end+0x18>
9d003ce0:	25080004 	addiu	t0,t0,4
9d003ce4:	8d0a0000 	lw	t2,0(t0)
9d003ce8:	25080004 	addiu	t0,t0,4
9d003cec:	8d0b0000 	lw	t3,0(t0)
9d003cf0:	11600009 	beqz	t3,9d003d18 <_dinit_clear>
9d003cf4:	25080004 	addiu	t0,t0,4

9d003cf8 <_dinit_copy>:
9d003cf8:	910c0000 	lbu	t4,0(t0)
9d003cfc:	254affff 	addiu	t2,t2,-1
9d003d00:	25080001 	addiu	t0,t0,1
9d003d04:	a12c0000 	sb	t4,0(t1)
9d003d08:	1540fffb 	bnez	t2,9d003cf8 <_dinit_copy>
9d003d0c:	25290001 	addiu	t1,t1,1
9d003d10:	10000005 	b	9d003d28 <_dinit_end>
9d003d14:	00000000 	nop

9d003d18 <_dinit_clear>:
9d003d18:	a1200000 	sb	zero,0(t1)
9d003d1c:	254affff 	addiu	t2,t2,-1
9d003d20:	1540fffd 	bnez	t2,9d003d18 <_dinit_clear>
9d003d24:	25290001 	addiu	t1,t1,1

9d003d28 <_dinit_end>:
9d003d28:	25080003 	addiu	t0,t0,3
9d003d2c:	240afffc 	li	t2,-4
9d003d30:	01484024 	and	t0,t2,t0
9d003d34:	8d090000 	lw	t1,0(t0)
9d003d38:	1520ffe7 	bnez	t1,9d003cd8 <_dinit_init+0x8>
9d003d3c:	00000000 	nop
9d003d40:	0060f821 	move	ra,v1
9d003d44:	03e00008 	jr	ra
9d003d48:	00000000 	nop
9d003d4c:	00000000 	nop

Disassembly of section .text._fflush_simple:

9d003d50 <_fflush_simple>:
9d003d50:	27bdffe8 	addiu	sp,sp,-24
9d003d54:	afbf0014 	sw	ra,20(sp)
9d003d58:	afb00010 	sw	s0,16(sp)
9d003d5c:	94820010 	lhu	v0,16(a0)
9d003d60:	30420002 	andi	v0,v0,0x2
9d003d64:	10400013 	beqz	v0,9d003db4 <_fflush_simple+0x64>
9d003d68:	00808021 	move	s0,a0
9d003d6c:	8c850000 	lw	a1,0(a0)
9d003d70:	04a0000c 	bltz	a1,9d003da4 <_fflush_simple+0x54>
9d003d74:	00001021 	move	v0,zero
9d003d78:	8c82000c 	lw	v0,12(a0)
9d003d7c:	50a20006 	beql	a1,v0,9d003d98 <_fflush_simple+0x48>
9d003d80:	8e030008 	lw	v1,8(s0)
9d003d84:	8c840008 	lw	a0,8(a0)
9d003d88:	0f400fc4 	jal	9d003f10 <_mon_write>
9d003d8c:	00452823 	subu	a1,v0,a1
9d003d90:	8e02000c 	lw	v0,12(s0)
9d003d94:	8e030008 	lw	v1,8(s0)
9d003d98:	ae020000 	sw	v0,0(s0)
9d003d9c:	ae030004 	sw	v1,4(s0)
9d003da0:	00001021 	move	v0,zero
9d003da4:	8fbf0014 	lw	ra,20(sp)
9d003da8:	8fb00010 	lw	s0,16(sp)
9d003dac:	03e00008 	jr	ra
9d003db0:	27bd0018 	addiu	sp,sp,24
9d003db4:	2402ffff 	li	v0,-1
9d003db8:	ac820004 	sw	v0,4(a0)
9d003dbc:	00001021 	move	v0,zero
9d003dc0:	8fbf0014 	lw	ra,20(sp)
9d003dc4:	8fb00010 	lw	s0,16(sp)
9d003dc8:	03e00008 	jr	ra
9d003dcc:	27bd0018 	addiu	sp,sp,24

Disassembly of section .text._fwrite_simple:

9d003dd0 <_fwrite_simple>:
9d003dd0:	27bdffd8 	addiu	sp,sp,-40
9d003dd4:	afbf0024 	sw	ra,36(sp)
9d003dd8:	afb10020 	sw	s1,32(sp)
9d003ddc:	afb0001c 	sw	s0,28(sp)
9d003de0:	70c58002 	mul	s0,a2,a1
9d003de4:	12000007 	beqz	s0,9d003e04 <_fwrite_simple+0x34>
9d003de8:	00001021 	move	v0,zero
9d003dec:	94e30010 	lhu	v1,16(a3)
9d003df0:	30630001 	andi	v1,v1,0x1
9d003df4:	10600008 	beqz	v1,9d003e18 <_fwrite_simple+0x48>
9d003df8:	3c03a000 	lui	v1,0xa000
9d003dfc:	24040009 	li	a0,9
9d003e00:	ac64000c 	sw	a0,12(v1)
9d003e04:	8fbf0024 	lw	ra,36(sp)
9d003e08:	8fb10020 	lw	s1,32(sp)
9d003e0c:	8fb0001c 	lw	s0,28(sp)
9d003e10:	03e00008 	jr	ra
9d003e14:	27bd0028 	addiu	sp,sp,40
9d003e18:	00808821 	move	s1,a0
9d003e1c:	00e02021 	move	a0,a3
9d003e20:	0f400f54 	jal	9d003d50 <_fflush_simple>
9d003e24:	afa60010 	sw	a2,16(sp)
9d003e28:	02202021 	move	a0,s1
9d003e2c:	0f400fc4 	jal	9d003f10 <_mon_write>
9d003e30:	02002821 	move	a1,s0
9d003e34:	8fa60010 	lw	a2,16(sp)
9d003e38:	00c01021 	move	v0,a2
9d003e3c:	8fbf0024 	lw	ra,36(sp)
9d003e40:	8fb10020 	lw	s1,32(sp)
9d003e44:	8fb0001c 	lw	s0,28(sp)
9d003e48:	03e00008 	jr	ra
9d003e4c:	27bd0028 	addiu	sp,sp,40

Disassembly of section .text._sprintf_cdnopuxX:

9d003e50 <_sprintf_cdnopuxX>:
9d003e50:	27bdffc8 	addiu	sp,sp,-56
9d003e54:	afbf0034 	sw	ra,52(sp)
9d003e58:	27a20040 	addiu	v0,sp,64
9d003e5c:	00801821 	move	v1,a0
9d003e60:	afa60040 	sw	a2,64(sp)
9d003e64:	27a40010 	addiu	a0,sp,16
9d003e68:	00403021 	move	a2,v0
9d003e6c:	afa70044 	sw	a3,68(sp)
9d003e70:	2407ffff 	li	a3,-1
9d003e74:	a7a70022 	sh	a3,34(sp)
9d003e78:	24070082 	li	a3,130
9d003e7c:	a7a70020 	sh	a3,32(sp)
9d003e80:	3c077fff 	lui	a3,0x7fff
9d003e84:	34e7fffe 	ori	a3,a3,0xfffe
9d003e88:	afa70010 	sw	a3,16(sp)
9d003e8c:	afa30018 	sw	v1,24(sp)
9d003e90:	afa30014 	sw	v1,20(sp)
9d003e94:	3c039d00 	lui	v1,0x9d00
9d003e98:	246341c8 	addiu	v1,v1,16840
9d003e9c:	afa30028 	sw	v1,40(sp)
9d003ea0:	0f400780 	jal	9d001e00 <_do_print_cdnopuxX>
9d003ea4:	afa2002c 	sw	v0,44(sp)
9d003ea8:	8fa30014 	lw	v1,20(sp)
9d003eac:	a0600000 	sb	zero,0(v1)
9d003eb0:	8fbf0034 	lw	ra,52(sp)
9d003eb4:	03e00008 	jr	ra
9d003eb8:	27bd0038 	addiu	sp,sp,56

Disassembly of section .text.main_entry:

9d003ebc <_main_entry>:
9d003ebc:	3c040000 	lui	a0,0x0
9d003ec0:	27bdffe8 	addiu	sp,sp,-24
9d003ec4:	24840000 	addiu	a0,a0,0
9d003ec8:	10800003 	beqz	a0,9d003ed8 <_main_entry+0x1c>
9d003ecc:	afbf0014 	sw	ra,20(sp)
9d003ed0:	0080f809 	jalr	a0
9d003ed4:	00000000 	nop
9d003ed8:	30840000 	andi	a0,a0,0x0
9d003edc:	30a50000 	andi	a1,a1,0x0
9d003ee0:	3c089d00 	lui	t0,0x9d00
9d003ee4:	2508329c 	addiu	t0,t0,12956
9d003ee8:	0100f809 	jalr	t0
9d003eec:	00000000 	nop

9d003ef0 <__crt0_exit>:
9d003ef0:	3c020000 24420000 10400003 00000000     ...<..B$..@.....
9d003f00:	0040f809 00000000 1000fff9 00000000     ..@.............

Disassembly of section .text._mon_write:

9d003f10 <_mon_write>:
9d003f10:	27bdffe0 	addiu	sp,sp,-32

9d003f14 <.LCFI0>:
9d003f14:	afbf001c 	sw	ra,28(sp)
9d003f18:	afb10018 	sw	s1,24(sp)
9d003f1c:	afb00014 	sw	s0,20(sp)
9d003f20:	10800009 	beqz	a0,9d003f48 <.LCFI0+0x34>
9d003f24:	00808021 	move	s0,a0
9d003f28:	10a00007 	beqz	a1,9d003f48 <.LCFI0+0x34>
9d003f2c:	00a08821 	move	s1,a1
9d003f30:	82040000 	lb	a0,0(s0)
9d003f34:	2631ffff 	addiu	s1,s1,-1
9d003f38:	0f400e83 	jal	9d003a0c <_mon_putc>
9d003f3c:	26100001 	addiu	s0,s0,1
9d003f40:	5620fffc 	bnezl	s1,9d003f34 <.LCFI0+0x20>
9d003f44:	82040000 	lb	a0,0(s0)
9d003f48:	8fbf001c 	lw	ra,28(sp)
9d003f4c:	8fb10018 	lw	s1,24(sp)
9d003f50:	8fb00014 	lw	s0,20(sp)
9d003f54:	03e00008 	jr	ra
9d003f58:	27bd0020 	addiu	sp,sp,32

Disassembly of section .text._bootstrap_exception_handler:

9d003f5c <_bootstrap_exception_handler>:
9d003f5c:	3c020000 	lui	v0,0x0
9d003f60:	24420000 	addiu	v0,v0,0
9d003f64:	10400005 	beqz	v0,9d003f7c <_bootstrap_exception_handler+0x20>
9d003f68:	3c020000 	lui	v0,0x0
9d003f6c:	24420000 	addiu	v0,v0,0
9d003f70:	10400003 	beqz	v0,9d003f80 <_bootstrap_exception_handler+0x24>
9d003f74:	3c029d00 	lui	v0,0x9d00
9d003f78:	7000003f 	sdbbp
9d003f7c:	3c029d00 	lui	v0,0x9d00
9d003f80:	24424034 	addiu	v0,v0,16436
9d003f84:	10400005 	beqz	v0,9d003f9c <.LCFI2>
9d003f88:	00000000 	nop
9d003f8c:	27bdffe8 	addiu	sp,sp,-24

9d003f90 <.LCFI0>:
9d003f90:	afbf0014 	sw	ra,20(sp)
9d003f94:	0040f809 	jalr	v0
9d003f98:	00000000 	nop

9d003f9c <.LCFI2>:
9d003f9c:	0b400fe7 	j	9d003f9c <.LCFI2>
9d003fa0:	00000000 	nop

Disassembly of section .text._general_exception_handler:

9d003fa4 <_general_exception_handler>:
9d003fa4:	3c020000 	lui	v0,0x0
9d003fa8:	24420000 	addiu	v0,v0,0
9d003fac:	10400005 	beqz	v0,9d003fc4 <_general_exception_handler+0x20>
9d003fb0:	3c020000 	lui	v0,0x0
9d003fb4:	24420000 	addiu	v0,v0,0
9d003fb8:	10400003 	beqz	v0,9d003fc8 <_general_exception_handler+0x24>
9d003fbc:	3c029d00 	lui	v0,0x9d00
9d003fc0:	7000003f 	sdbbp
9d003fc4:	3c029d00 	lui	v0,0x9d00
9d003fc8:	24424034 	addiu	v0,v0,16436
9d003fcc:	10400005 	beqz	v0,9d003fe4 <.LCFI2>
9d003fd0:	00000000 	nop
9d003fd4:	27bdffe8 	addiu	sp,sp,-24

9d003fd8 <.LCFI0>:
9d003fd8:	afbf0014 	sw	ra,20(sp)
9d003fdc:	0040f809 	jalr	v0
9d003fe0:	00000000 	nop

9d003fe4 <.LCFI2>:
9d003fe4:	0b400ff9 	j	9d003fe4 <.LCFI2>
9d003fe8:	00000000 	nop

Disassembly of section .vector_default:

9d003fec <_DefaultInterrupt>:
9d003fec:	3c020000 	lui	v0,0x0
9d003ff0:	24420000 	addiu	v0,v0,0
9d003ff4:	10400007 	beqz	v0,9d004014 <_DefaultInterrupt+0x28>
9d003ff8:	3c020000 	lui	v0,0x0
9d003ffc:	24420000 	addiu	v0,v0,0
9d004000:	50400005 	beqzl	v0,9d004018 <_DefaultInterrupt+0x2c>
9d004004:	3c029d00 	lui	v0,0x9d00
9d004008:	7000003f 	sdbbp
9d00400c:	03e00008 	jr	ra
9d004010:	00000000 	nop
9d004014:	3c029d00 	lui	v0,0x9d00
9d004018:	24424034 	addiu	v0,v0,16436
9d00401c:	10400003 	beqz	v0,9d00402c <_DefaultInterrupt+0x40>
9d004020:	00000000 	nop
9d004024:	0040f809 	jalr	v0
9d004028:	00000000 	nop
9d00402c:	03e00008 	jr	ra
9d004030:	00000000 	nop

Disassembly of section .text:

9d004034 <__pic32_software_reset>:
9d004034:	41606000 	di
9d004038:	000000c0 	ehb
9d00403c:	3c03aa99 	lui	v1,0xaa99
9d004040:	3c02bf81 	lui	v0,0xbf81
9d004044:	24636655 	addiu	v1,v1,26197
9d004048:	ac40f230 	sw	zero,-3536(v0)
9d00404c:	ac43f230 	sw	v1,-3536(v0)
9d004050:	3c035566 	lui	v1,0x5566
9d004054:	346399aa 	ori	v1,v1,0x99aa
9d004058:	ac43f230 	sw	v1,-3536(v0)
9d00405c:	3c02bf81 	lui	v0,0xbf81
9d004060:	24030001 	li	v1,1
9d004064:	ac43f618 	sw	v1,-2536(v0)
9d004068:	3c02bf81 	lui	v0,0xbf81
9d00406c:	8c42f610 	lw	v0,-2544(v0)
9d004070:	0b40100f 	j	9d00403c <__pic32_software_reset+0x8>
9d004074:	00000000 	nop

Disassembly of section .text._filbuf_simple:

9d004078 <_filbuf_simple>:
9d004078:	8c820004 	lw	v0,4(a0)
9d00407c:	2403ffff 	li	v1,-1
9d004080:	10430003 	beq	v0,v1,9d004090 <_filbuf_simple+0x18>
9d004084:	ac800000 	sw	zero,0(a0)
9d004088:	03e00008 	jr	ra
9d00408c:	ac830004 	sw	v1,4(a0)
9d004090:	27bdffe8 	addiu	sp,sp,-24
9d004094:	afbf0014 	sw	ra,20(sp)
9d004098:	0f400e13 	jal	9d00384c <_mon_getc>
9d00409c:	24040001 	li	a0,1
9d0040a0:	8fbf0014 	lw	ra,20(sp)
9d0040a4:	03e00008 	jr	ra
9d0040a8:	27bd0018 	addiu	sp,sp,24

Disassembly of section .text._fsync_simple:

9d0040ac <_fsync_simple>:
9d0040ac:	94830010 	lhu	v1,16(a0)
9d0040b0:	00a32824 	and	a1,a1,v1
9d0040b4:	10a00007 	beqz	a1,9d0040d4 <_fsync_simple+0x28>
9d0040b8:	24020001 	li	v0,1
9d0040bc:	34630040 	ori	v1,v1,0x40
9d0040c0:	a4830010 	sh	v1,16(a0)
9d0040c4:	24030009 	li	v1,9
9d0040c8:	3c02a000 	lui	v0,0xa000
9d0040cc:	ac43000c 	sw	v1,12(v0)
9d0040d0:	00001021 	move	v0,zero
9d0040d4:	03e00008 	jr	ra
9d0040d8:	00000000 	nop

Disassembly of section .rodata:

9d0040dc <spaceData-0x8>:
9d0040dc:	6c756e28 	0x6c756e28
9d0040e0:	0000296c 	0x296c

9d0040e4 <spaceData>:
9d0040e4:	20202020 20202020 20202020 20202020                     
9d0040f4:	20202020 20202020 20202020 20202020                     

Disassembly of section .text.putchar:

9d004104 <putchar>:
9d004104:	27bdffe8 	addiu	sp,sp,-24
9d004108:	afbf0014 	sw	ra,20(sp)
9d00410c:	3c02a000 	lui	v0,0xa000
9d004110:	8c420004 	lw	v0,4(v0)
9d004114:	0f400ee3 	jal	9d003b8c <fputc>
9d004118:	8c450004 	lw	a1,4(v0)
9d00411c:	8fbf0014 	lw	ra,20(sp)
9d004120:	03e00008 	jr	ra
9d004124:	27bd0018 	addiu	sp,sp,24

Disassembly of section .text._vfprintf_cdnopuxX:

9d004128 <_vfprintf_cdnopuxX>:
9d004128:	27bdffe8 	addiu	sp,sp,-24
9d00412c:	afbf0014 	sw	ra,20(sp)
9d004130:	0f400780 	jal	9d001e00 <_do_print_cdnopuxX>
9d004134:	00000000 	nop
9d004138:	8fbf0014 	lw	ra,20(sp)
9d00413c:	03e00008 	jr	ra
9d004140:	27bd0018 	addiu	sp,sp,24

Disassembly of section .text.putc:

9d004144 <putc>:
9d004144:	27bdffe8 	addiu	sp,sp,-24
9d004148:	afbf0014 	sw	ra,20(sp)
9d00414c:	0f400ee3 	jal	9d003b8c <fputc>
9d004150:	00000000 	nop
9d004154:	8fbf0014 	lw	ra,20(sp)
9d004158:	03e00008 	jr	ra
9d00415c:	27bd0018 	addiu	sp,sp,24

Disassembly of section .text:

9d004160 <_nmi_handler>:
9d004160:	401a6000 	mfc0	k0,c0_status
9d004164:	3c1bffbf 	lui	k1,0xffbf
9d004168:	377bffff 	ori	k1,k1,0xffff
9d00416c:	035bd024 	and	k0,k0,k1
9d004170:	409a6000 	mtc0	k0,c0_status
9d004174:	42000018 	eret

Disassembly of section .rodata:

9d004178 <.LC0>:
9d004178:	73657250 	udi0	k1,a1,t6,0x9
9d00417c:	20646573 	addi	a0,v1,25971
9d004180:	74206425 	jalx	90819094 <_bmxdudba_address+0x907f9094>
9d004184:	73656d69 	0x73656d69
9d004188:	00000a0d 	break	0x0,0x28

Disassembly of section .text._io_exit:

9d00418c <_io_exit>:
9d00418c:	3c02a000 	lui	v0,0xa000
9d004190:	8c420004 	lw	v0,4(v0)
9d004194:	24030001 	li	v1,1
9d004198:	03e00008 	jr	ra
9d00419c:	ac430038 	sw	v1,56(v0)

Disassembly of section .rodata:

9d0041a0 <_io_funcs>:
9d0041a0:	9d004078 9d003750 9d003d50 9d003dd0     x@..P7..P=...=..
9d0041b0:	9d0040ac                                .@..

Disassembly of section .text._io_exit:

9d0041b4 <.text._io_exit>:
9d0041b4:	3c02a000 	lui	v0,0xa000
9d0041b8:	8c420004 	lw	v0,4(v0)
9d0041bc:	24030001 	li	v1,1
9d0041c0:	03e00008 	jr	ra
9d0041c4:	ac430038 	sw	v1,56(v0)

Disassembly of section .rodata:

9d0041c8 <_io_strfuncs>:
9d0041c8:	9d0041ec 9d0041f4 9d0041fc 9d004204     .A...A...A...B..
9d0041d8:	9d00420c                                .B..

Disassembly of section .text._on_reset:

9d0041dc <_on_reset>:
9d0041dc:	03e00008 	jr	ra
9d0041e0:	00000000 	nop

Disassembly of section .text._on_bootstrap:

9d0041e4 <_on_bootstrap>:
9d0041e4:	03e00008 	jr	ra
9d0041e8:	00000000 	nop

Disassembly of section .text._filbuf_string:

9d0041ec <_filbuf_string>:
9d0041ec:	03e00008 	jr	ra
9d0041f0:	2402ffff 	li	v0,-1

Disassembly of section .text._flsbuf_string:

9d0041f4 <_flsbuf_string>:
9d0041f4:	03e00008 	jr	ra
9d0041f8:	00801021 	move	v0,a0

Disassembly of section .text._fflush_string:

9d0041fc <_fflush_string>:
9d0041fc:	03e00008 	jr	ra
9d004200:	00001021 	move	v0,zero

Disassembly of section .text._fwrite_string:

9d004204 <_fwrite_string>:
9d004204:	03e00008 	jr	ra
9d004208:	00001021 	move	v0,zero

Disassembly of section .text._fsync_string:

9d00420c <_fsync_string>:
9d00420c:	03e00008 	jr	ra
9d004210:	24020001 	li	v0,1
