
out.elf:     file format elf32-tradlittlemips


Disassembly of section .config_BFC02FF0:

bfc02ff0 <__config_BFC02FF0>:
bfc02ff0:	ff ff fe fa                                         ....

Disassembly of section .config_BFC02FF4:

bfc02ff4 <__config_BFC02FF4>:
bfc02ff4:	d9 79 f8 ff                                         .y..

Disassembly of section .config_BFC02FF8:

bfc02ff8 <__config_BFC02FF8>:
bfc02ff8:	db ce 6c ff                                         ..l.

Disassembly of section .config_BFC02FFC:

bfc02ffc <__config_BFC02FFC>:
bfc02ffc:	ff ff ff 7e                                         ...~

Disassembly of section .reset:

bd001970 <_reset>:
bd001970:	0f40065e 	jal	bd001978 <_startup>
bd001974:	00000000 	nop

bd001978 <_startup>:
bd001978:	401a6000 	mfc0	k0,c0_status
bd00197c:	7f5a04c0 	ext	k0,k0,0x13,0x1
bd001980:	13400005 	beqz	k0,bd001998 <_no_nmi>
bd001984:	00000000 	nop
bd001988:	3c1a9d01 	lui	k0,0x9d01
bd00198c:	275aa58c 	addiu	k0,k0,-23156
bd001990:	03400008 	jr	k0
bd001994:	00000000 	nop

bd001998 <_no_nmi>:
bd001998:	3c1da002 	lui	sp,0xa002
bd00199c:	27bdfff8 	addiu	sp,sp,-8
bd0019a0:	3c1ca000 	lui	gp,0xa000
bd0019a4:	279c7ff0 	addiu	gp,gp,32752
bd0019a8:	40096002 	mfc0	t1,c0_srsctl
bd0019ac:	01205820 	add	t3,t1,zero
bd0019b0:	7d2a1e80 	ext	t2,t1,0x1a,0x4
bd0019b4:	7d494984 	ins	t1,t2,0x6,0x4
bd0019b8:	40896002 	mtc0	t1,c0_srsctl
bd0019bc:	000000c0 	ehb
bd0019c0:	41dce000 	wrpgpr	gp,gp
bd0019c4:	408b6002 	mtc0	t3,c0_srsctl
bd0019c8:	000000c0 	ehb
bd0019cc:	3c089d01 	lui	t0,0x9d01
bd0019d0:	2508a634 	addiu	t0,t0,-22988
bd0019d4:	0100f809 	jalr	t0
bd0019d8:	00000000 	nop

bd0019dc <_start_bss_init>:
bd0019dc:	3c08a000 	lui	t0,0xa000
bd0019e0:	25080008 	addiu	t0,t0,8
bd0019e4:	3c09a000 	lui	t1,0xa000
bd0019e8:	25290024 	addiu	t1,t1,36
bd0019ec:	10000006 	b	bd001a08 <_bss_check>
bd0019f0:	00000000 	nop

bd0019f4 <_bss_init>:
bd0019f4:	ad000000 	sw	zero,0(t0)
bd0019f8:	ad000004 	sw	zero,4(t0)
bd0019fc:	ad000008 	sw	zero,8(t0)
bd001a00:	ad00000c 	sw	zero,12(t0)
bd001a04:	25080010 	addiu	t0,t0,16

bd001a08 <_bss_check>:
bd001a08:	0109082b 	sltu	at,t0,t1
bd001a0c:	1420fff9 	bnez	at,bd0019f4 <_bss_init>
bd001a10:	00000000 	nop
bd001a14:	3c089d01 	lui	t0,0x9d01
bd001a18:	25089a70 	addiu	t0,t0,-26000
bd001a1c:	0100f809 	jalr	t0
bd001a20:	00000000 	nop
bd001a24:	3c090000 	lui	t1,0x0
bd001a28:	25290000 	addiu	t1,t1,0
bd001a2c:	11200010 	beqz	t1,bd001a70 <_ramfunc_done>
bd001a30:	00000000 	nop
bd001a34:	3c090002 	lui	t1,0x2
bd001a38:	25290000 	addiu	t1,t1,0
bd001a3c:	3c0abf88 	lui	t2,0xbf88
bd001a40:	254a2010 	addiu	t2,t2,8208
bd001a44:	ad490000 	sw	t1,0(t2)
bd001a48:	3c090002 	lui	t1,0x2
bd001a4c:	25290000 	addiu	t1,t1,0
bd001a50:	3c0abf88 	lui	t2,0xbf88
bd001a54:	254a2020 	addiu	t2,t2,8224
bd001a58:	ad490000 	sw	t1,0(t2)
bd001a5c:	3c090002 	lui	t1,0x2
bd001a60:	25290000 	addiu	t1,t1,0
bd001a64:	3c0abf88 	lui	t2,0xbf88
bd001a68:	254a2030 	addiu	t2,t2,8240
bd001a6c:	ad490000 	sw	t1,0(t2)

bd001a70 <_ramfunc_done>:
bd001a70:	40804800 	mtc0	zero,c0_count
bd001a74:	240affff 	li	t2,-1
bd001a78:	408a5800 	mtc0	t2,c0_compare
bd001a7c:	3c080040 	lui	t0,0x40
bd001a80:	400a6000 	mfc0	t2,c0_status
bd001a84:	010a5025 	or	t2,t0,t2
bd001a88:	408a6000 	mtc0	t2,c0_status
bd001a8c:	3c099d00 	lui	t1,0x9d00
bd001a90:	25290000 	addiu	t1,t1,0
bd001a94:	000000c0 	ehb
bd001a98:	40897801 	mtc0	t1,c0_ebase
bd001a9c:	3c090000 	lui	t1,0x0
bd001aa0:	25290001 	addiu	t1,t1,1
bd001aa4:	240a0000 	li	t2,0
bd001aa8:	7d2a4944 	ins	t2,t1,0x5,0x5
bd001aac:	408a6001 	mtc0	t2,c0_intctl
bd001ab0:	3c090080 	lui	t1,0x80
bd001ab4:	40896800 	mtc0	t1,c0_cause
bd001ab8:	40088000 	mfc0	t0,c0_config
bd001abc:	7d090580 	ext	t1,t0,0x16,0x1
bd001ac0:	00094c40 	sll	t1,t1,0x11
bd001ac4:	40086000 	mfc0	t0,c0_status
bd001ac8:	3c010058 	lui	at,0x58
bd001acc:	01014024 	and	t0,t0,at
bd001ad0:	01284025 	or	t0,t1,t0
bd001ad4:	40886000 	mtc0	t0,c0_status
bd001ad8:	000000c0 	ehb
bd001adc:	3c089d01 	lui	t0,0x9d01
bd001ae0:	2508a63c 	addiu	t0,t0,-22980
bd001ae4:	0100f809 	jalr	t0
bd001ae8:	00000000 	nop
bd001aec:	40086000 	mfc0	t0,c0_status
bd001af0:	3c01ffbf 	lui	at,0xffbf
bd001af4:	3421ffff 	ori	at,at,0xffff
bd001af8:	01014024 	and	t0,t0,at
bd001afc:	40886000 	mtc0	t0,c0_status
bd001b00:	30840000 	andi	a0,a0,0x0
bd001b04:	30a50000 	andi	a1,a1,0x0
bd001b08:	3c089d01 	lui	t0,0x9d01
bd001b0c:	25089fbc 	addiu	t0,t0,-24644
bd001b10:	01000008 	jr	t0
bd001b14:	00000000 	nop

Disassembly of section .bev_excpt:

bd001cf0 <_bev_exception>:
bd001cf0:	3c1a9d01 	lui	k0,0x9d01
bd001cf4:	275aa0ac 	addiu	k0,k0,-24404
bd001cf8:	03400008 	jr	k0
bd001cfc:	00000000 	nop

Disassembly of section .app_excpt:

9d000180 <_gen_exception>:
9d000180:	3c1a9d01 	lui	k0,0x9d01
9d000184:	275a92e4 	addiu	k0,k0,-27932
9d000188:	03400008 	jr	k0
9d00018c:	00000000 	nop

Disassembly of section .vector_0:

9d000200 <__vector_dispatch_0>:
9d000200:	0b40284f 	j	9d00a13c <.LFE0>
9d000204:	00000000 	nop

Disassembly of section .vector_1:

9d000220 <__vector_dispatch_1>:
9d000220:	0b40284f 	j	9d00a13c <.LFE0>
9d000224:	00000000 	nop

Disassembly of section .vector_2:

9d000240 <__vector_dispatch_2>:
9d000240:	0b40284f 	j	9d00a13c <.LFE0>
9d000244:	00000000 	nop

Disassembly of section .vector_3:

9d000260 <__vector_dispatch_3>:
9d000260:	0b40284f 	j	9d00a13c <.LFE0>
9d000264:	00000000 	nop

Disassembly of section .vector_4:

9d000280 <__vector_dispatch_4>:
9d000280:	0b40284f 	j	9d00a13c <.LFE0>
9d000284:	00000000 	nop

Disassembly of section .vector_5:

9d0002a0 <__vector_dispatch_5>:
9d0002a0:	0b40284f 	j	9d00a13c <.LFE0>
9d0002a4:	00000000 	nop

Disassembly of section .vector_6:

9d0002c0 <__vector_dispatch_6>:
9d0002c0:	0b40284f 	j	9d00a13c <.LFE0>
9d0002c4:	00000000 	nop

Disassembly of section .vector_7:

9d0002e0 <__vector_dispatch_7>:
9d0002e0:	0b40284f 	j	9d00a13c <.LFE0>
9d0002e4:	00000000 	nop

Disassembly of section .vector_8:

9d000300 <__vector_dispatch_8>:
9d000300:	0b401785 	j	9d005e14 <Controller>
9d000304:	00000000 	nop

Disassembly of section .vector_9:

9d000320 <__vector_dispatch_9>:
9d000320:	0b40284f 	j	9d00a13c <.LFE0>
9d000324:	00000000 	nop

Disassembly of section .vector_10:

9d000340 <__vector_dispatch_10>:
9d000340:	0b40284f 	j	9d00a13c <.LFE0>
9d000344:	00000000 	nop

Disassembly of section .vector_11:

9d000360 <__vector_dispatch_11>:
9d000360:	0b40284f 	j	9d00a13c <.LFE0>
9d000364:	00000000 	nop

Disassembly of section .vector_12:

9d000380 <__vector_dispatch_12>:
9d000380:	0b40284f 	j	9d00a13c <.LFE0>
9d000384:	00000000 	nop

Disassembly of section .vector_13:

9d0003a0 <__vector_dispatch_13>:
9d0003a0:	0b40284f 	j	9d00a13c <.LFE0>
9d0003a4:	00000000 	nop

Disassembly of section .vector_14:

9d0003c0 <__vector_dispatch_14>:
9d0003c0:	0b40284f 	j	9d00a13c <.LFE0>
9d0003c4:	00000000 	nop

Disassembly of section .vector_15:

9d0003e0 <__vector_dispatch_15>:
9d0003e0:	0b40284f 	j	9d00a13c <.LFE0>
9d0003e4:	00000000 	nop

Disassembly of section .vector_16:

9d000400 <__vector_dispatch_16>:
9d000400:	0b40284f 	j	9d00a13c <.LFE0>
9d000404:	00000000 	nop

Disassembly of section .vector_17:

9d000420 <__vector_dispatch_17>:
9d000420:	0b40284f 	j	9d00a13c <.LFE0>
9d000424:	00000000 	nop

Disassembly of section .vector_18:

9d000440 <__vector_dispatch_18>:
9d000440:	0b40284f 	j	9d00a13c <.LFE0>
9d000444:	00000000 	nop

Disassembly of section .vector_19:

9d000460 <__vector_dispatch_19>:
9d000460:	0b40284f 	j	9d00a13c <.LFE0>
9d000464:	00000000 	nop

Disassembly of section .vector_20:

9d000480 <__vector_dispatch_20>:
9d000480:	0b40284f 	j	9d00a13c <.LFE0>
9d000484:	00000000 	nop

Disassembly of section .vector_21:

9d0004a0 <__vector_dispatch_21>:
9d0004a0:	0b40284f 	j	9d00a13c <.LFE0>
9d0004a4:	00000000 	nop

Disassembly of section .vector_22:

9d0004c0 <__vector_dispatch_22>:
9d0004c0:	0b40284f 	j	9d00a13c <.LFE0>
9d0004c4:	00000000 	nop

Disassembly of section .vector_23:

9d0004e0 <__vector_dispatch_23>:
9d0004e0:	0b40284f 	j	9d00a13c <.LFE0>
9d0004e4:	00000000 	nop

Disassembly of section .vector_24:

9d000500 <__vector_dispatch_24>:
9d000500:	0b40284f 	j	9d00a13c <.LFE0>
9d000504:	00000000 	nop

Disassembly of section .vector_25:

9d000520 <__vector_dispatch_25>:
9d000520:	0b40284f 	j	9d00a13c <.LFE0>
9d000524:	00000000 	nop

Disassembly of section .vector_26:

9d000540 <__vector_dispatch_26>:
9d000540:	0b40284f 	j	9d00a13c <.LFE0>
9d000544:	00000000 	nop

Disassembly of section .vector_27:

9d000560 <__vector_dispatch_27>:
9d000560:	0b40284f 	j	9d00a13c <.LFE0>
9d000564:	00000000 	nop

Disassembly of section .vector_28:

9d000580 <__vector_dispatch_28>:
9d000580:	0b40284f 	j	9d00a13c <.LFE0>
9d000584:	00000000 	nop

Disassembly of section .vector_29:

9d0005a0 <__vector_dispatch_29>:
9d0005a0:	0b40284f 	j	9d00a13c <.LFE0>
9d0005a4:	00000000 	nop

Disassembly of section .vector_30:

9d0005c0 <__vector_dispatch_30>:
9d0005c0:	0b40284f 	j	9d00a13c <.LFE0>
9d0005c4:	00000000 	nop

Disassembly of section .vector_31:

9d0005e0 <__vector_dispatch_31>:
9d0005e0:	0b40284f 	j	9d00a13c <.LFE0>
9d0005e4:	00000000 	nop

Disassembly of section .vector_32:

9d000600 <__vector_dispatch_32>:
9d000600:	0b40284f 	j	9d00a13c <.LFE0>
9d000604:	00000000 	nop

Disassembly of section .vector_33:

9d000620 <__vector_dispatch_33>:
9d000620:	0b40284f 	j	9d00a13c <.LFE0>
9d000624:	00000000 	nop

Disassembly of section .vector_34:

9d000640 <__vector_dispatch_34>:
9d000640:	0b40284f 	j	9d00a13c <.LFE0>
9d000644:	00000000 	nop

Disassembly of section .vector_35:

9d000660 <__vector_dispatch_35>:
9d000660:	0b40284f 	j	9d00a13c <.LFE0>
9d000664:	00000000 	nop

Disassembly of section .vector_36:

9d000680 <__vector_dispatch_36>:
9d000680:	0b40284f 	j	9d00a13c <.LFE0>
9d000684:	00000000 	nop

Disassembly of section .vector_37:

9d0006a0 <__vector_dispatch_37>:
9d0006a0:	0b40284f 	j	9d00a13c <.LFE0>
9d0006a4:	00000000 	nop

Disassembly of section .vector_38:

9d0006c0 <__vector_dispatch_38>:
9d0006c0:	0b40284f 	j	9d00a13c <.LFE0>
9d0006c4:	00000000 	nop

Disassembly of section .vector_39:

9d0006e0 <__vector_dispatch_39>:
9d0006e0:	0b40284f 	j	9d00a13c <.LFE0>
9d0006e4:	00000000 	nop

Disassembly of section .vector_40:

9d000700 <__vector_dispatch_40>:
9d000700:	0b40284f 	j	9d00a13c <.LFE0>
9d000704:	00000000 	nop

Disassembly of section .vector_41:

9d000720 <__vector_dispatch_41>:
9d000720:	0b40284f 	j	9d00a13c <.LFE0>
9d000724:	00000000 	nop

Disassembly of section .vector_42:

9d000740 <__vector_dispatch_42>:
9d000740:	0b40284f 	j	9d00a13c <.LFE0>
9d000744:	00000000 	nop

Disassembly of section .vector_43:

9d000760 <__vector_dispatch_43>:
9d000760:	0b40284f 	j	9d00a13c <.LFE0>
9d000764:	00000000 	nop

Disassembly of section .vector_44:

9d000780 <__vector_dispatch_44>:
9d000780:	0b40284f 	j	9d00a13c <.LFE0>
9d000784:	00000000 	nop

Disassembly of section .vector_45:

9d0007a0 <__vector_dispatch_45>:
9d0007a0:	0b40284f 	j	9d00a13c <.LFE0>
9d0007a4:	00000000 	nop

Disassembly of section .vector_46:

9d0007c0 <__vector_dispatch_46>:
9d0007c0:	0b40284f 	j	9d00a13c <.LFE0>
9d0007c4:	00000000 	nop

Disassembly of section .vector_47:

9d0007e0 <__vector_dispatch_47>:
9d0007e0:	0b40284f 	j	9d00a13c <.LFE0>
9d0007e4:	00000000 	nop

Disassembly of section .vector_48:

9d000800 <__vector_dispatch_48>:
9d000800:	0b40284f 	j	9d00a13c <.LFE0>
9d000804:	00000000 	nop

Disassembly of section .vector_49:

9d000820 <__vector_dispatch_49>:
9d000820:	0b40284f 	j	9d00a13c <.LFE0>
9d000824:	00000000 	nop

Disassembly of section .vector_50:

9d000840 <__vector_dispatch_50>:
9d000840:	0b40284f 	j	9d00a13c <.LFE0>
9d000844:	00000000 	nop

Disassembly of section .vector_51:

9d000860 <__vector_dispatch_51>:
9d000860:	0b40284f 	j	9d00a13c <.LFE0>
9d000864:	00000000 	nop

Disassembly of section ._debug_exception:

bfc00480 <__DbgExecReturn>:
bfc00480:	409bf800 	mtc0	k1,c0_desave
bfc00484:	000000c0 	ehb
bfc00488:	3c1b9d01 	lui	k1,0x9d01
bfc0048c:	277ba1cc 	addiu	k1,k1,-24116
bfc00490:	13600002 	beqz	k1,bfc0049c <__DbgExecReturn+0x1c>
bfc00494:	00000000 	nop
bfc00498:	409bc000 	mtc0	k1,c0_depc
bfc0049c:	401bf800 	mfc0	k1,c0_desave
bfc004a0:	000000c0 	ehb
bfc004a4:	4200001f 	deret
bfc004a8:	00000000 	nop

Disassembly of section .text.do_scan:

9d001e00 <do_scan>:
9d001e00:	27bdff00 	addiu	sp,sp,-256
9d001e04:	afbf00fc 	sw	ra,252(sp)
9d001e08:	afbe00f8 	sw	s8,248(sp)
9d001e0c:	afb700f4 	sw	s7,244(sp)
9d001e10:	afb600f0 	sw	s6,240(sp)
9d001e14:	afb500ec 	sw	s5,236(sp)
9d001e18:	afb400e8 	sw	s4,232(sp)
9d001e1c:	afb300e4 	sw	s3,228(sp)
9d001e20:	afb200e0 	sw	s2,224(sp)
9d001e24:	afb100dc 	sw	s1,220(sp)
9d001e28:	afb000d8 	sw	s0,216(sp)
9d001e2c:	00809821 	move	s3,a0
9d001e30:	8c820018 	lw	v0,24(a0)
9d001e34:	00a08021 	move	s0,a1
9d001e38:	24050002 	li	a1,2
9d001e3c:	8c420010 	lw	v0,16(v0)
9d001e40:	0040f809 	jalr	v0
9d001e44:	00c08821 	move	s1,a2
9d001e48:	104000a2 	beqz	v0,9d0020d4 <do_scan+0x2d4>
9d001e4c:	2402ffff 	li	v0,-1
9d001e50:	afb30098 	sw	s3,152(sp)
9d001e54:	afa2009c 	sw	v0,156(sp)
9d001e58:	afb100a4 	sw	s1,164(sp)
9d001e5c:	afa000ac 	sw	zero,172(sp)
9d001e60:	afa000b0 	sw	zero,176(sp)
9d001e64:	afa000a8 	sw	zero,168(sp)
9d001e68:	02002821 	move	a1,s0
9d001e6c:	0000f021 	move	s8,zero
9d001e70:	3c109d01 	lui	s0,0x9d01
9d001e74:	26108c05 	addiu	s0,s0,-29691
9d001e78:	3c159d00 	lui	s5,0x9d00
9d001e7c:	24a20001 	addiu	v0,a1,1
9d001e80:	afa200a0 	sw	v0,160(sp)
9d001e84:	80b10000 	lb	s1,0(a1)
9d001e88:	12200012 	beqz	s1,9d001ed4 <do_scan+0xd4>
9d001e8c:	26b51ff8 	addiu	s5,s5,8184
9d001e90:	17c00010 	bnez	s8,9d001ed4 <do_scan+0xd4>
9d001e94:	24020025 	li	v0,37
9d001e98:	12220033 	beq	s1,v0,9d001f68 <do_scan+0x168>
9d001e9c:	02301021 	addu	v0,s1,s0
9d001ea0:	80420000 	lb	v0,0(v0)
9d001ea4:	30420088 	andi	v0,v0,0x88
9d001ea8:	10400021 	beqz	v0,9d001f30 <do_scan+0x130>
9d001eac:	27a40098 	addiu	a0,sp,152
9d001eb0:	0f40262a 	jal	9d0098a8 <_eat_white>
9d001eb4:	00000000 	nop
9d001eb8:	0040f021 	move	s8,v0
9d001ebc:	8fa500a0 	lw	a1,160(sp)
9d001ec0:	24a20001 	addiu	v0,a1,1
9d001ec4:	afa200a0 	sw	v0,160(sp)
9d001ec8:	80b10000 	lb	s1,0(a1)
9d001ecc:	1620fff0 	bnez	s1,9d001e90 <do_scan+0x90>
9d001ed0:	00000000 	nop
9d001ed4:	8fa4009c 	lw	a0,156(sp)
9d001ed8:	2402ffff 	li	v0,-1
9d001edc:	10820005 	beq	a0,v0,9d001ef4 <do_scan+0xf4>
9d001ee0:	00000000 	nop
9d001ee4:	96620010 	lhu	v0,16(s3)
9d001ee8:	30420080 	andi	v0,v0,0x80
9d001eec:	1040008d 	beqz	v0,9d002124 <do_scan+0x324>
9d001ef0:	2402ffff 	li	v0,-1
9d001ef4:	13c20075 	beq	s8,v0,9d0020cc <do_scan+0x2cc>
9d001ef8:	8fa200ac 	lw	v0,172(sp)
9d001efc:	8fa200b0 	lw	v0,176(sp)
9d001f00:	8fbf00fc 	lw	ra,252(sp)
9d001f04:	8fbe00f8 	lw	s8,248(sp)
9d001f08:	8fb700f4 	lw	s7,244(sp)
9d001f0c:	8fb600f0 	lw	s6,240(sp)
9d001f10:	8fb500ec 	lw	s5,236(sp)
9d001f14:	8fb400e8 	lw	s4,232(sp)
9d001f18:	8fb300e4 	lw	s3,228(sp)
9d001f1c:	8fb200e0 	lw	s2,224(sp)
9d001f20:	8fb100dc 	lw	s1,220(sp)
9d001f24:	8fb000d8 	lw	s0,216(sp)
9d001f28:	03e00008 	jr	ra
9d001f2c:	27bd0100 	addiu	sp,sp,256
9d001f30:	0f4027a5 	jal	9d009e94 <gsgetc>
9d001f34:	00000000 	nop
9d001f38:	2403ffff 	li	v1,-1
9d001f3c:	504301ce 	beql	v0,v1,9d002678 <do_scan+0x878>
9d001f40:	241effff 	li	s8,-1
9d001f44:	5222ffde 	beql	s1,v0,9d001ec0 <do_scan+0xc0>
9d001f48:	8fa500a0 	lw	a1,160(sp)
9d001f4c:	afa2009c 	sw	v0,156(sp)
9d001f50:	241e0001 	li	s8,1
9d001f54:	8fa200a8 	lw	v0,168(sp)
9d001f58:	2442ffff 	addiu	v0,v0,-1
9d001f5c:	afa200a8 	sw	v0,168(sp)
9d001f60:	0b4007b0 	j	9d001ec0 <do_scan+0xc0>
9d001f64:	8fa500a0 	lw	a1,160(sp)
9d001f68:	24a20002 	addiu	v0,a1,2
9d001f6c:	afa200a0 	sw	v0,160(sp)
9d001f70:	80b20001 	lb	s2,1(a1)
9d001f74:	125101a1 	beq	s2,s1,9d0025fc <do_scan+0x7fc>
9d001f78:	2402002a 	li	v0,42
9d001f7c:	124200dd 	beq	s2,v0,9d0022f4 <do_scan+0x4f4>
9d001f80:	00008821 	move	s1,zero
9d001f84:	02121021 	addu	v0,s0,s2
9d001f88:	90420000 	lbu	v0,0(v0)
9d001f8c:	30420004 	andi	v0,v0,0x4
9d001f90:	144000c1 	bnez	v0,9d002298 <do_scan+0x498>
9d001f94:	3c167fff 	lui	s6,0x7fff
9d001f98:	36d6ffff 	ori	s6,s6,0xffff
9d001f9c:	24020068 	li	v0,104
9d001fa0:	124200cc 	beq	s2,v0,9d0022d4 <do_scan+0x4d4>
9d001fa4:	afb600d0 	sw	s6,208(sp)
9d001fa8:	2a420069 	slti	v0,s2,105
9d001fac:	144000b2 	bnez	v0,9d002278 <do_scan+0x478>
9d001fb0:	2402006c 	li	v0,108
9d001fb4:	12420054 	beq	s2,v0,9d002108 <do_scan+0x308>
9d001fb8:	8fa300a0 	lw	v1,160(sp)
9d001fbc:	24020071 	li	v0,113
9d001fc0:	16420005 	bne	s2,v0,9d001fd8 <do_scan+0x1d8>
9d001fc4:	8fa200a0 	lw	v0,160(sp)
9d001fc8:	36310800 	ori	s1,s1,0x800
9d001fcc:	24430001 	addiu	v1,v0,1
9d001fd0:	afa300a0 	sw	v1,160(sp)
9d001fd4:	80520000 	lb	s2,0(v0)
9d001fd8:	2652ffbc 	addiu	s2,s2,-68
9d001fdc:	2e420035 	sltiu	v0,s2,53
9d001fe0:	104001be 	beqz	v0,9d0026dc <do_scan+0x8dc>
9d001fe4:	00129080 	sll	s2,s2,0x2
9d001fe8:	02b29021 	addu	s2,s5,s2
9d001fec:	8e420000 	lw	v0,0(s2)
9d001ff0:	00400008 	jr	v0
9d001ff4:	00000000 	nop
9d001ff8:	9d002140 	0x9d002140
9d001ffc:	9d002410 	0x9d002410
9d002000:	9d002410 	0x9d002410
9d002004:	9d002410 	0x9d002410
9d002008:	9d0026dc 	0x9d0026dc
9d00200c:	9d0026dc 	0x9d0026dc
9d002010:	9d0026dc 	0x9d0026dc
9d002014:	9d0026dc 	0x9d0026dc
9d002018:	9d0026dc 	0x9d0026dc
9d00201c:	9d0026dc 	0x9d0026dc
9d002020:	9d0026dc 	0x9d0026dc
9d002024:	9d002400 	0x9d002400
9d002028:	9d0026dc 	0x9d0026dc
9d00202c:	9d0026dc 	0x9d0026dc
9d002030:	9d0026dc 	0x9d0026dc
9d002034:	9d0026dc 	0x9d0026dc
9d002038:	9d0026dc 	0x9d0026dc
9d00203c:	9d0023f0 	0x9d0023f0
9d002040:	9d0026dc 	0x9d0026dc
9d002044:	9d0026dc 	0x9d0026dc
9d002048:	9d0023e4 	0x9d0023e4
9d00204c:	9d0026dc 	0x9d0026dc
9d002050:	9d0026dc 	0x9d0026dc
9d002054:	9d002354 	0x9d002354
9d002058:	9d0026dc 	0x9d0026dc
9d00205c:	9d0026dc 	0x9d0026dc
9d002060:	9d0026dc 	0x9d0026dc
9d002064:	9d0026dc 	0x9d0026dc
9d002068:	9d0026dc 	0x9d0026dc
9d00206c:	9d0026dc 	0x9d0026dc
9d002070:	9d0026dc 	0x9d0026dc
9d002074:	9d002314 	0x9d002314
9d002078:	9d002144 	0x9d002144
9d00207c:	9d002410 	0x9d002410
9d002080:	9d002410 	0x9d002410
9d002084:	9d002410 	0x9d002410
9d002088:	9d0026dc 	0x9d0026dc
9d00208c:	9d00237c 	0x9d00237c
9d002090:	9d0026dc 	0x9d0026dc
9d002094:	9d0026dc 	0x9d0026dc
9d002098:	9d0026dc 	0x9d0026dc
9d00209c:	9d0026dc 	0x9d0026dc
9d0020a0:	9d002388 	0x9d002388
9d0020a4:	9d002308 	0x9d002308
9d0020a8:	9d0023e4 	0x9d0023e4
9d0020ac:	9d0026dc 	0x9d0026dc
9d0020b0:	9d0026dc 	0x9d0026dc
9d0020b4:	9d0023c4 	0x9d0023c4
9d0020b8:	9d0026dc 	0x9d0026dc
9d0020bc:	9d002148 	0x9d002148
9d0020c0:	9d0026dc 	0x9d0026dc
9d0020c4:	9d0026dc 	0x9d0026dc
9d0020c8:	9d0023e4 	0x9d0023e4
9d0020cc:	1440ff8c 	bnez	v0,9d001f00 <do_scan+0x100>
9d0020d0:	8fa200b0 	lw	v0,176(sp)
9d0020d4:	2402ffff 	li	v0,-1
9d0020d8:	8fbf00fc 	lw	ra,252(sp)
9d0020dc:	8fbe00f8 	lw	s8,248(sp)
9d0020e0:	8fb700f4 	lw	s7,244(sp)
9d0020e4:	8fb600f0 	lw	s6,240(sp)
9d0020e8:	8fb500ec 	lw	s5,236(sp)
9d0020ec:	8fb400e8 	lw	s4,232(sp)
9d0020f0:	8fb300e4 	lw	s3,228(sp)
9d0020f4:	8fb200e0 	lw	s2,224(sp)
9d0020f8:	8fb100dc 	lw	s1,220(sp)
9d0020fc:	8fb000d8 	lw	s0,216(sp)
9d002100:	03e00008 	jr	ra
9d002104:	27bd0100 	addiu	sp,sp,256
9d002108:	24640001 	addiu	a0,v1,1
9d00210c:	afa400a0 	sw	a0,160(sp)
9d002110:	80720000 	lb	s2,0(v1)
9d002114:	12420118 	beq	s2,v0,9d002578 <do_scan+0x778>
9d002118:	24620002 	addiu	v0,v1,2
9d00211c:	0b4007f6 	j	9d001fd8 <do_scan+0x1d8>
9d002120:	36310200 	ori	s1,s1,0x200
9d002124:	0f402271 	jal	9d0089c4 <ungetc>
9d002128:	8fa50098 	lw	a1,152(sp)
9d00212c:	2402ffff 	li	v0,-1
9d002130:	57c2ff73 	bnel	s8,v0,9d001f00 <do_scan+0x100>
9d002134:	8fa200b0 	lw	v0,176(sp)
9d002138:	0b400833 	j	9d0020cc <do_scan+0x2cc>
9d00213c:	8fa200ac 	lw	v0,172(sp)
9d002140:	36310200 	ori	s1,s1,0x200
9d002144:	36311000 	ori	s1,s1,0x1000
9d002148:	2403000a 	li	v1,10
9d00214c:	afa300d4 	sw	v1,212(sp)
9d002150:	0f40262a 	jal	9d0098a8 <_eat_white>
9d002154:	27a40098 	addiu	a0,sp,152
9d002158:	1440ff58 	bnez	v0,9d001ebc <do_scan+0xbc>
9d00215c:	0040f021 	move	s8,v0
9d002160:	27a40018 	addiu	a0,sp,24
9d002164:	afa400cc 	sw	a0,204(sp)
9d002168:	8fa200d0 	lw	v0,208(sp)
9d00216c:	1440010a 	bnez	v0,9d002598 <do_scan+0x798>
9d002170:	00009021 	move	s2,zero
9d002174:	27b60018 	addiu	s6,sp,24
9d002178:	8fa300d4 	lw	v1,212(sp)
9d00217c:	106000f9 	beqz	v1,9d002564 <do_scan+0x764>
9d002180:	2417ffff 	li	s7,-1
9d002184:	24020010 	li	v0,16
9d002188:	8fa300d4 	lw	v1,212(sp)
9d00218c:	10620159 	beq	v1,v0,9d0026f4 <do_scan+0x8f4>
9d002190:	24020030 	li	v0,48
9d002194:	24020008 	li	v0,8
9d002198:	8fa300d4 	lw	v1,212(sp)
9d00219c:	146200f4 	bne	v1,v0,9d002570 <do_scan+0x770>
9d0021a0:	3c029d01 	lui	v0,0x9d01
9d0021a4:	24030008 	li	v1,8
9d0021a8:	afa300d4 	sw	v1,212(sp)
9d0021ac:	3c049d01 	lui	a0,0x9d01
9d0021b0:	2494a36c 	addiu	s4,a0,-23700
9d0021b4:	2403ffff 	li	v1,-1
9d0021b8:	12e30009 	beq	s7,v1,9d0021e0 <do_scan+0x3e0>
9d0021bc:	02802021 	move	a0,s4
9d0021c0:	0f402443 	jal	9d00910c <strchr>
9d0021c4:	02e02821 	move	a1,s7
9d0021c8:	1040011c 	beqz	v0,9d00263c <do_scan+0x83c>
9d0021cc:	26c20001 	addiu	v0,s6,1
9d0021d0:	afa200cc 	sw	v0,204(sp)
9d0021d4:	16400120 	bnez	s2,9d002658 <do_scan+0x858>
9d0021d8:	a2d70000 	sb	s7,0(s6)
9d0021dc:	8fb600cc 	lw	s6,204(sp)
9d0021e0:	a2c00000 	sb	zero,0(s6)
9d0021e4:	2417ffff 	li	s7,-1
9d0021e8:	32340800 	andi	s4,s1,0x800
9d0021ec:	32361000 	andi	s6,s1,0x1000
9d0021f0:	27a40018 	addiu	a0,sp,24
9d0021f4:	27a500cc 	addiu	a1,sp,204
9d0021f8:	12800109 	beqz	s4,9d002620 <do_scan+0x820>
9d0021fc:	8fa600d4 	lw	a2,212(sp)
9d002200:	12c00125 	beqz	s6,9d002698 <do_scan+0x898>
9d002204:	00000000 	nop
9d002208:	0f401984 	jal	9d006610 <.LFE23>
9d00220c:	00000000 	nop
9d002210:	00402021 	move	a0,v0
9d002214:	00602821 	move	a1,v1
9d002218:	00001021 	move	v0,zero
9d00221c:	8fa300ac 	lw	v1,172(sp)
9d002220:	24630001 	addiu	v1,v1,1
9d002224:	afa300ac 	sw	v1,172(sp)
9d002228:	8fa300d0 	lw	v1,208(sp)
9d00222c:	10720114 	beq	v1,s2,9d002680 <do_scan+0x880>
9d002230:	32230001 	andi	v1,s1,0x1
9d002234:	5460ff22 	bnezl	v1,9d001ec0 <do_scan+0xc0>
9d002238:	8fa500a0 	lw	a1,160(sp)
9d00223c:	56800121 	bnezl	s4,9d0026c4 <do_scan+0x8c4>
9d002240:	8fa200a4 	lw	v0,164(sp)
9d002244:	32230200 	andi	v1,s1,0x200
9d002248:	10600170 	beqz	v1,9d00280c <do_scan+0xa0c>
9d00224c:	32230100 	andi	v1,s1,0x100
9d002250:	8fa300a4 	lw	v1,164(sp)
9d002254:	24640004 	addiu	a0,v1,4
9d002258:	afa400a4 	sw	a0,164(sp)
9d00225c:	8c630000 	lw	v1,0(v1)
9d002260:	ac620000 	sw	v0,0(v1)
9d002264:	8fa200b0 	lw	v0,176(sp)
9d002268:	24420001 	addiu	v0,v0,1
9d00226c:	afa200b0 	sw	v0,176(sp)
9d002270:	0b4007b0 	j	9d001ec0 <do_scan+0xc0>
9d002274:	8fa500a0 	lw	a1,160(sp)
9d002278:	2402004c 	li	v0,76
9d00227c:	1642ff56 	bne	s2,v0,9d001fd8 <do_scan+0x1d8>
9d002280:	8fa200a0 	lw	v0,160(sp)
9d002284:	36310400 	ori	s1,s1,0x400
9d002288:	24430001 	addiu	v1,v0,1
9d00228c:	afa300a0 	sw	v1,160(sp)
9d002290:	0b4007f6 	j	9d001fd8 <do_scan+0x1d8>
9d002294:	80520000 	lb	s2,0(v0)
9d002298:	27a500a0 	addiu	a1,sp,160
9d00229c:	2406000a 	li	a2,10
9d0022a0:	8fa200a0 	lw	v0,160(sp)
9d0022a4:	2442ffff 	addiu	v0,v0,-1
9d0022a8:	00402021 	move	a0,v0
9d0022ac:	0f401d6b 	jal	9d0075ac <strtoul>
9d0022b0:	afa200a0 	sw	v0,160(sp)
9d0022b4:	afa200d0 	sw	v0,208(sp)
9d0022b8:	8fa200a0 	lw	v0,160(sp)
9d0022bc:	24430001 	addiu	v1,v0,1
9d0022c0:	afa300a0 	sw	v1,160(sp)
9d0022c4:	80520000 	lb	s2,0(v0)
9d0022c8:	24020068 	li	v0,104
9d0022cc:	5642ff37 	bnel	s2,v0,9d001fac <do_scan+0x1ac>
9d0022d0:	2a420069 	slti	v0,s2,105
9d0022d4:	8fa300a0 	lw	v1,160(sp)
9d0022d8:	24640001 	addiu	a0,v1,1
9d0022dc:	afa400a0 	sw	a0,160(sp)
9d0022e0:	80720000 	lb	s2,0(v1)
9d0022e4:	124200a8 	beq	s2,v0,9d002588 <do_scan+0x788>
9d0022e8:	24620002 	addiu	v0,v1,2
9d0022ec:	0b4007f6 	j	9d001fd8 <do_scan+0x1d8>
9d0022f0:	36310100 	ori	s1,s1,0x100
9d0022f4:	24a20003 	addiu	v0,a1,3
9d0022f8:	afa200a0 	sw	v0,160(sp)
9d0022fc:	80b20002 	lb	s2,2(a1)
9d002300:	0b4007e1 	j	9d001f84 <do_scan+0x184>
9d002304:	24110001 	li	s1,1
9d002308:	24030008 	li	v1,8
9d00230c:	0b400854 	j	9d002150 <do_scan+0x350>
9d002310:	afa300d4 	sw	v1,212(sp)
9d002314:	3c077fff 	lui	a3,0x7fff
9d002318:	34e7ffff 	ori	a3,a3,0xffff
9d00231c:	8fa300d0 	lw	v1,208(sp)
9d002320:	00673826 	xor	a3,v1,a3
9d002324:	27a20098 	addiu	v0,sp,152
9d002328:	afa20010 	sw	v0,16(sp)
9d00232c:	00002021 	move	a0,zero
9d002330:	00002821 	move	a1,zero
9d002334:	02203021 	move	a2,s1
9d002338:	24020001 	li	v0,1
9d00233c:	0047180a 	movz	v1,v0,a3
9d002340:	0f401cca 	jal	9d007328 <_strtostr>
9d002344:	00603821 	move	a3,v1
9d002348:	0040f021 	move	s8,v0
9d00234c:	0b4007b0 	j	9d001ec0 <do_scan+0xc0>
9d002350:	8fa500a0 	lw	a1,160(sp)
9d002354:	27a20098 	addiu	v0,sp,152
9d002358:	afa20010 	sw	v0,16(sp)
9d00235c:	24040002 	li	a0,2
9d002360:	24050001 	li	a1,1
9d002364:	02203021 	move	a2,s1
9d002368:	0f401cca 	jal	9d007328 <_strtostr>
9d00236c:	8fa700d0 	lw	a3,208(sp)
9d002370:	0040f021 	move	s8,v0
9d002374:	0b4007b0 	j	9d001ec0 <do_scan+0xc0>
9d002378:	8fa500a0 	lw	a1,160(sp)
9d00237c:	36311000 	ori	s1,s1,0x1000
9d002380:	0b400854 	j	9d002150 <do_scan+0x350>
9d002384:	afa000d4 	sw	zero,212(sp)
9d002388:	32220001 	andi	v0,s1,0x1
9d00238c:	1440fecc 	bnez	v0,9d001ec0 <do_scan+0xc0>
9d002390:	8fa500a0 	lw	a1,160(sp)
9d002394:	32230800 	andi	v1,s1,0x800
9d002398:	10600112 	beqz	v1,9d0027e4 <do_scan+0x9e4>
9d00239c:	8fa200a8 	lw	v0,168(sp)
9d0023a0:	8fa300a4 	lw	v1,164(sp)
9d0023a4:	000227c3 	sra	a0,v0,0x1f
9d0023a8:	24650004 	addiu	a1,v1,4
9d0023ac:	afa500a4 	sw	a1,164(sp)
9d0023b0:	8c630000 	lw	v1,0(v1)
9d0023b4:	ac620000 	sw	v0,0(v1)
9d0023b8:	ac640004 	sw	a0,4(v1)
9d0023bc:	0b4007b0 	j	9d001ec0 <do_scan+0xc0>
9d0023c0:	8fa500a0 	lw	a1,160(sp)
9d0023c4:	0f40262a 	jal	9d0098a8 <_eat_white>
9d0023c8:	27a40098 	addiu	a0,sp,152
9d0023cc:	1440febb 	bnez	v0,9d001ebc <do_scan+0xbc>
9d0023d0:	0040f021 	move	s8,v0
9d0023d4:	27a20098 	addiu	v0,sp,152
9d0023d8:	afa20010 	sw	v0,16(sp)
9d0023dc:	0b4008d8 	j	9d002360 <do_scan+0x560>
9d0023e0:	24040001 	li	a0,1
9d0023e4:	24030010 	li	v1,16
9d0023e8:	0b400854 	j	9d002150 <do_scan+0x350>
9d0023ec:	afa300d4 	sw	v1,212(sp)
9d0023f0:	36310200 	ori	s1,s1,0x200
9d0023f4:	2403000a 	li	v1,10
9d0023f8:	0b400854 	j	9d002150 <do_scan+0x350>
9d0023fc:	afa300d4 	sw	v1,212(sp)
9d002400:	36310200 	ori	s1,s1,0x200
9d002404:	24030008 	li	v1,8
9d002408:	0b400854 	j	9d002150 <do_scan+0x350>
9d00240c:	afa300d4 	sw	v1,212(sp)
9d002410:	0f40262a 	jal	9d0098a8 <_eat_white>
9d002414:	27a40098 	addiu	a0,sp,152
9d002418:	1440fea8 	bnez	v0,9d001ebc <do_scan+0xbc>
9d00241c:	0040f021 	move	s8,v0
9d002420:	8fa400d0 	lw	a0,208(sp)
9d002424:	afa400b8 	sw	a0,184(sp)
9d002428:	27a20098 	addiu	v0,sp,152
9d00242c:	afa200b4 	sw	v0,180(sp)
9d002430:	27a20018 	addiu	v0,sp,24
9d002434:	afa200bc 	sw	v0,188(sp)
9d002438:	afa000c0 	sw	zero,192(sp)
9d00243c:	24020080 	li	v0,128
9d002440:	afa200c4 	sw	v0,196(sp)
9d002444:	14800109 	bnez	a0,9d00286c <do_scan+0xa6c>
9d002448:	afa000c8 	sw	zero,200(sp)
9d00244c:	3c049d01 	lui	a0,0x9d01
9d002450:	24828c04 	addiu	v0,a0,-29692
9d002454:	2416ffff 	li	s6,-1
9d002458:	0000a021 	move	s4,zero
9d00245c:	0b40091d 	j	9d002474 <do_scan+0x674>
9d002460:	27b200b4 	addiu	s2,sp,180
9d002464:	0f4022be 	jal	9d008af8 <putget.2780>
9d002468:	02c02021 	move	a0,s6
9d00246c:	0040b021 	move	s6,v0
9d002470:	02021021 	addu	v0,s0,v0
9d002474:	90420000 	lbu	v0,0(v0)
9d002478:	30420004 	andi	v0,v0,0x4
9d00247c:	1440fff9 	bnez	v0,9d002464 <do_scan+0x664>
9d002480:	02407821 	move	t7,s2
9d002484:	2402002e 	li	v0,46
9d002488:	12c20135 	beq	s6,v0,9d002960 <do_scan+0xb60>
9d00248c:	8fa200c8 	lw	v0,200(sp)
9d002490:	00541023 	subu	v0,v0,s4
9d002494:	18400005 	blez	v0,9d0024ac <do_scan+0x6ac>
9d002498:	2404ffdf 	li	a0,-33
9d00249c:	02c41824 	and	v1,s6,a0
9d0024a0:	24020045 	li	v0,69
9d0024a4:	1062010a 	beq	v1,v0,9d0028d0 <do_scan+0xad0>
9d0024a8:	02407821 	move	t7,s2
9d0024ac:	02407821 	move	t7,s2
9d0024b0:	0f4022be 	jal	9d008af8 <putget.2780>
9d0024b4:	00002021 	move	a0,zero
9d0024b8:	2402ffff 	li	v0,-1
9d0024bc:	12c20008 	beq	s6,v0,9d0024e0 <do_scan+0x6e0>
9d0024c0:	8fa200b4 	lw	v0,180(sp)
9d0024c4:	8c430010 	lw	v1,16(v0)
9d0024c8:	8fa400b8 	lw	a0,184(sp)
9d0024cc:	24840001 	addiu	a0,a0,1
9d0024d0:	afa400b8 	sw	a0,184(sp)
9d0024d4:	2463ffff 	addiu	v1,v1,-1
9d0024d8:	ac560004 	sw	s6,4(v0)
9d0024dc:	ac430010 	sw	v1,16(v0)
9d0024e0:	8fa200c8 	lw	v0,200(sp)
9d0024e4:	0054a023 	subu	s4,v0,s4
9d0024e8:	1a8000f7 	blez	s4,9d0028c8 <do_scan+0xac8>
9d0024ec:	8fa200b4 	lw	v0,180(sp)
9d0024f0:	32230001 	andi	v1,s1,0x1
9d0024f4:	8c440014 	lw	a0,20(v0)
9d0024f8:	24840001 	addiu	a0,a0,1
9d0024fc:	14600011 	bnez	v1,9d002544 <do_scan+0x744>
9d002500:	ac440014 	sw	a0,20(v0)
9d002504:	32230400 	andi	v1,s1,0x400
9d002508:	14600129 	bnez	v1,9d0029b0 <do_scan+0xbb0>
9d00250c:	00002821 	move	a1,zero
9d002510:	32310200 	andi	s1,s1,0x200
9d002514:	8c43000c 	lw	v1,12(v0)
9d002518:	8fa400bc 	lw	a0,188(sp)
9d00251c:	24660004 	addiu	a2,v1,4
9d002520:	1220011c 	beqz	s1,9d002994 <do_scan+0xb94>
9d002524:	ac46000c 	sw	a2,12(v0)
9d002528:	0f40291d 	jal	9d00a474 <strtod>
9d00252c:	8c710000 	lw	s1,0(v1)
9d002530:	ae220000 	sw	v0,0(s1)
9d002534:	8fa200b4 	lw	v0,180(sp)
9d002538:	8c430018 	lw	v1,24(v0)
9d00253c:	24630001 	addiu	v1,v1,1
9d002540:	ac430018 	sw	v1,24(v0)
9d002544:	8fa400c0 	lw	a0,192(sp)
9d002548:	5080fe5d 	beqzl	a0,9d001ec0 <do_scan+0xc0>
9d00254c:	8fa500a0 	lw	a1,160(sp)
9d002550:	0f401e0b 	jal	9d00782c <free>
9d002554:	00000000 	nop
9d002558:	0b4007b0 	j	9d001ec0 <do_scan+0xc0>
9d00255c:	8fa500a0 	lw	a1,160(sp)
9d002560:	2417ffff 	li	s7,-1
9d002564:	2403000a 	li	v1,10
9d002568:	afa300d4 	sw	v1,212(sp)
9d00256c:	3c029d01 	lui	v0,0x9d01
9d002570:	0b40086d 	j	9d0021b4 <do_scan+0x3b4>
9d002574:	2454a390 	addiu	s4,v0,-23664
9d002578:	afa200a0 	sw	v0,160(sp)
9d00257c:	80720001 	lb	s2,1(v1)
9d002580:	0b4007f6 	j	9d001fd8 <do_scan+0x1d8>
9d002584:	36310800 	ori	s1,s1,0x800
9d002588:	afa200a0 	sw	v0,160(sp)
9d00258c:	80720001 	lb	s2,1(v1)
9d002590:	0b4007f6 	j	9d001fd8 <do_scan+0x1d8>
9d002594:	36310080 	ori	s1,s1,0x80
9d002598:	0f4027a5 	jal	9d009e94 <gsgetc>
9d00259c:	27a40098 	addiu	a0,sp,152
9d0025a0:	0040b821 	move	s7,v0
9d0025a4:	2402ffff 	li	v0,-1
9d0025a8:	12e2004f 	beq	s7,v0,9d0026e8 <do_scan+0x8e8>
9d0025ac:	8fa300d0 	lw	v1,208(sp)
9d0025b0:	2402002b 	li	v0,43
9d0025b4:	16e2010c 	bne	s7,v0,9d0029e8 <do_scan+0xbe8>
9d0025b8:	2472ffff 	addiu	s2,v1,-1
9d0025bc:	8fa200cc 	lw	v0,204(sp)
9d0025c0:	24430001 	addiu	v1,v0,1
9d0025c4:	afa300cc 	sw	v1,204(sp)
9d0025c8:	16400063 	bnez	s2,9d002758 <do_scan+0x958>
9d0025cc:	a0570000 	sb	s7,0(v0)
9d0025d0:	8fa300d4 	lw	v1,212(sp)
9d0025d4:	1060ffe2 	beqz	v1,9d002560 <do_scan+0x760>
9d0025d8:	8fb600cc 	lw	s6,204(sp)
9d0025dc:	24020010 	li	v0,16
9d0025e0:	1462feec 	bne	v1,v0,9d002194 <do_scan+0x394>
9d0025e4:	2417ffff 	li	s7,-1
9d0025e8:	24030010 	li	v1,16
9d0025ec:	afa300d4 	sw	v1,212(sp)
9d0025f0:	3c049d01 	lui	a0,0x9d01
9d0025f4:	0b40086d 	j	9d0021b4 <do_scan+0x3b4>
9d0025f8:	2494a378 	addiu	s4,a0,-23688
9d0025fc:	0f4027a5 	jal	9d009e94 <gsgetc>
9d002600:	27a40098 	addiu	a0,sp,152
9d002604:	2403ffff 	li	v1,-1
9d002608:	5043001b 	beql	v0,v1,9d002678 <do_scan+0x878>
9d00260c:	241effff 	li	s8,-1
9d002610:	5452fe4f 	bnel	v0,s2,9d001f50 <do_scan+0x150>
9d002614:	afa2009c 	sw	v0,156(sp)
9d002618:	0b4007b0 	j	9d001ec0 <do_scan+0xc0>
9d00261c:	8fa500a0 	lw	a1,160(sp)
9d002620:	12c00023 	beqz	s6,9d0026b0 <do_scan+0x8b0>
9d002624:	00000000 	nop
9d002628:	0f401eaa 	jal	9d007aa8 <strtol>
9d00262c:	00000000 	nop
9d002630:	00002021 	move	a0,zero
9d002634:	0b400887 	j	9d00221c <do_scan+0x41c>
9d002638:	00002821 	move	a1,zero
9d00263c:	a2c00000 	sb	zero,0(s6)
9d002640:	26520001 	addiu	s2,s2,1
9d002644:	afb7009c 	sw	s7,156(sp)
9d002648:	8fa200a8 	lw	v0,168(sp)
9d00264c:	2442ffff 	addiu	v0,v0,-1
9d002650:	0b40087a 	j	9d0021e8 <do_scan+0x3e8>
9d002654:	afa200a8 	sw	v0,168(sp)
9d002658:	0f4027a5 	jal	9d009e94 <gsgetc>
9d00265c:	27a40098 	addiu	a0,sp,152
9d002660:	0040b821 	move	s7,v0
9d002664:	00021027 	nor	v0,zero,v0
9d002668:	8fb600cc 	lw	s6,204(sp)
9d00266c:	0002102b 	sltu	v0,zero,v0
9d002670:	0b40086d 	j	9d0021b4 <do_scan+0x3b4>
9d002674:	02429023 	subu	s2,s2,v0
9d002678:	0b4007b0 	j	9d001ec0 <do_scan+0xc0>
9d00267c:	8fa500a0 	lw	a1,160(sp)
9d002680:	241effff 	li	s8,-1
9d002684:	00174027 	nor	t0,zero,s7
9d002688:	24020001 	li	v0,1
9d00268c:	0048f00b 	movn	s8,v0,t0
9d002690:	0b4007b0 	j	9d001ec0 <do_scan+0xc0>
9d002694:	8fa500a0 	lw	a1,160(sp)
9d002698:	0f401c07 	jal	9d00701c <strtoull>
9d00269c:	00000000 	nop
9d0026a0:	00402021 	move	a0,v0
9d0026a4:	00602821 	move	a1,v1
9d0026a8:	0b400887 	j	9d00221c <do_scan+0x41c>
9d0026ac:	00001021 	move	v0,zero
9d0026b0:	0f401d6b 	jal	9d0075ac <strtoul>
9d0026b4:	00000000 	nop
9d0026b8:	00002021 	move	a0,zero
9d0026bc:	0b400887 	j	9d00221c <do_scan+0x41c>
9d0026c0:	00002821 	move	a1,zero
9d0026c4:	24430004 	addiu	v1,v0,4
9d0026c8:	afa300a4 	sw	v1,164(sp)
9d0026cc:	8c420000 	lw	v0,0(v0)
9d0026d0:	ac440000 	sw	a0,0(v0)
9d0026d4:	0b400899 	j	9d002264 <do_scan+0x464>
9d0026d8:	ac450004 	sw	a1,4(v0)
9d0026dc:	241e0001 	li	s8,1
9d0026e0:	0b4007b0 	j	9d001ec0 <do_scan+0xc0>
9d0026e4:	8fa500a0 	lw	a1,160(sp)
9d0026e8:	8fb600cc 	lw	s6,204(sp)
9d0026ec:	0b40085e 	j	9d002178 <do_scan+0x378>
9d0026f0:	8fb200d0 	lw	s2,208(sp)
9d0026f4:	16e2ffbd 	bne	s7,v0,9d0025ec <do_scan+0x7ec>
9d0026f8:	24030010 	li	v1,16
9d0026fc:	26c20001 	addiu	v0,s6,1
9d002700:	afa200cc 	sw	v0,204(sp)
9d002704:	16400004 	bnez	s2,9d002718 <do_scan+0x918>
9d002708:	a2d70000 	sb	s7,0(s6)
9d00270c:	8fb600cc 	lw	s6,204(sp)
9d002710:	0b40097a 	j	9d0025e8 <do_scan+0x7e8>
9d002714:	2417ffff 	li	s7,-1
9d002718:	0f4027a5 	jal	9d009e94 <gsgetc>
9d00271c:	27a40098 	addiu	a0,sp,152
9d002720:	2416ffff 	li	s6,-1
9d002724:	1056fff9 	beq	v0,s6,9d00270c <do_scan+0x90c>
9d002728:	0040b821 	move	s7,v0
9d00272c:	2404ffdf 	li	a0,-33
9d002730:	00441824 	and	v1,v0,a0
9d002734:	24020058 	li	v0,88
9d002738:	146200a8 	bne	v1,v0,9d0029dc <do_scan+0xbdc>
9d00273c:	2654ffff 	addiu	s4,s2,-1
9d002740:	16800080 	bnez	s4,9d002944 <do_scan+0xb44>
9d002744:	00000000 	nop
9d002748:	8fb600cc 	lw	s6,204(sp)
9d00274c:	00009021 	move	s2,zero
9d002750:	0b40097a 	j	9d0025e8 <do_scan+0x7e8>
9d002754:	2417ffff 	li	s7,-1
9d002758:	0f4027a5 	jal	9d009e94 <gsgetc>
9d00275c:	27a40098 	addiu	a0,sp,152
9d002760:	0040b821 	move	s7,v0
9d002764:	2402ffff 	li	v0,-1
9d002768:	12e2ff9a 	beq	s7,v0,9d0025d4 <do_scan+0x7d4>
9d00276c:	8fa300d4 	lw	v1,212(sp)
9d002770:	8fb600cc 	lw	s6,204(sp)
9d002774:	8fa400d0 	lw	a0,208(sp)
9d002778:	2492fffe 	addiu	s2,a0,-2
9d00277c:	8fa300d4 	lw	v1,212(sp)
9d002780:	1460fe82 	bnez	v1,9d00218c <do_scan+0x38c>
9d002784:	24020010 	li	v0,16
9d002788:	24020030 	li	v0,48
9d00278c:	16e2ff76 	bne	s7,v0,9d002568 <do_scan+0x768>
9d002790:	2403000a 	li	v1,10
9d002794:	26c20001 	addiu	v0,s6,1
9d002798:	afa200cc 	sw	v0,204(sp)
9d00279c:	16400004 	bnez	s2,9d0027b0 <do_scan+0x9b0>
9d0027a0:	a2d70000 	sb	s7,0(s6)
9d0027a4:	2417ffff 	li	s7,-1
9d0027a8:	0b400869 	j	9d0021a4 <do_scan+0x3a4>
9d0027ac:	8fb600cc 	lw	s6,204(sp)
9d0027b0:	0f4027a5 	jal	9d009e94 <gsgetc>
9d0027b4:	27a40098 	addiu	a0,sp,152
9d0027b8:	2416ffff 	li	s6,-1
9d0027bc:	1056fff9 	beq	v0,s6,9d0027a4 <do_scan+0x9a4>
9d0027c0:	0040b821 	move	s7,v0
9d0027c4:	2404ffdf 	li	a0,-33
9d0027c8:	00441824 	and	v1,v0,a0
9d0027cc:	24020058 	li	v0,88
9d0027d0:	1062ffdb 	beq	v1,v0,9d002740 <do_scan+0x940>
9d0027d4:	2654ffff 	addiu	s4,s2,-1
9d0027d8:	02809021 	move	s2,s4
9d0027dc:	0b400869 	j	9d0021a4 <do_scan+0x3a4>
9d0027e0:	8fb600cc 	lw	s6,204(sp)
9d0027e4:	32230200 	andi	v1,s1,0x200
9d0027e8:	10600010 	beqz	v1,9d00282c <do_scan+0xa2c>
9d0027ec:	32230100 	andi	v1,s1,0x100
9d0027f0:	8fa300a4 	lw	v1,164(sp)
9d0027f4:	24640004 	addiu	a0,v1,4
9d0027f8:	afa400a4 	sw	a0,164(sp)
9d0027fc:	8c630000 	lw	v1,0(v1)
9d002800:	ac620000 	sw	v0,0(v1)
9d002804:	0b4007b0 	j	9d001ec0 <do_scan+0xc0>
9d002808:	8fa500a0 	lw	a1,160(sp)
9d00280c:	10600010 	beqz	v1,9d002850 <do_scan+0xa50>
9d002810:	32310080 	andi	s1,s1,0x80
9d002814:	8fa300a4 	lw	v1,164(sp)
9d002818:	24640004 	addiu	a0,v1,4
9d00281c:	afa400a4 	sw	a0,164(sp)
9d002820:	8c630000 	lw	v1,0(v1)
9d002824:	0b400899 	j	9d002264 <do_scan+0x464>
9d002828:	a4620000 	sh	v0,0(v1)
9d00282c:	1060003d 	beqz	v1,9d002924 <do_scan+0xb24>
9d002830:	32310080 	andi	s1,s1,0x80
9d002834:	8fa300a4 	lw	v1,164(sp)
9d002838:	24640004 	addiu	a0,v1,4
9d00283c:	afa400a4 	sw	a0,164(sp)
9d002840:	8c630000 	lw	v1,0(v1)
9d002844:	a4620000 	sh	v0,0(v1)
9d002848:	0b4007b0 	j	9d001ec0 <do_scan+0xc0>
9d00284c:	8fa500a0 	lw	a1,160(sp)
9d002850:	8fa300a4 	lw	v1,164(sp)
9d002854:	24640004 	addiu	a0,v1,4
9d002858:	afa400a4 	sw	a0,164(sp)
9d00285c:	1220002f 	beqz	s1,9d00291c <do_scan+0xb1c>
9d002860:	8c630000 	lw	v1,0(v1)
9d002864:	0b400899 	j	9d002264 <do_scan+0x464>
9d002868:	a0620000 	sb	v0,0(v1)
9d00286c:	0f4027a5 	jal	9d009e94 <gsgetc>
9d002870:	27a40098 	addiu	a0,sp,152
9d002874:	0040b021 	move	s6,v0
9d002878:	2402ffff 	li	v0,-1
9d00287c:	52c2fef4 	beql	s6,v0,9d002450 <do_scan+0x650>
9d002880:	3c049d01 	lui	a0,0x9d01
9d002884:	8fa200b8 	lw	v0,184(sp)
9d002888:	2442ffff 	addiu	v0,v0,-1
9d00288c:	afa200b8 	sw	v0,184(sp)
9d002890:	2402002b 	li	v0,43
9d002894:	56c20059 	bnel	s6,v0,9d0029fc <do_scan+0xbfc>
9d002898:	2402002d 	li	v0,45
9d00289c:	27b200b4 	addiu	s2,sp,180
9d0028a0:	02407821 	move	t7,s2
9d0028a4:	0f4022be 	jal	9d008af8 <putget.2780>
9d0028a8:	02c02021 	move	a0,s6
9d0028ac:	0040b021 	move	s6,v0
9d0028b0:	24420001 	addiu	v0,v0,1
9d0028b4:	3c049d01 	lui	a0,0x9d01
9d0028b8:	24838c04 	addiu	v1,a0,-29692
9d0028bc:	00621021 	addu	v0,v1,v0
9d0028c0:	0b40091d 	j	9d002474 <do_scan+0x674>
9d0028c4:	24140001 	li	s4,1
9d0028c8:	0b400951 	j	9d002544 <do_scan+0x744>
9d0028cc:	241e0001 	li	s8,1
9d0028d0:	0f4022be 	jal	9d008af8 <putget.2780>
9d0028d4:	02c02021 	move	a0,s6
9d0028d8:	0040b021 	move	s6,v0
9d0028dc:	2402002d 	li	v0,45
9d0028e0:	12c20003 	beq	s6,v0,9d0028f0 <do_scan+0xaf0>
9d0028e4:	2402002b 	li	v0,43
9d0028e8:	16c20006 	bne	s6,v0,9d002904 <do_scan+0xb04>
9d0028ec:	02161021 	addu	v0,s0,s6
9d0028f0:	02407821 	move	t7,s2
9d0028f4:	0f4022be 	jal	9d008af8 <putget.2780>
9d0028f8:	02c02021 	move	a0,s6
9d0028fc:	0040b021 	move	s6,v0
9d002900:	02161021 	addu	v0,s0,s6
9d002904:	90420000 	lbu	v0,0(v0)
9d002908:	30420004 	andi	v0,v0,0x4
9d00290c:	1440fff9 	bnez	v0,9d0028f4 <do_scan+0xaf4>
9d002910:	02407821 	move	t7,s2
9d002914:	0b40092c 	j	9d0024b0 <do_scan+0x6b0>
9d002918:	00000000 	nop
9d00291c:	0b400899 	j	9d002264 <do_scan+0x464>
9d002920:	ac620000 	sw	v0,0(v1)
9d002924:	8fa300a4 	lw	v1,164(sp)
9d002928:	24640004 	addiu	a0,v1,4
9d00292c:	afa400a4 	sw	a0,164(sp)
9d002930:	1220001c 	beqz	s1,9d0029a4 <do_scan+0xba4>
9d002934:	8c630000 	lw	v1,0(v1)
9d002938:	a0620000 	sb	v0,0(v1)
9d00293c:	0b4007b0 	j	9d001ec0 <do_scan+0xc0>
9d002940:	8fa500a0 	lw	a1,160(sp)
9d002944:	0f4027a5 	jal	9d009e94 <gsgetc>
9d002948:	27a40098 	addiu	a0,sp,152
9d00294c:	10560023 	beq	v0,s6,9d0029dc <do_scan+0xbdc>
9d002950:	0040b821 	move	s7,v0
9d002954:	2652fffe 	addiu	s2,s2,-2
9d002958:	0b40097a 	j	9d0025e8 <do_scan+0x7e8>
9d00295c:	8fb600cc 	lw	s6,204(sp)
9d002960:	0b400a5b 	j	9d00296c <do_scan+0xb6c>
9d002964:	2404002e 	li	a0,46
9d002968:	02c02021 	move	a0,s6
9d00296c:	0f4022be 	jal	9d008af8 <putget.2780>
9d002970:	00000000 	nop
9d002974:	0040b021 	move	s6,v0
9d002978:	02021021 	addu	v0,s0,v0
9d00297c:	90420000 	lbu	v0,0(v0)
9d002980:	30420004 	andi	v0,v0,0x4
9d002984:	1440fff8 	bnez	v0,9d002968 <do_scan+0xb68>
9d002988:	02407821 	move	t7,s2
9d00298c:	0b400924 	j	9d002490 <do_scan+0x690>
9d002990:	8fa200c8 	lw	v0,200(sp)
9d002994:	0f40294e 	jal	9d00a538 <strtof>
9d002998:	8c710000 	lw	s1,0(v1)
9d00299c:	0b40094d 	j	9d002534 <do_scan+0x734>
9d0029a0:	ae220000 	sw	v0,0(s1)
9d0029a4:	ac620000 	sw	v0,0(v1)
9d0029a8:	0b4007b0 	j	9d001ec0 <do_scan+0xc0>
9d0029ac:	8fa500a0 	lw	a1,160(sp)
9d0029b0:	8c43000c 	lw	v1,12(v0)
9d0029b4:	8fa400bc 	lw	a0,188(sp)
9d0029b8:	24660004 	addiu	a2,v1,4
9d0029bc:	ac46000c 	sw	a2,12(v0)
9d0029c0:	0f40291d 	jal	9d00a474 <strtod>
9d0029c4:	8c710000 	lw	s1,0(v1)
9d0029c8:	0f4025ad 	jal	9d0096b4 <__extendsfdf2>
9d0029cc:	00402021 	move	a0,v0
9d0029d0:	ae220000 	sw	v0,0(s1)
9d0029d4:	0b40094d 	j	9d002534 <do_scan+0x734>
9d0029d8:	ae230004 	sw	v1,4(s1)
9d0029dc:	8fb600cc 	lw	s6,204(sp)
9d0029e0:	0b40097a 	j	9d0025e8 <do_scan+0x7e8>
9d0029e4:	02809021 	move	s2,s4
9d0029e8:	2402002d 	li	v0,45
9d0029ec:	12e2fef4 	beq	s7,v0,9d0025c0 <do_scan+0x7c0>
9d0029f0:	8fa200cc 	lw	v0,204(sp)
9d0029f4:	0b4009df 	j	9d00277c <do_scan+0x97c>
9d0029f8:	8fb600cc 	lw	s6,204(sp)
9d0029fc:	52c2ffa8 	beql	s6,v0,9d0028a0 <do_scan+0xaa0>
9d002a00:	27b200b4 	addiu	s2,sp,180
9d002a04:	26c20001 	addiu	v0,s6,1
9d002a08:	3c049d01 	lui	a0,0x9d01
9d002a0c:	24838c04 	addiu	v1,a0,-29692
9d002a10:	0b400916 	j	9d002458 <do_scan+0x658>
9d002a14:	00621021 	addu	v0,v1,v0

Disassembly of section .text._do_print_cdnopuxX:

9d002a18 <_do_print_cdnopuxX>:
9d002a18:	27bdff68 	addiu	sp,sp,-152
9d002a1c:	afbf0094 	sw	ra,148(sp)
9d002a20:	afbe0090 	sw	s8,144(sp)
9d002a24:	afb7008c 	sw	s7,140(sp)
9d002a28:	afb60088 	sw	s6,136(sp)
9d002a2c:	afb50084 	sw	s5,132(sp)
9d002a30:	afb40080 	sw	s4,128(sp)
9d002a34:	afb3007c 	sw	s3,124(sp)
9d002a38:	afb20078 	sw	s2,120(sp)
9d002a3c:	afb10074 	sw	s1,116(sp)
9d002a40:	afb00070 	sw	s0,112(sp)
9d002a44:	afa40098 	sw	a0,152(sp)
9d002a48:	8c820018 	lw	v0,24(a0)
9d002a4c:	00a09021 	move	s2,a1
9d002a50:	24050001 	li	a1,1
9d002a54:	8c420010 	lw	v0,16(v0)
9d002a58:	0040f809 	jalr	v0
9d002a5c:	afa600a0 	sw	a2,160(sp)
9d002a60:	104001bd 	beqz	v0,9d003158 <_do_print_cdnopuxX+0x740>
9d002a64:	27a20058 	addiu	v0,sp,88
9d002a68:	afa00060 	sw	zero,96(sp)
9d002a6c:	afa20058 	sw	v0,88(sp)
9d002a70:	82440000 	lb	a0,0(s2)
9d002a74:	1080000d 	beqz	a0,9d002aac <_do_print_cdnopuxX+0x94>
9d002a78:	26500001 	addiu	s0,s2,1
9d002a7c:	24020025 	li	v0,37
9d002a80:	5082001c 	beql	a0,v0,9d002af4 <_do_print_cdnopuxX+0xdc>
9d002a84:	82420001 	lb	v0,1(s2)
9d002a88:	0f402582 	jal	9d009608 <fputc>
9d002a8c:	8fa50098 	lw	a1,152(sp)
9d002a90:	8fa30060 	lw	v1,96(sp)
9d002a94:	24630001 	addiu	v1,v1,1
9d002a98:	afa30060 	sw	v1,96(sp)
9d002a9c:	02009021 	move	s2,s0
9d002aa0:	82440000 	lb	a0,0(s2)
9d002aa4:	1480fff5 	bnez	a0,9d002a7c <_do_print_cdnopuxX+0x64>
9d002aa8:	26500001 	addiu	s0,s2,1
9d002aac:	8fa40098 	lw	a0,152(sp)
9d002ab0:	94820010 	lhu	v0,16(a0)
9d002ab4:	30420040 	andi	v0,v0,0x40
9d002ab8:	144001a8 	bnez	v0,9d00315c <_do_print_cdnopuxX+0x744>
9d002abc:	2402ffff 	li	v0,-1
9d002ac0:	8fa20060 	lw	v0,96(sp)
9d002ac4:	8fbf0094 	lw	ra,148(sp)
9d002ac8:	8fbe0090 	lw	s8,144(sp)
9d002acc:	8fb7008c 	lw	s7,140(sp)
9d002ad0:	8fb60088 	lw	s6,136(sp)
9d002ad4:	8fb50084 	lw	s5,132(sp)
9d002ad8:	8fb40080 	lw	s4,128(sp)
9d002adc:	8fb3007c 	lw	s3,124(sp)
9d002ae0:	8fb20078 	lw	s2,120(sp)
9d002ae4:	8fb10074 	lw	s1,116(sp)
9d002ae8:	8fb00070 	lw	s0,112(sp)
9d002aec:	03e00008 	jr	ra
9d002af0:	27bd0098 	addiu	sp,sp,152
9d002af4:	10440177 	beq	v0,a0,9d0030d4 <_do_print_cdnopuxX+0x6bc>
9d002af8:	0000b821 	move	s7,zero
9d002afc:	2403002d 	li	v1,45
9d002b00:	2404002b 	li	a0,43
9d002b04:	24050020 	li	a1,32
9d002b08:	24060023 	li	a2,35
9d002b0c:	1043000e 	beq	v0,v1,9d002b48 <_do_print_cdnopuxX+0x130>
9d002b10:	24070030 	li	a3,48
9d002b14:	50440010 	beql	v0,a0,9d002b58 <_do_print_cdnopuxX+0x140>
9d002b18:	36f70002 	ori	s7,s7,0x2
9d002b1c:	50450011 	beql	v0,a1,9d002b64 <_do_print_cdnopuxX+0x14c>
9d002b20:	36f70001 	ori	s7,s7,0x1
9d002b24:	50460012 	beql	v0,a2,9d002b70 <_do_print_cdnopuxX+0x158>
9d002b28:	36f70800 	ori	s7,s7,0x800
9d002b2c:	54470013 	bnel	v0,a3,9d002b7c <_do_print_cdnopuxX+0x164>
9d002b30:	2403002a 	li	v1,42
9d002b34:	36f70004 	ori	s7,s7,0x4
9d002b38:	26100001 	addiu	s0,s0,1
9d002b3c:	82020000 	lb	v0,0(s0)
9d002b40:	1443fff4 	bne	v0,v1,9d002b14 <_do_print_cdnopuxX+0xfc>
9d002b44:	00000000 	nop
9d002b48:	36f70008 	ori	s7,s7,0x8
9d002b4c:	26100001 	addiu	s0,s0,1
9d002b50:	0b400ad0 	j	9d002b40 <_do_print_cdnopuxX+0x128>
9d002b54:	82020000 	lb	v0,0(s0)
9d002b58:	26100001 	addiu	s0,s0,1
9d002b5c:	0b400ad0 	j	9d002b40 <_do_print_cdnopuxX+0x128>
9d002b60:	82020000 	lb	v0,0(s0)
9d002b64:	26100001 	addiu	s0,s0,1
9d002b68:	0b400ad0 	j	9d002b40 <_do_print_cdnopuxX+0x128>
9d002b6c:	82020000 	lb	v0,0(s0)
9d002b70:	26100001 	addiu	s0,s0,1
9d002b74:	0b400ad0 	j	9d002b40 <_do_print_cdnopuxX+0x128>
9d002b78:	82020000 	lb	v0,0(s0)
9d002b7c:	104300fe 	beq	v0,v1,9d002f78 <_do_print_cdnopuxX+0x560>
9d002b80:	02002021 	move	a0,s0
9d002b84:	2443ffd0 	addiu	v1,v0,-48
9d002b88:	2c63000a 	sltiu	v1,v1,10
9d002b8c:	1060000b 	beqz	v1,9d002bbc <_do_print_cdnopuxX+0x1a4>
9d002b90:	0000b021 	move	s6,zero
9d002b94:	00161840 	sll	v1,s6,0x1
9d002b98:	001650c0 	sll	t2,s6,0x3
9d002b9c:	006a5021 	addu	t2,v1,t2
9d002ba0:	26100001 	addiu	s0,s0,1
9d002ba4:	01425021 	addu	t2,t2,v0
9d002ba8:	82020000 	lb	v0,0(s0)
9d002bac:	2443ffd0 	addiu	v1,v0,-48
9d002bb0:	2c63000a 	sltiu	v1,v1,10
9d002bb4:	1460fff7 	bnez	v1,9d002b94 <_do_print_cdnopuxX+0x17c>
9d002bb8:	2556ffd0 	addiu	s6,t2,-48
9d002bbc:	2403002e 	li	v1,46
9d002bc0:	104300f9 	beq	v0,v1,9d002fa8 <_do_print_cdnopuxX+0x590>
9d002bc4:	241effff 	li	s8,-1
9d002bc8:	24030068 	li	v1,104
9d002bcc:	5043010c 	beql	v0,v1,9d003000 <_do_print_cdnopuxX+0x5e8>
9d002bd0:	82030001 	lb	v1,1(s0)
9d002bd4:	2403006c 	li	v1,108
9d002bd8:	1043011a 	beq	v0,v1,9d003044 <_do_print_cdnopuxX+0x62c>
9d002bdc:	24030071 	li	v1,113
9d002be0:	10430144 	beq	v0,v1,9d0030f4 <_do_print_cdnopuxX+0x6dc>
9d002be4:	32e40002 	andi	a0,s7,0x2
9d002be8:	32e3fffe 	andi	v1,s7,0xfffe
9d002bec:	0064b80b 	movn	s7,v1,a0
9d002bf0:	2442ffbc 	addiu	v0,v0,-68
9d002bf4:	32e50008 	andi	a1,s7,0x8
9d002bf8:	32e4fffb 	andi	a0,s7,0xfffb
9d002bfc:	2c430035 	sltiu	v1,v0,53
9d002c00:	26120001 	addiu	s2,s0,1
9d002c04:	1060010d 	beqz	v1,9d00303c <_do_print_cdnopuxX+0x624>
9d002c08:	0085b80b 	movn	s7,a0,a1
9d002c0c:	00021080 	sll	v0,v0,0x2
9d002c10:	3c049d00 	lui	a0,0x9d00
9d002c14:	24842c28 	addiu	a0,a0,11304
9d002c18:	00821021 	addu	v0,a0,v0
9d002c1c:	8c420000 	lw	v0,0(v0)
9d002c20:	00400008 	jr	v0
9d002c24:	00000000 	nop
9d002c28:	9d002ef0 	0x9d002ef0
9d002c2c:	9d00303c 	0x9d00303c
9d002c30:	9d00303c 	0x9d00303c
9d002c34:	9d00303c 	0x9d00303c
9d002c38:	9d00303c 	0x9d00303c
9d002c3c:	9d00303c 	0x9d00303c
9d002c40:	9d00303c 	0x9d00303c
9d002c44:	9d00303c 	0x9d00303c
9d002c48:	9d00303c 	0x9d00303c
9d002c4c:	9d00303c 	0x9d00303c
9d002c50:	9d00303c 	0x9d00303c
9d002c54:	9d0032b4 	0x9d0032b4
9d002c58:	9d002e94 	0x9d002e94
9d002c5c:	9d00303c 	0x9d00303c
9d002c60:	9d00303c 	0x9d00303c
9d002c64:	9d00303c 	0x9d00303c
9d002c68:	9d00303c 	0x9d00303c
9d002c6c:	9d002cfc 	0x9d002cfc
9d002c70:	9d00303c 	0x9d00303c
9d002c74:	9d00303c 	0x9d00303c
9d002c78:	9d002f04 	0x9d002f04
9d002c7c:	9d00303c 	0x9d00303c
9d002c80:	9d00303c 	0x9d00303c
9d002c84:	9d00303c 	0x9d00303c
9d002c88:	9d00303c 	0x9d00303c
9d002c8c:	9d00303c 	0x9d00303c
9d002c90:	9d00303c 	0x9d00303c
9d002c94:	9d00303c 	0x9d00303c
9d002c98:	9d00303c 	0x9d00303c
9d002c9c:	9d00303c 	0x9d00303c
9d002ca0:	9d00303c 	0x9d00303c
9d002ca4:	9d003280 	0x9d003280
9d002ca8:	9d002ef4 	0x9d002ef4
9d002cac:	9d00303c 	0x9d00303c
9d002cb0:	9d00303c 	0x9d00303c
9d002cb4:	9d00303c 	0x9d00303c
9d002cb8:	9d00303c 	0x9d00303c
9d002cbc:	9d002ef4 	0x9d002ef4
9d002cc0:	9d00303c 	0x9d00303c
9d002cc4:	9d00303c 	0x9d00303c
9d002cc8:	9d00303c 	0x9d00303c
9d002ccc:	9d00303c 	0x9d00303c
9d002cd0:	9d0031c4 	0x9d0031c4
9d002cd4:	9d0031bc 	0x9d0031bc
9d002cd8:	9d002e98 	0x9d002e98
9d002cdc:	9d00303c 	0x9d00303c
9d002ce0:	9d00303c 	0x9d00303c
9d002ce4:	9d00320c 	0x9d00320c
9d002ce8:	9d00303c 	0x9d00303c
9d002cec:	9d002d00 	0x9d002d00
9d002cf0:	9d00303c 	0x9d00303c
9d002cf4:	9d00303c 	0x9d00303c
9d002cf8:	9d002f08 	0x9d002f08
9d002cfc:	36f70010 	ori	s7,s7,0x10
9d002d00:	32f7f7ff 	andi	s7,s7,0xf7ff
9d002d04:	2410000a 	li	s0,10
9d002d08:	2402ffff 	li	v0,-1
9d002d0c:	13c20067 	beq	s8,v0,9d002eac <_do_print_cdnopuxX+0x494>
9d002d10:	00002821 	move	a1,zero
9d002d14:	32f7fffb 	andi	s7,s7,0xfffb
9d002d18:	27c5ffff 	addiu	a1,s8,-1
9d002d1c:	32e200c0 	andi	v0,s7,0xc0
9d002d20:	10400066 	beqz	v0,9d002ebc <_do_print_cdnopuxX+0x4a4>
9d002d24:	afa20064 	sw	v0,100(sp)
9d002d28:	7c171620 	seh	v0,s7
9d002d2c:	04400182 	bltz	v0,9d003338 <_do_print_cdnopuxX+0x920>
9d002d30:	32e20010 	andi	v0,s7,0x10
9d002d34:	104000f3 	beqz	v0,9d003104 <_do_print_cdnopuxX+0x6ec>
9d002d38:	32e20041 	andi	v0,s7,0x41
9d002d3c:	8fa400a0 	lw	a0,160(sp)
9d002d40:	8c950000 	lw	s5,0(a0)
9d002d44:	24840004 	addiu	a0,a0,4
9d002d48:	afa400a0 	sw	a0,160(sp)
9d002d4c:	0015a7c3 	sra	s4,s5,0x1f
9d002d50:	02801021 	move	v0,s4
9d002d54:	0440010d 	bltz	v0,9d00318c <_do_print_cdnopuxX+0x774>
9d002d58:	02a01821 	move	v1,s5
9d002d5c:	afa0006c 	sw	zero,108(sp)
9d002d60:	128000bf 	beqz	s4,9d003060 <_do_print_cdnopuxX+0x648>
9d002d64:	02b41025 	or	v0,s5,s4
9d002d68:	10400195 	beqz	v0,9d0033c0 <_do_print_cdnopuxX+0x9a8>
9d002d6c:	27a20057 	addiu	v0,sp,87
9d002d70:	afa20068 	sw	v0,104(sp)
9d002d74:	32e30020 	andi	v1,s7,0x20
9d002d78:	24040037 	li	a0,55
9d002d7c:	00108fc3 	sra	s1,s0,0x1f
9d002d80:	00409821 	move	s3,v0
9d002d84:	24020057 	li	v0,87
9d002d88:	0043200a 	movz	a0,v0,v1
9d002d8c:	afa4005c 	sw	a0,92(sp)
9d002d90:	02a02021 	move	a0,s5
9d002d94:	02802821 	move	a1,s4
9d002d98:	02003021 	move	a2,s0
9d002d9c:	0f40144a 	jal	9d005128 <__umoddi3>
9d002da0:	02203821 	move	a3,s1
9d002da4:	2843000a 	slti	v1,v0,10
9d002da8:	24460030 	addiu	a2,v0,48
9d002dac:	8fa4005c 	lw	a0,92(sp)
9d002db0:	00441021 	addu	v0,v0,a0
9d002db4:	0043300a 	movz	a2,v0,v1
9d002db8:	2673ffff 	addiu	s3,s3,-1
9d002dbc:	02a02021 	move	a0,s5
9d002dc0:	02802821 	move	a1,s4
9d002dc4:	a2660001 	sb	a2,1(s3)
9d002dc8:	02003021 	move	a2,s0
9d002dcc:	0f401563 	jal	9d00558c <.LFE1>
9d002dd0:	02203821 	move	a3,s1
9d002dd4:	00622025 	or	a0,v1,v0
9d002dd8:	0040a821 	move	s5,v0
9d002ddc:	0060a021 	move	s4,v1
9d002de0:	1480ffeb 	bnez	a0,9d002d90 <_do_print_cdnopuxX+0x378>
9d002de4:	27deffff 	addiu	s8,s8,-1
9d002de8:	27c5ffff 	addiu	a1,s8,-1
9d002dec:	04a0000a 	bltz	a1,9d002e18 <_do_print_cdnopuxX+0x400>
9d002df0:	02601021 	move	v0,s3
9d002df4:	2664ffff 	addiu	a0,s3,-1
9d002df8:	00852023 	subu	a0,a0,a1
9d002dfc:	24030030 	li	v1,48
9d002e00:	a0430000 	sb	v1,0(v0)
9d002e04:	2442ffff 	addiu	v0,v0,-1
9d002e08:	5444fffe 	bnel	v0,a0,9d002e04 <_do_print_cdnopuxX+0x3ec>
9d002e0c:	a0430000 	sb	v1,0(v0)
9d002e10:	00052827 	nor	a1,zero,a1
9d002e14:	02659821 	addu	s3,s3,a1
9d002e18:	32e20004 	andi	v0,s7,0x4
9d002e1c:	1440003c 	bnez	v0,9d002f10 <_do_print_cdnopuxX+0x4f8>
9d002e20:	32e40800 	andi	a0,s7,0x800
9d002e24:	3084ffff 	andi	a0,a0,0xffff
9d002e28:	50800007 	beqzl	a0,9d002e48 <_do_print_cdnopuxX+0x430>
9d002e2c:	8fa30064 	lw	v1,100(sp)
9d002e30:	24020008 	li	v0,8
9d002e34:	12020131 	beq	s0,v0,9d0032fc <_do_print_cdnopuxX+0x8e4>
9d002e38:	24020010 	li	v0,16
9d002e3c:	12020158 	beq	s0,v0,9d0033a0 <_do_print_cdnopuxX+0x988>
9d002e40:	32e40020 	andi	a0,s7,0x20
9d002e44:	8fa30064 	lw	v1,100(sp)
9d002e48:	10600007 	beqz	v1,9d002e68 <_do_print_cdnopuxX+0x450>
9d002e4c:	8fa4006c 	lw	a0,108(sp)
9d002e50:	1480009c 	bnez	a0,9d0030c4 <_do_print_cdnopuxX+0x6ac>
9d002e54:	32e20002 	andi	v0,s7,0x2
9d002e58:	10400003 	beqz	v0,9d002e68 <_do_print_cdnopuxX+0x450>
9d002e5c:	2402002b 	li	v0,43
9d002e60:	a2620000 	sb	v0,0(s3)
9d002e64:	2673ffff 	addiu	s3,s3,-1
9d002e68:	26650001 	addiu	a1,s3,1
9d002e6c:	afb70010 	sw	s7,16(sp)
9d002e70:	8fa40098 	lw	a0,152(sp)
9d002e74:	8fa20058 	lw	v0,88(sp)
9d002e78:	00453023 	subu	a2,v0,a1
9d002e7c:	0f402222 	jal	9d008888 <.LFE2>
9d002e80:	02c03821 	move	a3,s6
9d002e84:	8fa30060 	lw	v1,96(sp)
9d002e88:	00621821 	addu	v1,v1,v0
9d002e8c:	0b400a9c 	j	9d002a70 <_do_print_cdnopuxX+0x58>
9d002e90:	afa30060 	sw	v1,96(sp)
9d002e94:	36f70020 	ori	s7,s7,0x20
9d002e98:	36f70810 	ori	s7,s7,0x810
9d002e9c:	2402ffff 	li	v0,-1
9d002ea0:	17c2ff9c 	bne	s8,v0,9d002d14 <_do_print_cdnopuxX+0x2fc>
9d002ea4:	24100010 	li	s0,16
9d002ea8:	00002821 	move	a1,zero
9d002eac:	241e0001 	li	s8,1
9d002eb0:	32e200c0 	andi	v0,s7,0xc0
9d002eb4:	1440ff9c 	bnez	v0,9d002d28 <_do_print_cdnopuxX+0x310>
9d002eb8:	afa20064 	sw	v0,100(sp)
9d002ebc:	7c171620 	seh	v0,s7
9d002ec0:	04400115 	bltz	v0,9d003318 <_do_print_cdnopuxX+0x900>
9d002ec4:	8fa400a0 	lw	a0,160(sp)
9d002ec8:	32e20010 	andi	v0,s7,0x10
9d002ecc:	50400099 	beqzl	v0,9d003134 <_do_print_cdnopuxX+0x71c>
9d002ed0:	32e20041 	andi	v0,s7,0x41
9d002ed4:	8fa400a0 	lw	a0,160(sp)
9d002ed8:	8c950000 	lw	s5,0(a0)
9d002edc:	0000a021 	move	s4,zero
9d002ee0:	24840004 	addiu	a0,a0,4
9d002ee4:	afa400a0 	sw	a0,160(sp)
9d002ee8:	0b400b58 	j	9d002d60 <_do_print_cdnopuxX+0x348>
9d002eec:	afa0006c 	sw	zero,108(sp)
9d002ef0:	36f70010 	ori	s7,s7,0x10
9d002ef4:	32e8f7ff 	andi	t0,s7,0xf7ff
9d002ef8:	351700c0 	ori	s7,t0,0xc0
9d002efc:	0b400b42 	j	9d002d08 <_do_print_cdnopuxX+0x2f0>
9d002f00:	2410000a 	li	s0,10
9d002f04:	36f70020 	ori	s7,s7,0x20
9d002f08:	0b400b42 	j	9d002d08 <_do_print_cdnopuxX+0x2f0>
9d002f0c:	24100010 	li	s0,16
9d002f10:	8fa20068 	lw	v0,104(sp)
9d002f14:	02621823 	subu	v1,s3,v0
9d002f18:	3084ffff 	andi	a0,a0,0xffff
9d002f1c:	10800006 	beqz	a0,9d002f38 <_do_print_cdnopuxX+0x520>
9d002f20:	02c31821 	addu	v1,s6,v1
9d002f24:	24020008 	li	v0,8
9d002f28:	1202012d 	beq	s0,v0,9d0033e0 <_do_print_cdnopuxX+0x9c8>
9d002f2c:	2462fffe 	addiu	v0,v1,-2
9d002f30:	3a050010 	xori	a1,s0,0x10
9d002f34:	0045180a 	movz	v1,v0,a1
9d002f38:	8fa20064 	lw	v0,100(sp)
9d002f3c:	10400004 	beqz	v0,9d002f50 <_do_print_cdnopuxX+0x538>
9d002f40:	8fa2006c 	lw	v0,108(sp)
9d002f44:	10400099 	beqz	v0,9d0031ac <_do_print_cdnopuxX+0x794>
9d002f48:	32e20003 	andi	v0,s7,0x3
9d002f4c:	2463ffff 	addiu	v1,v1,-1
9d002f50:	1860ffb5 	blez	v1,9d002e28 <_do_print_cdnopuxX+0x410>
9d002f54:	02601021 	move	v0,s3
9d002f58:	02634823 	subu	t1,s3,v1
9d002f5c:	24030030 	li	v1,48
9d002f60:	a0430000 	sb	v1,0(v0)
9d002f64:	2442ffff 	addiu	v0,v0,-1
9d002f68:	5522fffe 	bnel	t1,v0,9d002f64 <_do_print_cdnopuxX+0x54c>
9d002f6c:	a0430000 	sb	v1,0(v0)
9d002f70:	0b400b8a 	j	9d002e28 <_do_print_cdnopuxX+0x410>
9d002f74:	01209821 	move	s3,t1
9d002f78:	8fa200a0 	lw	v0,160(sp)
9d002f7c:	8c560000 	lw	s6,0(v0)
9d002f80:	24550004 	addiu	s5,v0,4
9d002f84:	26100001 	addiu	s0,s0,1
9d002f88:	06c10003 	bgez	s6,9d002f98 <_do_print_cdnopuxX+0x580>
9d002f8c:	80820001 	lb	v0,1(a0)
9d002f90:	36f70008 	ori	s7,s7,0x8
9d002f94:	0016b023 	negu	s6,s6
9d002f98:	afb500a0 	sw	s5,160(sp)
9d002f9c:	2403002e 	li	v1,46
9d002fa0:	1443ff09 	bne	v0,v1,9d002bc8 <_do_print_cdnopuxX+0x1b0>
9d002fa4:	241effff 	li	s8,-1
9d002fa8:	82020001 	lb	v0,1(s0)
9d002fac:	2403002a 	li	v1,42
9d002fb0:	104300ed 	beq	v0,v1,9d003368 <_do_print_cdnopuxX+0x950>
9d002fb4:	2443ffd0 	addiu	v1,v0,-48
9d002fb8:	2c63000a 	sltiu	v1,v1,10
9d002fbc:	26100001 	addiu	s0,s0,1
9d002fc0:	1060ff01 	beqz	v1,9d002bc8 <_do_print_cdnopuxX+0x1b0>
9d002fc4:	0000f021 	move	s8,zero
9d002fc8:	001e1840 	sll	v1,s8,0x1
9d002fcc:	001e58c0 	sll	t3,s8,0x3
9d002fd0:	006b5821 	addu	t3,v1,t3
9d002fd4:	26100001 	addiu	s0,s0,1
9d002fd8:	01625821 	addu	t3,t3,v0
9d002fdc:	82020000 	lb	v0,0(s0)
9d002fe0:	2443ffd0 	addiu	v1,v0,-48
9d002fe4:	2c63000a 	sltiu	v1,v1,10
9d002fe8:	1460fff7 	bnez	v1,9d002fc8 <_do_print_cdnopuxX+0x5b0>
9d002fec:	257effd0 	addiu	s8,t3,-48
9d002ff0:	24030068 	li	v1,104
9d002ff4:	1443fef8 	bne	v0,v1,9d002bd8 <_do_print_cdnopuxX+0x1c0>
9d002ff8:	2403006c 	li	v1,108
9d002ffc:	82030001 	lb	v1,1(s0)
9d003000:	506200e3 	beql	v1,v0,9d003390 <_do_print_cdnopuxX+0x978>
9d003004:	82020002 	lb	v0,2(s0)
9d003008:	36f70040 	ori	s7,s7,0x40
9d00300c:	00601021 	move	v0,v1
9d003010:	26100001 	addiu	s0,s0,1
9d003014:	32e40002 	andi	a0,s7,0x2
9d003018:	32e3fffe 	andi	v1,s7,0xfffe
9d00301c:	0064b80b 	movn	s7,v1,a0
9d003020:	2442ffbc 	addiu	v0,v0,-68
9d003024:	32e50008 	andi	a1,s7,0x8
9d003028:	32e4fffb 	andi	a0,s7,0xfffb
9d00302c:	2c430035 	sltiu	v1,v0,53
9d003030:	26120001 	addiu	s2,s0,1
9d003034:	1460fef5 	bnez	v1,9d002c0c <_do_print_cdnopuxX+0x1f4>
9d003038:	0085b80b 	movn	s7,a0,a1
9d00303c:	0b400ba1 	j	9d002e84 <_do_print_cdnopuxX+0x46c>
9d003040:	00001021 	move	v0,zero
9d003044:	82030001 	lb	v1,1(s0)
9d003048:	506200e1 	beql	v1,v0,9d0033d0 <_do_print_cdnopuxX+0x9b8>
9d00304c:	82020002 	lb	v0,2(s0)
9d003050:	36f70010 	ori	s7,s7,0x10
9d003054:	00601021 	move	v0,v1
9d003058:	0b400c05 	j	9d003014 <_do_print_cdnopuxX+0x5fc>
9d00305c:	26100001 	addiu	s0,s0,1
9d003060:	12a000d7 	beqz	s5,9d0033c0 <_do_print_cdnopuxX+0x9a8>
9d003064:	02a06821 	move	t5,s5
9d003068:	27a30057 	addiu	v1,sp,87
9d00306c:	afa30068 	sw	v1,104(sp)
9d003070:	32e30020 	andi	v1,s7,0x20
9d003074:	24050037 	li	a1,55
9d003078:	8fb30068 	lw	s3,104(sp)
9d00307c:	24020057 	li	v0,87
9d003080:	0043280a 	movz	a1,v0,v1
9d003084:	01b0001b 	divu	zero,t5,s0
9d003088:	020001f4 	teq	s0,zero,0x7
9d00308c:	00001810 	mfhi	v1
9d003090:	2673ffff 	addiu	s3,s3,-1
9d003094:	27deffff 	addiu	s8,s8,-1
9d003098:	01b0001b 	divu	zero,t5,s0
9d00309c:	020001f4 	teq	s0,zero,0x7
9d0030a0:	00006812 	mflo	t5
9d0030a4:	2864000a 	slti	a0,v1,10
9d0030a8:	24620030 	addiu	v0,v1,48
9d0030ac:	00651821 	addu	v1,v1,a1
9d0030b0:	0064100a 	movz	v0,v1,a0
9d0030b4:	15a0fff3 	bnez	t5,9d003084 <_do_print_cdnopuxX+0x66c>
9d0030b8:	a2620001 	sb	v0,1(s3)
9d0030bc:	0b400b7b 	j	9d002dec <_do_print_cdnopuxX+0x3d4>
9d0030c0:	27c5ffff 	addiu	a1,s8,-1
9d0030c4:	2402002d 	li	v0,45
9d0030c8:	a2620000 	sb	v0,0(s3)
9d0030cc:	0b400b9a 	j	9d002e68 <_do_print_cdnopuxX+0x450>
9d0030d0:	2673ffff 	addiu	s3,s3,-1
9d0030d4:	24040025 	li	a0,37
9d0030d8:	0f402582 	jal	9d009608 <fputc>
9d0030dc:	8fa50098 	lw	a1,152(sp)
9d0030e0:	26520002 	addiu	s2,s2,2
9d0030e4:	8fa40060 	lw	a0,96(sp)
9d0030e8:	24840001 	addiu	a0,a0,1
9d0030ec:	0b400a9c 	j	9d002a70 <_do_print_cdnopuxX+0x58>
9d0030f0:	afa40060 	sw	a0,96(sp)
9d0030f4:	82020001 	lb	v0,1(s0)
9d0030f8:	36f78000 	ori	s7,s7,0x8000
9d0030fc:	0b400c05 	j	9d003014 <_do_print_cdnopuxX+0x5fc>
9d003100:	26100001 	addiu	s0,s0,1
9d003104:	50400074 	beqzl	v0,9d0032d8 <_do_print_cdnopuxX+0x8c0>
9d003108:	8fa300a0 	lw	v1,160(sp)
9d00310c:	8fa200a0 	lw	v0,160(sp)
9d003110:	8c550000 	lw	s5,0(v0)
9d003114:	24420004 	addiu	v0,v0,4
9d003118:	afa200a0 	sw	v0,160(sp)
9d00311c:	0015a7c3 	sra	s4,s5,0x1f
9d003120:	02801021 	move	v0,s4
9d003124:	0441ff0d 	bgez	v0,9d002d5c <_do_print_cdnopuxX+0x344>
9d003128:	02a01821 	move	v1,s5
9d00312c:	0b400c64 	j	9d003190 <_do_print_cdnopuxX+0x778>
9d003130:	00036823 	negu	t5,v1
9d003134:	50400062 	beqzl	v0,9d0032c0 <_do_print_cdnopuxX+0x8a8>
9d003138:	8fa300a0 	lw	v1,160(sp)
9d00313c:	8fa200a0 	lw	v0,160(sp)
9d003140:	8c550000 	lw	s5,0(v0)
9d003144:	0000a021 	move	s4,zero
9d003148:	24420004 	addiu	v0,v0,4
9d00314c:	afa200a0 	sw	v0,160(sp)
9d003150:	0b400b58 	j	9d002d60 <_do_print_cdnopuxX+0x348>
9d003154:	afa0006c 	sw	zero,108(sp)
9d003158:	2402ffff 	li	v0,-1
9d00315c:	8fbf0094 	lw	ra,148(sp)
9d003160:	8fbe0090 	lw	s8,144(sp)
9d003164:	8fb7008c 	lw	s7,140(sp)
9d003168:	8fb60088 	lw	s6,136(sp)
9d00316c:	8fb50084 	lw	s5,132(sp)
9d003170:	8fb40080 	lw	s4,128(sp)
9d003174:	8fb3007c 	lw	s3,124(sp)
9d003178:	8fb20078 	lw	s2,120(sp)
9d00317c:	8fb10074 	lw	s1,116(sp)
9d003180:	8fb00070 	lw	s0,112(sp)
9d003184:	03e00008 	jr	ra
9d003188:	27bd0098 	addiu	sp,sp,152
9d00318c:	00036823 	negu	t5,v1
9d003190:	000d182b 	sltu	v1,zero,t5
9d003194:	00021023 	negu	v0,v0
9d003198:	01a0a821 	move	s5,t5
9d00319c:	0043a023 	subu	s4,v0,v1
9d0031a0:	24040001 	li	a0,1
9d0031a4:	0b400b58 	j	9d002d60 <_do_print_cdnopuxX+0x348>
9d0031a8:	afa4006c 	sw	a0,108(sp)
9d0031ac:	5440ff68 	bnezl	v0,9d002f50 <_do_print_cdnopuxX+0x538>
9d0031b0:	2463ffff 	addiu	v1,v1,-1
9d0031b4:	0b400bd4 	j	9d002f50 <_do_print_cdnopuxX+0x538>
9d0031b8:	00000000 	nop
9d0031bc:	0b400b42 	j	9d002d08 <_do_print_cdnopuxX+0x2f0>
9d0031c0:	24100008 	li	s0,8
9d0031c4:	7c171620 	seh	v0,s7
9d0031c8:	04400096 	bltz	v0,9d003424 <_do_print_cdnopuxX+0xa0c>
9d0031cc:	8fa400a0 	lw	a0,160(sp)
9d0031d0:	32e20010 	andi	v0,s7,0x10
9d0031d4:	14400087 	bnez	v0,9d0033f4 <_do_print_cdnopuxX+0x9dc>
9d0031d8:	8fa200a0 	lw	v0,160(sp)
9d0031dc:	32e20040 	andi	v0,s7,0x40
9d0031e0:	1040009b 	beqz	v0,9d003450 <_do_print_cdnopuxX+0xa38>
9d0031e4:	32e80001 	andi	t0,s7,0x1
9d0031e8:	8fa200a0 	lw	v0,160(sp)
9d0031ec:	8c430000 	lw	v1,0(v0)
9d0031f0:	00001021 	move	v0,zero
9d0031f4:	8fa400a0 	lw	a0,160(sp)
9d0031f8:	24840004 	addiu	a0,a0,4
9d0031fc:	afa400a0 	sw	a0,160(sp)
9d003200:	8fa40060 	lw	a0,96(sp)
9d003204:	0b400ba1 	j	9d002e84 <_do_print_cdnopuxX+0x46c>
9d003208:	a4640000 	sh	a0,0(v1)
9d00320c:	8fa400a0 	lw	a0,160(sp)
9d003210:	8c900000 	lw	s0,0(a0)
9d003214:	3c039d01 	lui	v1,0x9d01
9d003218:	2462a424 	addiu	v0,v1,-23516
9d00321c:	0050800a 	movz	s0,v0,s0
9d003220:	2402ffff 	li	v0,-1
9d003224:	13c2007b 	beq	s8,v0,9d003414 <_do_print_cdnopuxX+0x9fc>
9d003228:	24950004 	addiu	s5,a0,4
9d00322c:	1bc00094 	blez	s8,9d003480 <_do_print_cdnopuxX+0xa68>
9d003230:	021e5821 	addu	t3,s0,s8
9d003234:	82030000 	lb	v1,0(s0)
9d003238:	14600005 	bnez	v1,9d003250 <_do_print_cdnopuxX+0x838>
9d00323c:	02001021 	move	v0,s0
9d003240:	0b400c98 	j	9d003260 <_do_print_cdnopuxX+0x848>
9d003244:	00001021 	move	v0,zero
9d003248:	50600005 	beqzl	v1,9d003260 <_do_print_cdnopuxX+0x848>
9d00324c:	00501023 	subu	v0,v0,s0
9d003250:	24420001 	addiu	v0,v0,1
9d003254:	544bfffc 	bnel	v0,t3,9d003248 <_do_print_cdnopuxX+0x830>
9d003258:	80430000 	lb	v1,0(v0)
9d00325c:	00501023 	subu	v0,v0,s0
9d003260:	afb70010 	sw	s7,16(sp)
9d003264:	8fa40098 	lw	a0,152(sp)
9d003268:	02002821 	move	a1,s0
9d00326c:	00403021 	move	a2,v0
9d003270:	0f402222 	jal	9d008888 <.LFE2>
9d003274:	02c03821 	move	a3,s6
9d003278:	0b400ba1 	j	9d002e84 <_do_print_cdnopuxX+0x46c>
9d00327c:	afb500a0 	sw	s5,160(sp)
9d003280:	8fa300a0 	lw	v1,160(sp)
9d003284:	8c620000 	lw	v0,0(v1)
9d003288:	24750004 	addiu	s5,v1,4
9d00328c:	afb70010 	sw	s7,16(sp)
9d003290:	8fa40098 	lw	a0,152(sp)
9d003294:	27a50018 	addiu	a1,sp,24
9d003298:	24060001 	li	a2,1
9d00329c:	02c03821 	move	a3,s6
9d0032a0:	a3a20018 	sb	v0,24(sp)
9d0032a4:	0f402222 	jal	9d008888 <.LFE2>
9d0032a8:	afb500a0 	sw	s5,160(sp)
9d0032ac:	0b400ba2 	j	9d002e88 <_do_print_cdnopuxX+0x470>
9d0032b0:	8fa30060 	lw	v1,96(sp)
9d0032b4:	36f70010 	ori	s7,s7,0x10
9d0032b8:	0b400b42 	j	9d002d08 <_do_print_cdnopuxX+0x2f0>
9d0032bc:	24100008 	li	s0,8
9d0032c0:	8c750000 	lw	s5,0(v1)
9d0032c4:	0000a021 	move	s4,zero
9d0032c8:	24630004 	addiu	v1,v1,4
9d0032cc:	afa300a0 	sw	v1,160(sp)
9d0032d0:	0b400b58 	j	9d002d60 <_do_print_cdnopuxX+0x348>
9d0032d4:	afa0006c 	sw	zero,108(sp)
9d0032d8:	8c750000 	lw	s5,0(v1)
9d0032dc:	24630004 	addiu	v1,v1,4
9d0032e0:	afa300a0 	sw	v1,160(sp)
9d0032e4:	0015a7c3 	sra	s4,s5,0x1f
9d0032e8:	02801021 	move	v0,s4
9d0032ec:	0441fe9b 	bgez	v0,9d002d5c <_do_print_cdnopuxX+0x344>
9d0032f0:	02a01821 	move	v1,s5
9d0032f4:	0b400c64 	j	9d003190 <_do_print_cdnopuxX+0x778>
9d0032f8:	00036823 	negu	t5,v1
9d0032fc:	82630001 	lb	v1,1(s3)
9d003300:	24020030 	li	v0,48
9d003304:	1062fed0 	beq	v1,v0,9d002e48 <_do_print_cdnopuxX+0x430>
9d003308:	8fa30064 	lw	v1,100(sp)
9d00330c:	a2620000 	sb	v0,0(s3)
9d003310:	0b400b91 	j	9d002e44 <_do_print_cdnopuxX+0x42c>
9d003314:	2673ffff 	addiu	s3,s3,-1
9d003318:	24820007 	addiu	v0,a0,7
9d00331c:	7c021004 	ins	v0,zero,0x0,0x3
9d003320:	24430008 	addiu	v1,v0,8
9d003324:	afa300a0 	sw	v1,160(sp)
9d003328:	8c550000 	lw	s5,0(v0)
9d00332c:	8c540004 	lw	s4,4(v0)
9d003330:	0b400b58 	j	9d002d60 <_do_print_cdnopuxX+0x348>
9d003334:	afa0006c 	sw	zero,108(sp)
9d003338:	8fa300a0 	lw	v1,160(sp)
9d00333c:	24750007 	addiu	s5,v1,7
9d003340:	7c151004 	ins	s5,zero,0x0,0x3
9d003344:	8ea30000 	lw	v1,0(s5)
9d003348:	8ea20004 	lw	v0,4(s5)
9d00334c:	26b50008 	addiu	s5,s5,8
9d003350:	afb500a0 	sw	s5,160(sp)
9d003354:	0060a821 	move	s5,v1
9d003358:	0441fe80 	bgez	v0,9d002d5c <_do_print_cdnopuxX+0x344>
9d00335c:	0040a021 	move	s4,v0
9d003360:	0b400c64 	j	9d003190 <_do_print_cdnopuxX+0x778>
9d003364:	00036823 	negu	t5,v1
9d003368:	8fa300a0 	lw	v1,160(sp)
9d00336c:	8c7e0000 	lw	s8,0(v1)
9d003370:	24750004 	addiu	s5,v1,4
9d003374:	26030002 	addiu	v1,s0,2
9d003378:	82020002 	lb	v0,2(s0)
9d00337c:	afb500a0 	sw	s5,160(sp)
9d003380:	07c1fe11 	bgez	s8,9d002bc8 <_do_print_cdnopuxX+0x1b0>
9d003384:	00608021 	move	s0,v1
9d003388:	0b400af2 	j	9d002bc8 <_do_print_cdnopuxX+0x1b0>
9d00338c:	241effff 	li	s8,-1
9d003390:	36f70001 	ori	s7,s7,0x1
9d003394:	26100001 	addiu	s0,s0,1
9d003398:	0b400c05 	j	9d003014 <_do_print_cdnopuxX+0x5fc>
9d00339c:	26100001 	addiu	s0,s0,1
9d0033a0:	24020058 	li	v0,88
9d0033a4:	24030078 	li	v1,120
9d0033a8:	0064100a 	movz	v0,v1,a0
9d0033ac:	a2620000 	sb	v0,0(s3)
9d0033b0:	24020030 	li	v0,48
9d0033b4:	a262ffff 	sb	v0,-1(s3)
9d0033b8:	0b400b91 	j	9d002e44 <_do_print_cdnopuxX+0x42c>
9d0033bc:	2673fffe 	addiu	s3,s3,-2
9d0033c0:	27a20057 	addiu	v0,sp,87
9d0033c4:	afa20068 	sw	v0,104(sp)
9d0033c8:	0b400b7b 	j	9d002dec <_do_print_cdnopuxX+0x3d4>
9d0033cc:	00409821 	move	s3,v0
9d0033d0:	36f78000 	ori	s7,s7,0x8000
9d0033d4:	26100001 	addiu	s0,s0,1
9d0033d8:	0b400c05 	j	9d003014 <_do_print_cdnopuxX+0x5fc>
9d0033dc:	26100001 	addiu	s0,s0,1
9d0033e0:	82620001 	lb	v0,1(s3)
9d0033e4:	38420030 	xori	v0,v0,0x30
9d0033e8:	0002102b 	sltu	v0,zero,v0
9d0033ec:	0b400bce 	j	9d002f38 <_do_print_cdnopuxX+0x520>
9d0033f0:	00621823 	subu	v1,v1,v0
9d0033f4:	8c430000 	lw	v1,0(v0)
9d0033f8:	00001021 	move	v0,zero
9d0033fc:	8fa400a0 	lw	a0,160(sp)
9d003400:	24840004 	addiu	a0,a0,4
9d003404:	afa400a0 	sw	a0,160(sp)
9d003408:	8fa40060 	lw	a0,96(sp)
9d00340c:	0b400ba1 	j	9d002e84 <_do_print_cdnopuxX+0x46c>
9d003410:	ac640000 	sw	a0,0(v1)
9d003414:	0f402677 	jal	9d0099dc <strlen>
9d003418:	02002021 	move	a0,s0
9d00341c:	0b400c99 	j	9d003264 <_do_print_cdnopuxX+0x84c>
9d003420:	afb70010 	sw	s7,16(sp)
9d003424:	8c820000 	lw	v0,0(a0)
9d003428:	8fa40060 	lw	a0,96(sp)
9d00342c:	00041fc3 	sra	v1,a0,0x1f
9d003430:	8fa400a0 	lw	a0,160(sp)
9d003434:	24840004 	addiu	a0,a0,4
9d003438:	afa400a0 	sw	a0,160(sp)
9d00343c:	8fa40060 	lw	a0,96(sp)
9d003440:	ac440000 	sw	a0,0(v0)
9d003444:	ac430004 	sw	v1,4(v0)
9d003448:	0b400ba1 	j	9d002e84 <_do_print_cdnopuxX+0x46c>
9d00344c:	00001021 	move	v0,zero
9d003450:	8fa200a0 	lw	v0,160(sp)
9d003454:	8c430000 	lw	v1,0(v0)
9d003458:	00001021 	move	v0,zero
9d00345c:	8fa400a0 	lw	a0,160(sp)
9d003460:	24840004 	addiu	a0,a0,4
9d003464:	afa400a0 	sw	a0,160(sp)
9d003468:	11000003 	beqz	t0,9d003478 <_do_print_cdnopuxX+0xa60>
9d00346c:	8fa40060 	lw	a0,96(sp)
9d003470:	0b400ba1 	j	9d002e84 <_do_print_cdnopuxX+0x46c>
9d003474:	a0640000 	sb	a0,0(v1)
9d003478:	0b400ba1 	j	9d002e84 <_do_print_cdnopuxX+0x46c>
9d00347c:	ac640000 	sw	a0,0(v1)
9d003480:	0b400c98 	j	9d003260 <_do_print_cdnopuxX+0x848>
9d003484:	00001021 	move	v0,zero

Disassembly of section .text.malloc:

9d003488 <malloc>:
9d003488:	27bdffc0 	addiu	sp,sp,-64
9d00348c:	afbf003c 	sw	ra,60(sp)
9d003490:	afbe0038 	sw	s8,56(sp)
9d003494:	afb70034 	sw	s7,52(sp)
9d003498:	afb60030 	sw	s6,48(sp)
9d00349c:	afb5002c 	sw	s5,44(sp)
9d0034a0:	afb40028 	sw	s4,40(sp)
9d0034a4:	afb30024 	sw	s3,36(sp)
9d0034a8:	afb20020 	sw	s2,32(sp)
9d0034ac:	afb1001c 	sw	s1,28(sp)
9d0034b0:	afb00018 	sw	s0,24(sp)
9d0034b4:	2490000b 	addiu	s0,a0,11
9d0034b8:	2e020017 	sltiu	v0,s0,23
9d0034bc:	10400021 	beqz	v0,9d003544 <malloc+0xbc>
9d0034c0:	7c101004 	ins	s0,zero,0x0,0x3
9d0034c4:	2c840011 	sltiu	a0,a0,17
9d0034c8:	10800086 	beqz	a0,9d0036e4 <malloc+0x25c>
9d0034cc:	24100010 	li	s0,16
9d0034d0:	3c11a000 	lui	s1,0xa000
9d0034d4:	2631160c 	addiu	s1,s1,5644
9d0034d8:	02301821 	addu	v1,s1,s0
9d0034dc:	8c62000c 	lw	v0,12(v1)
9d0034e0:	104300bb 	beq	v0,v1,9d0037d0 <malloc+0x348>
9d0034e4:	001040c2 	srl	t0,s0,0x3
9d0034e8:	8c430004 	lw	v1,4(v0)
9d0034ec:	8c44000c 	lw	a0,12(v0)
9d0034f0:	8c450008 	lw	a1,8(v0)
9d0034f4:	7c030804 	ins	v1,zero,0x0,0x2
9d0034f8:	00431821 	addu	v1,v0,v1
9d0034fc:	8c660004 	lw	a2,4(v1)
9d003500:	aca4000c 	sw	a0,12(a1)
9d003504:	24420008 	addiu	v0,v0,8
9d003508:	34c60001 	ori	a2,a2,0x1
9d00350c:	ac850008 	sw	a1,8(a0)
9d003510:	ac660004 	sw	a2,4(v1)
9d003514:	8fbf003c 	lw	ra,60(sp)
9d003518:	8fbe0038 	lw	s8,56(sp)
9d00351c:	8fb70034 	lw	s7,52(sp)
9d003520:	8fb60030 	lw	s6,48(sp)
9d003524:	8fb5002c 	lw	s5,44(sp)
9d003528:	8fb40028 	lw	s4,40(sp)
9d00352c:	8fb30024 	lw	s3,36(sp)
9d003530:	8fb20020 	lw	s2,32(sp)
9d003534:	8fb1001c 	lw	s1,28(sp)
9d003538:	8fb00018 	lw	s0,24(sp)
9d00353c:	03e00008 	jr	ra
9d003540:	27bd0040 	addiu	sp,sp,64
9d003544:	06000067 	bltz	s0,9d0036e4 <malloc+0x25c>
9d003548:	0204202b 	sltu	a0,s0,a0
9d00354c:	14800065 	bnez	a0,9d0036e4 <malloc+0x25c>
9d003550:	2e0201f8 	sltiu	v0,s0,504
9d003554:	1440ffdf 	bnez	v0,9d0034d4 <malloc+0x4c>
9d003558:	3c11a000 	lui	s1,0xa000
9d00355c:	00101242 	srl	v0,s0,0x9
9d003560:	1040000a 	beqz	v0,9d00358c <malloc+0x104>
9d003564:	2406007e 	li	a2,126
9d003568:	2c430005 	sltiu	v1,v0,5
9d00356c:	1460003d 	bnez	v1,9d003664 <malloc+0x1dc>
9d003570:	00104182 	srl	t0,s0,0x6
9d003574:	2c430015 	sltiu	v1,v0,21
9d003578:	106000fc 	beqz	v1,9d00396c <malloc+0x4e4>
9d00357c:	2c430055 	sltiu	v1,v0,85
9d003580:	2448005b 	addiu	t0,v0,91
9d003584:	0b400d65 	j	9d003594 <malloc+0x10c>
9d003588:	00083040 	sll	a2,t0,0x1
9d00358c:	2408003f 	li	t0,63
9d003590:	3c11a000 	lui	s1,0xa000
9d003594:	00063080 	sll	a2,a2,0x2
9d003598:	2631160c 	addiu	s1,s1,5644
9d00359c:	02263021 	addu	a2,s1,a2
9d0035a0:	8cc2000c 	lw	v0,12(a2)
9d0035a4:	54c20009 	bnel	a2,v0,9d0035cc <malloc+0x144>
9d0035a8:	8c440004 	lw	a0,4(v0)
9d0035ac:	0b400d7a 	j	9d0035e8 <malloc+0x160>
9d0035b0:	25080001 	addiu	t0,t0,1
9d0035b4:	0463005b 	bgezl	v1,9d003724 <malloc+0x29c>
9d0035b8:	00442021 	addu	a0,v0,a0
9d0035bc:	8c42000c 	lw	v0,12(v0)
9d0035c0:	50c20009 	beql	a2,v0,9d0035e8 <malloc+0x160>
9d0035c4:	25080001 	addiu	t0,t0,1
9d0035c8:	8c440004 	lw	a0,4(v0)
9d0035cc:	7c040804 	ins	a0,zero,0x0,0x2
9d0035d0:	00901823 	subu	v1,a0,s0
9d0035d4:	28650010 	slti	a1,v1,16
9d0035d8:	14a0fff6 	bnez	a1,9d0035b4 <malloc+0x12c>
9d0035dc:	00000000 	nop
9d0035e0:	2508ffff 	addiu	t0,t0,-1
9d0035e4:	25080001 	addiu	t0,t0,1
9d0035e8:	8e220010 	lw	v0,16(s1)
9d0035ec:	3c06a000 	lui	a2,0xa000
9d0035f0:	24c61614 	addiu	a2,a2,5652
9d0035f4:	5046007c 	beql	v0,a2,9d0037e8 <malloc+0x360>
9d0035f8:	8e240004 	lw	a0,4(s1)
9d0035fc:	8c440004 	lw	a0,4(v0)
9d003600:	7c040804 	ins	a0,zero,0x0,0x2
9d003604:	00901823 	subu	v1,a0,s0
9d003608:	28650010 	slti	a1,v1,16
9d00360c:	50a00059 	beqzl	a1,9d003774 <malloc+0x2ec>
9d003610:	00502021 	addu	a0,v0,s0
9d003614:	ae260014 	sw	a2,20(s1)
9d003618:	04600015 	bltz	v1,9d003670 <malloc+0x1e8>
9d00361c:	ae260010 	sw	a2,16(s1)
9d003620:	00442021 	addu	a0,v0,a0
9d003624:	8c830004 	lw	v1,4(a0)
9d003628:	24420008 	addiu	v0,v0,8
9d00362c:	34630001 	ori	v1,v1,0x1
9d003630:	ac830004 	sw	v1,4(a0)
9d003634:	8fbf003c 	lw	ra,60(sp)
9d003638:	8fbe0038 	lw	s8,56(sp)
9d00363c:	8fb70034 	lw	s7,52(sp)
9d003640:	8fb60030 	lw	s6,48(sp)
9d003644:	8fb5002c 	lw	s5,44(sp)
9d003648:	8fb40028 	lw	s4,40(sp)
9d00364c:	8fb30024 	lw	s3,36(sp)
9d003650:	8fb20020 	lw	s2,32(sp)
9d003654:	8fb1001c 	lw	s1,28(sp)
9d003658:	8fb00018 	lw	s0,24(sp)
9d00365c:	03e00008 	jr	ra
9d003660:	27bd0040 	addiu	sp,sp,64
9d003664:	25080038 	addiu	t0,t0,56
9d003668:	0b400d64 	j	9d003590 <malloc+0x108>
9d00366c:	00083040 	sll	a2,t0,0x1
9d003670:	2c830200 	sltiu	v1,a0,512
9d003674:	546000c6 	bnezl	v1,9d003990 <malloc+0x508>
9d003678:	000420c2 	srl	a0,a0,0x3
9d00367c:	00041a42 	srl	v1,a0,0x9
9d003680:	2c650005 	sltiu	a1,v1,5
9d003684:	10a0014b 	beqz	a1,9d003bb4 <malloc+0x72c>
9d003688:	2c650015 	sltiu	a1,v1,21
9d00368c:	00042982 	srl	a1,a0,0x6
9d003690:	24a50038 	addiu	a1,a1,56
9d003694:	000538c0 	sll	a3,a1,0x3
9d003698:	02273821 	addu	a3,s1,a3
9d00369c:	8ce30008 	lw	v1,8(a3)
9d0036a0:	50670151 	beql	v1,a3,9d003be8 <malloc+0x760>
9d0036a4:	8e240004 	lw	a0,4(s1)
9d0036a8:	8c650004 	lw	a1,4(v1)
9d0036ac:	7c050804 	ins	a1,zero,0x0,0x2
9d0036b0:	0085282b 	sltu	a1,a0,a1
9d0036b4:	50a00005 	beqzl	a1,9d0036cc <malloc+0x244>
9d0036b8:	8c65000c 	lw	a1,12(v1)
9d0036bc:	8c630008 	lw	v1,8(v1)
9d0036c0:	54e3fffa 	bnel	a3,v1,9d0036ac <malloc+0x224>
9d0036c4:	8c650004 	lw	a1,4(v1)
9d0036c8:	8c65000c 	lw	a1,12(v1)
9d0036cc:	8e240004 	lw	a0,4(s1)
9d0036d0:	ac45000c 	sw	a1,12(v0)
9d0036d4:	ac430008 	sw	v1,8(v0)
9d0036d8:	aca20008 	sw	v0,8(a1)
9d0036dc:	0b400dfa 	j	9d0037e8 <malloc+0x360>
9d0036e0:	ac62000c 	sw	v0,12(v1)
9d0036e4:	2403000c 	li	v1,12
9d0036e8:	3c02a000 	lui	v0,0xa000
9d0036ec:	ac430020 	sw	v1,32(v0)
9d0036f0:	00001021 	move	v0,zero
9d0036f4:	8fbf003c 	lw	ra,60(sp)
9d0036f8:	8fbe0038 	lw	s8,56(sp)
9d0036fc:	8fb70034 	lw	s7,52(sp)
9d003700:	8fb60030 	lw	s6,48(sp)
9d003704:	8fb5002c 	lw	s5,44(sp)
9d003708:	8fb40028 	lw	s4,40(sp)
9d00370c:	8fb30024 	lw	s3,36(sp)
9d003710:	8fb20020 	lw	s2,32(sp)
9d003714:	8fb1001c 	lw	s1,28(sp)
9d003718:	8fb00018 	lw	s0,24(sp)
9d00371c:	03e00008 	jr	ra
9d003720:	27bd0040 	addiu	sp,sp,64
9d003724:	8c860004 	lw	a2,4(a0)
9d003728:	8c43000c 	lw	v1,12(v0)
9d00372c:	8c450008 	lw	a1,8(v0)
9d003730:	34c60001 	ori	a2,a2,0x1
9d003734:	24420008 	addiu	v0,v0,8
9d003738:	aca3000c 	sw	v1,12(a1)
9d00373c:	ac650008 	sw	a1,8(v1)
9d003740:	ac860004 	sw	a2,4(a0)
9d003744:	8fbf003c 	lw	ra,60(sp)
9d003748:	8fbe0038 	lw	s8,56(sp)
9d00374c:	8fb70034 	lw	s7,52(sp)
9d003750:	8fb60030 	lw	s6,48(sp)
9d003754:	8fb5002c 	lw	s5,44(sp)
9d003758:	8fb40028 	lw	s4,40(sp)
9d00375c:	8fb30024 	lw	s3,36(sp)
9d003760:	8fb20020 	lw	s2,32(sp)
9d003764:	8fb1001c 	lw	s1,28(sp)
9d003768:	8fb00018 	lw	s0,24(sp)
9d00376c:	03e00008 	jr	ra
9d003770:	27bd0040 	addiu	sp,sp,64
9d003774:	36100001 	ori	s0,s0,0x1
9d003778:	34670001 	ori	a3,v1,0x1
9d00377c:	00832821 	addu	a1,a0,v1
9d003780:	ac500004 	sw	s0,4(v0)
9d003784:	24420008 	addiu	v0,v0,8
9d003788:	ae240014 	sw	a0,20(s1)
9d00378c:	ae240010 	sw	a0,16(s1)
9d003790:	ac86000c 	sw	a2,12(a0)
9d003794:	ac860008 	sw	a2,8(a0)
9d003798:	ac870004 	sw	a3,4(a0)
9d00379c:	aca30000 	sw	v1,0(a1)
9d0037a0:	8fbf003c 	lw	ra,60(sp)
9d0037a4:	8fbe0038 	lw	s8,56(sp)
9d0037a8:	8fb70034 	lw	s7,52(sp)
9d0037ac:	8fb60030 	lw	s6,48(sp)
9d0037b0:	8fb5002c 	lw	s5,44(sp)
9d0037b4:	8fb40028 	lw	s4,40(sp)
9d0037b8:	8fb30024 	lw	s3,36(sp)
9d0037bc:	8fb20020 	lw	s2,32(sp)
9d0037c0:	8fb1001c 	lw	s1,28(sp)
9d0037c4:	8fb00018 	lw	s0,24(sp)
9d0037c8:	03e00008 	jr	ra
9d0037cc:	27bd0040 	addiu	sp,sp,64
9d0037d0:	24430008 	addiu	v1,v0,8
9d0037d4:	8c420014 	lw	v0,20(v0)
9d0037d8:	1062ff83 	beq	v1,v0,9d0035e8 <malloc+0x160>
9d0037dc:	25080002 	addiu	t0,t0,2
9d0037e0:	0b400d3b 	j	9d0034ec <malloc+0x64>
9d0037e4:	8c430004 	lw	v1,4(v0)
9d0037e8:	00081083 	sra	v0,t0,0x2
9d0037ec:	24070001 	li	a3,1
9d0037f0:	00473804 	sllv	a3,a3,v0
9d0037f4:	0087102b 	sltu	v0,a0,a3
9d0037f8:	5440002a 	bnezl	v0,9d0038a4 <malloc+0x41c>
9d0037fc:	8e320008 	lw	s2,8(s1)
9d003800:	00871024 	and	v0,a0,a3
9d003804:	50400070 	beqzl	v0,9d0039c8 <malloc+0x540>
9d003808:	00073840 	sll	a3,a3,0x1
9d00380c:	000850c0 	sll	t2,t0,0x3
9d003810:	022a5021 	addu	t2,s1,t2
9d003814:	01404821 	move	t1,t2
9d003818:	01005821 	move	t3,t0
9d00381c:	8d22000c 	lw	v0,12(t1)
9d003820:	55220009 	bnel	t1,v0,9d003848 <malloc+0x3c0>
9d003824:	8c440004 	lw	a0,4(v0)
9d003828:	0b400e7f 	j	9d0039fc <malloc+0x574>
9d00382c:	256b0001 	addiu	t3,t3,1
9d003830:	04630090 	bgezl	v1,9d003a74 <malloc+0x5ec>
9d003834:	00442021 	addu	a0,v0,a0
9d003838:	8c42000c 	lw	v0,12(v0)
9d00383c:	5122006f 	beql	t1,v0,9d0039fc <malloc+0x574>
9d003840:	256b0001 	addiu	t3,t3,1
9d003844:	8c440004 	lw	a0,4(v0)
9d003848:	7c040804 	ins	a0,zero,0x0,0x2
9d00384c:	00901823 	subu	v1,a0,s0
9d003850:	28650010 	slti	a1,v1,16
9d003854:	14a0fff6 	bnez	a1,9d003830 <malloc+0x3a8>
9d003858:	00000000 	nop
9d00385c:	8c45000c 	lw	a1,12(v0)
9d003860:	8c470008 	lw	a3,8(v0)
9d003864:	00502021 	addu	a0,v0,s0
9d003868:	36100001 	ori	s0,s0,0x1
9d00386c:	34690001 	ori	t1,v1,0x1
9d003870:	00834021 	addu	t0,a0,v1
9d003874:	ac500004 	sw	s0,4(v0)
9d003878:	24420008 	addiu	v0,v0,8
9d00387c:	ace5000c 	sw	a1,12(a3)
9d003880:	aca70008 	sw	a3,8(a1)
9d003884:	ae240014 	sw	a0,20(s1)
9d003888:	ae240010 	sw	a0,16(s1)
9d00388c:	ac86000c 	sw	a2,12(a0)
9d003890:	ac860008 	sw	a2,8(a0)
9d003894:	ac890004 	sw	t1,4(a0)
9d003898:	0b400d45 	j	9d003514 <malloc+0x8c>
9d00389c:	ad030000 	sw	v1,0(t0)
9d0038a0:	8e320008 	lw	s2,8(s1)
9d0038a4:	8e540004 	lw	s4,4(s2)
9d0038a8:	7c140804 	ins	s4,zero,0x0,0x2
9d0038ac:	0290102b 	sltu	v0,s4,s0
9d0038b0:	14400004 	bnez	v0,9d0038c4 <malloc+0x43c>
9d0038b4:	02901023 	subu	v0,s4,s0
9d0038b8:	28430010 	slti	v1,v0,16
9d0038bc:	10600024 	beqz	v1,9d003950 <malloc+0x4c8>
9d0038c0:	02501821 	addu	v1,s2,s0
9d0038c4:	3c02a000 	lui	v0,0xa000
9d0038c8:	8c551ba0 	lw	s5,7072(v0)
9d0038cc:	3c1ea000 	lui	s8,0xa000
9d0038d0:	0254b821 	addu	s7,s2,s4
9d0038d4:	26b50010 	addiu	s5,s5,16
9d0038d8:	0f4029c5 	jal	9d00a714 <getpagesize>
9d0038dc:	02b0a821 	addu	s5,s5,s0
9d0038e0:	0040b021 	move	s6,v0
9d0038e4:	8fc31604 	lw	v1,5636(s8)
9d0038e8:	2402ffff 	li	v0,-1
9d0038ec:	10620004 	beq	v1,v0,9d003900 <malloc+0x478>
9d0038f0:	26a2ffff 	addiu	v0,s5,-1
9d0038f4:	00561021 	addu	v0,v0,s6
9d0038f8:	0016a823 	negu	s5,s6
9d0038fc:	02a2a824 	and	s5,s5,v0
9d003900:	0f402804 	jal	9d00a010 <sbrk>
9d003904:	02a02021 	move	a0,s5
9d003908:	00409821 	move	s3,v0
9d00390c:	2402ffff 	li	v0,-1
9d003910:	52620007 	beql	s3,v0,9d003930 <malloc+0x4a8>
9d003914:	8e320008 	lw	s2,8(s1)
9d003918:	0277102b 	sltu	v0,s3,s7
9d00391c:	1040005e 	beqz	v0,9d003a98 <malloc+0x610>
9d003920:	3c03a000 	lui	v1,0xa000
9d003924:	5251005d 	beql	s2,s1,9d003a9c <malloc+0x614>
9d003928:	8c621b70 	lw	v0,7024(v1)
9d00392c:	8e320008 	lw	s2,8(s1)
9d003930:	8e420004 	lw	v0,4(s2)
9d003934:	7c020804 	ins	v0,zero,0x0,0x2
9d003938:	0050182b 	sltu	v1,v0,s0
9d00393c:	146000a1 	bnez	v1,9d003bc4 <malloc+0x73c>
9d003940:	00501023 	subu	v0,v0,s0
9d003944:	28430010 	slti	v1,v0,16
9d003948:	1460009e 	bnez	v1,9d003bc4 <malloc+0x73c>
9d00394c:	02501821 	addu	v1,s2,s0
9d003950:	36100001 	ori	s0,s0,0x1
9d003954:	34440001 	ori	a0,v0,0x1
9d003958:	ae500004 	sw	s0,4(s2)
9d00395c:	26420008 	addiu	v0,s2,8
9d003960:	ae230008 	sw	v1,8(s1)
9d003964:	0b400d45 	j	9d003514 <malloc+0x8c>
9d003968:	ac640004 	sw	a0,4(v1)
9d00396c:	14600020 	bnez	v1,9d0039f0 <malloc+0x568>
9d003970:	00104302 	srl	t0,s0,0xc
9d003974:	2c430155 	sltiu	v1,v0,341
9d003978:	10600088 	beqz	v1,9d003b9c <malloc+0x714>
9d00397c:	2c420555 	sltiu	v0,v0,1365
9d003980:	001043c2 	srl	t0,s0,0xf
9d003984:	25080077 	addiu	t0,t0,119
9d003988:	0b400d64 	j	9d003590 <malloc+0x108>
9d00398c:	00083040 	sll	a2,t0,0x1
9d003990:	000418c0 	sll	v1,a0,0x3
9d003994:	02231821 	addu	v1,s1,v1
9d003998:	8e270004 	lw	a3,4(s1)
9d00399c:	8c650008 	lw	a1,8(v1)
9d0039a0:	00042083 	sra	a0,a0,0x2
9d0039a4:	24090001 	li	t1,1
9d0039a8:	00892004 	sllv	a0,t1,a0
9d0039ac:	00872025 	or	a0,a0,a3
9d0039b0:	ac43000c 	sw	v1,12(v0)
9d0039b4:	ac450008 	sw	a1,8(v0)
9d0039b8:	ae240004 	sw	a0,4(s1)
9d0039bc:	ac620008 	sw	v0,8(v1)
9d0039c0:	0b400dfa 	j	9d0037e8 <malloc+0x360>
9d0039c4:	aca2000c 	sw	v0,12(a1)
9d0039c8:	7c080804 	ins	t0,zero,0x0,0x2
9d0039cc:	00871024 	and	v0,a0,a3
9d0039d0:	1440ff8e 	bnez	v0,9d00380c <malloc+0x384>
9d0039d4:	25080004 	addiu	t0,t0,4
9d0039d8:	00073840 	sll	a3,a3,0x1
9d0039dc:	00871024 	and	v0,a0,a3
9d0039e0:	1040fffd 	beqz	v0,9d0039d8 <malloc+0x550>
9d0039e4:	25080004 	addiu	t0,t0,4
9d0039e8:	0b400e04 	j	9d003810 <malloc+0x388>
9d0039ec:	000850c0 	sll	t2,t0,0x3
9d0039f0:	2508006e 	addiu	t0,t0,110
9d0039f4:	0b400d64 	j	9d003590 <malloc+0x108>
9d0039f8:	00083040 	sll	a2,t0,0x1
9d0039fc:	31620003 	andi	v0,t3,0x3
9d003a00:	1440ff86 	bnez	v0,9d00381c <malloc+0x394>
9d003a04:	25290008 	addiu	t1,t1,8
9d003a08:	0b400e87 	j	9d003a1c <malloc+0x594>
9d003a0c:	2542fff8 	addiu	v0,t2,-8
9d003a10:	15420009 	bne	t2,v0,9d003a38 <malloc+0x5b0>
9d003a14:	2508ffff 	addiu	t0,t0,-1
9d003a18:	2542fff8 	addiu	v0,t2,-8
9d003a1c:	31030003 	andi	v1,t0,0x3
9d003a20:	5460fffb 	bnezl	v1,9d003a10 <malloc+0x588>
9d003a24:	8d4a0000 	lw	t2,0(t2)
9d003a28:	8e220004 	lw	v0,4(s1)
9d003a2c:	00071827 	nor	v1,zero,a3
9d003a30:	00621024 	and	v0,v1,v0
9d003a34:	ae220004 	sw	v0,4(s1)
9d003a38:	8e220004 	lw	v0,4(s1)
9d003a3c:	00073840 	sll	a3,a3,0x1
9d003a40:	0047182b 	sltu	v1,v0,a3
9d003a44:	5460ff97 	bnezl	v1,9d0038a4 <malloc+0x41c>
9d003a48:	8e320008 	lw	s2,8(s1)
9d003a4c:	10e0ff94 	beqz	a3,9d0038a0 <malloc+0x418>
9d003a50:	00e21824 	and	v1,a3,v0
9d003a54:	1460ff6d 	bnez	v1,9d00380c <malloc+0x384>
9d003a58:	01604021 	move	t0,t3
9d003a5c:	00073840 	sll	a3,a3,0x1
9d003a60:	00e21824 	and	v1,a3,v0
9d003a64:	1060fffd 	beqz	v1,9d003a5c <malloc+0x5d4>
9d003a68:	25080004 	addiu	t0,t0,4
9d003a6c:	0b400e04 	j	9d003810 <malloc+0x388>
9d003a70:	000850c0 	sll	t2,t0,0x3
9d003a74:	8c860004 	lw	a2,4(a0)
9d003a78:	8c43000c 	lw	v1,12(v0)
9d003a7c:	8c450008 	lw	a1,8(v0)
9d003a80:	34c60001 	ori	a2,a2,0x1
9d003a84:	ac860004 	sw	a2,4(a0)
9d003a88:	24420008 	addiu	v0,v0,8
9d003a8c:	aca3000c 	sw	v1,12(a1)
9d003a90:	0b400d45 	j	9d003514 <malloc+0x8c>
9d003a94:	ac650008 	sw	a1,8(v1)
9d003a98:	8c621b70 	lw	v0,7024(v1)
9d003a9c:	26c5ffff 	addiu	a1,s6,-1
9d003aa0:	02a21021 	addu	v0,s5,v0
9d003aa4:	12f3005c 	beq	s7,s3,9d003c18 <malloc+0x790>
9d003aa8:	ac621b70 	sw	v0,7024(v1)
9d003aac:	8fc61604 	lw	a2,5636(s8)
9d003ab0:	2404ffff 	li	a0,-1
9d003ab4:	50c40068 	beql	a2,a0,9d003c58 <malloc+0x7d0>
9d003ab8:	3c02a000 	lui	v0,0xa000
9d003abc:	0277b823 	subu	s7,s3,s7
9d003ac0:	00571021 	addu	v0,v0,s7
9d003ac4:	ac621b70 	sw	v0,7024(v1)
9d003ac8:	32640007 	andi	a0,s3,0x7
9d003acc:	10800004 	beqz	a0,9d003ae0 <malloc+0x658>
9d003ad0:	00001021 	move	v0,zero
9d003ad4:	24020008 	li	v0,8
9d003ad8:	00441023 	subu	v0,v0,a0
9d003adc:	02629821 	addu	s3,s3,v0
9d003ae0:	0275a821 	addu	s5,s3,s5
9d003ae4:	00561021 	addu	v0,v0,s6
9d003ae8:	02a52824 	and	a1,s5,a1
9d003aec:	0045a823 	subu	s5,v0,a1
9d003af0:	02a02021 	move	a0,s5
9d003af4:	0f402804 	jal	9d00a010 <sbrk>
9d003af8:	afa30010 	sw	v1,16(sp)
9d003afc:	2404ffff 	li	a0,-1
9d003b00:	10440052 	beq	v0,a0,9d003c4c <malloc+0x7c4>
9d003b04:	8fa30010 	lw	v1,16(sp)
9d003b08:	00531023 	subu	v0,v0,s3
9d003b0c:	02a22021 	addu	a0,s5,v0
9d003b10:	34840001 	ori	a0,a0,0x1
9d003b14:	8c621b70 	lw	v0,7024(v1)
9d003b18:	ae330008 	sw	s3,8(s1)
9d003b1c:	02a21021 	addu	v0,s5,v0
9d003b20:	ac621b70 	sw	v0,7024(v1)
9d003b24:	1251000f 	beq	s2,s1,9d003b64 <malloc+0x6dc>
9d003b28:	ae640004 	sw	a0,4(s3)
9d003b2c:	2e830010 	sltiu	v1,s4,16
9d003b30:	14600028 	bnez	v1,9d003bd4 <malloc+0x74c>
9d003b34:	2683fff4 	addiu	v1,s4,-12
9d003b38:	7c031004 	ins	v1,zero,0x0,0x3
9d003b3c:	02432021 	addu	a0,s2,v1
9d003b40:	24050005 	li	a1,5
9d003b44:	ac850004 	sw	a1,4(a0)
9d003b48:	ac850008 	sw	a1,8(a0)
9d003b4c:	8e450004 	lw	a1,4(s2)
9d003b50:	2c640010 	sltiu	a0,v1,16
9d003b54:	30a50001 	andi	a1,a1,0x1
9d003b58:	00651825 	or	v1,v1,a1
9d003b5c:	10800036 	beqz	a0,9d003c38 <malloc+0x7b0>
9d003b60:	ae430004 	sw	v1,4(s2)
9d003b64:	3c03a000 	lui	v1,0xa000
9d003b68:	8c641b9c 	lw	a0,7068(v1)
9d003b6c:	0082202b 	sltu	a0,a0,v0
9d003b70:	54800001 	bnezl	a0,9d003b78 <malloc+0x6f0>
9d003b74:	ac621b9c 	sw	v0,7068(v1)
9d003b78:	3c03a000 	lui	v1,0xa000
9d003b7c:	8c641b98 	lw	a0,7064(v1)
9d003b80:	0082202b 	sltu	a0,a0,v0
9d003b84:	10800002 	beqz	a0,9d003b90 <malloc+0x708>
9d003b88:	8e320008 	lw	s2,8(s1)
9d003b8c:	ac621b98 	sw	v0,7064(v1)
9d003b90:	8e420004 	lw	v0,4(s2)
9d003b94:	0b400e4e 	j	9d003938 <malloc+0x4b0>
9d003b98:	7c020804 	ins	v0,zero,0x0,0x2
9d003b9c:	5040000b 	beqzl	v0,9d003bcc <malloc+0x744>
9d003ba0:	240600fc 	li	a2,252
9d003ba4:	00104482 	srl	t0,s0,0x12
9d003ba8:	2508007c 	addiu	t0,t0,124
9d003bac:	0b400d64 	j	9d003590 <malloc+0x108>
9d003bb0:	00083040 	sll	a2,t0,0x1
9d003bb4:	50a00013 	beqzl	a1,9d003c04 <malloc+0x77c>
9d003bb8:	2c650055 	sltiu	a1,v1,85
9d003bbc:	0b400da5 	j	9d003694 <malloc+0x20c>
9d003bc0:	2465005b 	addiu	a1,v1,91
9d003bc4:	0b400d45 	j	9d003514 <malloc+0x8c>
9d003bc8:	00001021 	move	v0,zero
9d003bcc:	0b400d64 	j	9d003590 <malloc+0x108>
9d003bd0:	2408007e 	li	t0,126
9d003bd4:	24020001 	li	v0,1
9d003bd8:	ae620004 	sw	v0,4(s3)
9d003bdc:	02609021 	move	s2,s3
9d003be0:	0b400e4e 	j	9d003938 <malloc+0x4b0>
9d003be4:	00001021 	move	v0,zero
9d003be8:	00052883 	sra	a1,a1,0x2
9d003bec:	24070001 	li	a3,1
9d003bf0:	00a72804 	sllv	a1,a3,a1
9d003bf4:	00a42025 	or	a0,a1,a0
9d003bf8:	ae240004 	sw	a0,4(s1)
9d003bfc:	0b400db4 	j	9d0036d0 <malloc+0x248>
9d003c00:	00602821 	move	a1,v1
9d003c04:	50a00016 	beqzl	a1,9d003c60 <malloc+0x7d8>
9d003c08:	2c650155 	sltiu	a1,v1,341
9d003c0c:	00042b02 	srl	a1,a0,0xc
9d003c10:	0b400da5 	j	9d003694 <malloc+0x20c>
9d003c14:	24a5006e 	addiu	a1,a1,110
9d003c18:	02e52024 	and	a0,s7,a1
9d003c1c:	5480ffa4 	bnezl	a0,9d003ab0 <malloc+0x628>
9d003c20:	8fc61604 	lw	a2,5636(s8)
9d003c24:	8e230008 	lw	v1,8(s1)
9d003c28:	02b42021 	addu	a0,s5,s4
9d003c2c:	34840001 	ori	a0,a0,0x1
9d003c30:	0b400ed9 	j	9d003b64 <malloc+0x6dc>
9d003c34:	ac640004 	sw	a0,4(v1)
9d003c38:	0f401e0b 	jal	9d00782c <free>
9d003c3c:	26440008 	addiu	a0,s2,8
9d003c40:	3c02a000 	lui	v0,0xa000
9d003c44:	0b400ed9 	j	9d003b64 <malloc+0x6dc>
9d003c48:	8c421b70 	lw	v0,7024(v0)
9d003c4c:	24040001 	li	a0,1
9d003c50:	0b400ec5 	j	9d003b14 <malloc+0x68c>
9d003c54:	0000a821 	move	s5,zero
9d003c58:	0b400eb2 	j	9d003ac8 <malloc+0x640>
9d003c5c:	ac531604 	sw	s3,5636(v0)
9d003c60:	10a00004 	beqz	a1,9d003c74 <malloc+0x7ec>
9d003c64:	2c630555 	sltiu	v1,v1,1365
9d003c68:	00042bc2 	srl	a1,a0,0xf
9d003c6c:	0b400da5 	j	9d003694 <malloc+0x20c>
9d003c70:	24a50077 	addiu	a1,a1,119
9d003c74:	1060fe87 	beqz	v1,9d003694 <malloc+0x20c>
9d003c78:	2405007e 	li	a1,126
9d003c7c:	00042c82 	srl	a1,a0,0x12
9d003c80:	0b400da5 	j	9d003694 <malloc+0x20c>
9d003c84:	24a5007c 	addiu	a1,a1,124

Disassembly of section .dinit:

9d003c88 <.dinit>:
9d003c88:	a0000024 	sb	zero,36(zero)
9d003c8c:	000015e0 	0x15e0
9d003c90:	00000000 	nop
9d003c94:	a0000008 	sb	zero,8(zero)
9d003c98:	00000018 	mult	zero,zero
9d003c9c:	00000000 	nop
9d003ca0:	a0001a14 	sb	zero,6676(zero)
9d003ca4:	000000d4 	0xd4
9d003ca8:	00000001 	movf	zero,zero,$fcc0
9d003cac:	a0001a78 	sb	zero,6776(zero)
9d003cb0:	a0001a94 	sb	zero,6804(zero)
9d003cb4:	a0001ab0 	sb	zero,6832(zero)
9d003cb8:	a0001a74 	sb	zero,6772(zero)
9d003cbc:	a0001ae8 	sb	zero,6888(zero)
9d003cc0:	00000001 	movf	zero,zero,$fcc0
	...
9d003d10:	ffffffff 	sdc3	$31,-1(ra)
9d003d14:	ffffffff 	sdc3	$31,-1(ra)
9d003d18:	00000000 	nop
9d003d1c:	00000040 	ssnop
9d003d20:	00001009 	jalr	v0,zero
9d003d24:	00000000 	nop
9d003d28:	9d00a5e4 	0x9d00a5e4
9d003d2c:	ffffffff 	sdc3	$31,-1(ra)
	...
9d003d3c:	00011002 	srl	v0,at,0x0
9d003d40:	00000000 	nop
9d003d44:	9d00a5e4 	0x9d00a5e4
9d003d48:	ffffffff 	sdc3	$31,-1(ra)
	...
9d003d58:	00020002 	srl	zero,v0,0x0
9d003d5c:	00000000 	nop
9d003d60:	9d00a5e4 	0x9d00a5e4
9d003d64:	fffffffd 	sdc3	$31,-3(ra)
	...
9d003d80:	a0001ae8 	sb	zero,6888(zero)
9d003d84:	00000088 	0x88
9d003d88:	00000000 	nop
9d003d8c:	a0000000 	sb	zero,0(zero)
9d003d90:	00000004 	sllv	zero,zero,zero
9d003d94:	00000001 	movf	zero,zero,$fcc0
9d003d98:	a0001a14 	sb	zero,6676(zero)
9d003d9c:	a0001be8 	sb	zero,7144(zero)
9d003da0:	00000004 	sllv	zero,zero,zero
9d003da4:	00000000 	nop
9d003da8:	a0001604 	sb	zero,5636(zero)
9d003dac:	00000410 	0x410
9d003db0:	00000001 	movf	zero,zero,$fcc0
9d003db4:	ffffffff 	sdc3	$31,-1(ra)
9d003db8:	00002000 	sll	a0,zero,0x0
	...
9d003dc4:	a000160c 	sb	zero,5644(zero)
9d003dc8:	a000160c 	sb	zero,5644(zero)
9d003dcc:	a0001614 	sb	zero,5652(zero)
9d003dd0:	a0001614 	sb	zero,5652(zero)
9d003dd4:	a000161c 	sb	zero,5660(zero)
9d003dd8:	a000161c 	sb	zero,5660(zero)
9d003ddc:	a0001624 	sb	zero,5668(zero)
9d003de0:	a0001624 	sb	zero,5668(zero)
9d003de4:	a000162c 	sb	zero,5676(zero)
9d003de8:	a000162c 	sb	zero,5676(zero)
9d003dec:	a0001634 	sb	zero,5684(zero)
9d003df0:	a0001634 	sb	zero,5684(zero)
9d003df4:	a000163c 	sb	zero,5692(zero)
9d003df8:	a000163c 	sb	zero,5692(zero)
9d003dfc:	a0001644 	sb	zero,5700(zero)
9d003e00:	a0001644 	sb	zero,5700(zero)
9d003e04:	a000164c 	sb	zero,5708(zero)
9d003e08:	a000164c 	sb	zero,5708(zero)
9d003e0c:	a0001654 	sb	zero,5716(zero)
9d003e10:	a0001654 	sb	zero,5716(zero)
9d003e14:	a000165c 	sb	zero,5724(zero)
9d003e18:	a000165c 	sb	zero,5724(zero)
9d003e1c:	a0001664 	sb	zero,5732(zero)
9d003e20:	a0001664 	sb	zero,5732(zero)
9d003e24:	a000166c 	sb	zero,5740(zero)
9d003e28:	a000166c 	sb	zero,5740(zero)
9d003e2c:	a0001674 	sb	zero,5748(zero)
9d003e30:	a0001674 	sb	zero,5748(zero)
9d003e34:	a000167c 	sb	zero,5756(zero)
9d003e38:	a000167c 	sb	zero,5756(zero)
9d003e3c:	a0001684 	sb	zero,5764(zero)
9d003e40:	a0001684 	sb	zero,5764(zero)
9d003e44:	a000168c 	sb	zero,5772(zero)
9d003e48:	a000168c 	sb	zero,5772(zero)
9d003e4c:	a0001694 	sb	zero,5780(zero)
9d003e50:	a0001694 	sb	zero,5780(zero)
9d003e54:	a000169c 	sb	zero,5788(zero)
9d003e58:	a000169c 	sb	zero,5788(zero)
9d003e5c:	a00016a4 	sb	zero,5796(zero)
9d003e60:	a00016a4 	sb	zero,5796(zero)
9d003e64:	a00016ac 	sb	zero,5804(zero)
9d003e68:	a00016ac 	sb	zero,5804(zero)
9d003e6c:	a00016b4 	sb	zero,5812(zero)
9d003e70:	a00016b4 	sb	zero,5812(zero)
9d003e74:	a00016bc 	sb	zero,5820(zero)
9d003e78:	a00016bc 	sb	zero,5820(zero)
9d003e7c:	a00016c4 	sb	zero,5828(zero)
9d003e80:	a00016c4 	sb	zero,5828(zero)
9d003e84:	a00016cc 	sb	zero,5836(zero)
9d003e88:	a00016cc 	sb	zero,5836(zero)
9d003e8c:	a00016d4 	sb	zero,5844(zero)
9d003e90:	a00016d4 	sb	zero,5844(zero)
9d003e94:	a00016dc 	sb	zero,5852(zero)
9d003e98:	a00016dc 	sb	zero,5852(zero)
9d003e9c:	a00016e4 	sb	zero,5860(zero)
9d003ea0:	a00016e4 	sb	zero,5860(zero)
9d003ea4:	a00016ec 	sb	zero,5868(zero)
9d003ea8:	a00016ec 	sb	zero,5868(zero)
9d003eac:	a00016f4 	sb	zero,5876(zero)
9d003eb0:	a00016f4 	sb	zero,5876(zero)
9d003eb4:	a00016fc 	sb	zero,5884(zero)
9d003eb8:	a00016fc 	sb	zero,5884(zero)
9d003ebc:	a0001704 	sb	zero,5892(zero)
9d003ec0:	a0001704 	sb	zero,5892(zero)
9d003ec4:	a000170c 	sb	zero,5900(zero)
9d003ec8:	a000170c 	sb	zero,5900(zero)
9d003ecc:	a0001714 	sb	zero,5908(zero)
9d003ed0:	a0001714 	sb	zero,5908(zero)
9d003ed4:	a000171c 	sb	zero,5916(zero)
9d003ed8:	a000171c 	sb	zero,5916(zero)
9d003edc:	a0001724 	sb	zero,5924(zero)
9d003ee0:	a0001724 	sb	zero,5924(zero)
9d003ee4:	a000172c 	sb	zero,5932(zero)
9d003ee8:	a000172c 	sb	zero,5932(zero)
9d003eec:	a0001734 	sb	zero,5940(zero)
9d003ef0:	a0001734 	sb	zero,5940(zero)
9d003ef4:	a000173c 	sb	zero,5948(zero)
9d003ef8:	a000173c 	sb	zero,5948(zero)
9d003efc:	a0001744 	sb	zero,5956(zero)
9d003f00:	a0001744 	sb	zero,5956(zero)
9d003f04:	a000174c 	sb	zero,5964(zero)
9d003f08:	a000174c 	sb	zero,5964(zero)
9d003f0c:	a0001754 	sb	zero,5972(zero)
9d003f10:	a0001754 	sb	zero,5972(zero)
9d003f14:	a000175c 	sb	zero,5980(zero)
9d003f18:	a000175c 	sb	zero,5980(zero)
9d003f1c:	a0001764 	sb	zero,5988(zero)
9d003f20:	a0001764 	sb	zero,5988(zero)
9d003f24:	a000176c 	sb	zero,5996(zero)
9d003f28:	a000176c 	sb	zero,5996(zero)
9d003f2c:	a0001774 	sb	zero,6004(zero)
9d003f30:	a0001774 	sb	zero,6004(zero)
9d003f34:	a000177c 	sb	zero,6012(zero)
9d003f38:	a000177c 	sb	zero,6012(zero)
9d003f3c:	a0001784 	sb	zero,6020(zero)
9d003f40:	a0001784 	sb	zero,6020(zero)
9d003f44:	a000178c 	sb	zero,6028(zero)
9d003f48:	a000178c 	sb	zero,6028(zero)
9d003f4c:	a0001794 	sb	zero,6036(zero)
9d003f50:	a0001794 	sb	zero,6036(zero)
9d003f54:	a000179c 	sb	zero,6044(zero)
9d003f58:	a000179c 	sb	zero,6044(zero)
9d003f5c:	a00017a4 	sb	zero,6052(zero)
9d003f60:	a00017a4 	sb	zero,6052(zero)
9d003f64:	a00017ac 	sb	zero,6060(zero)
9d003f68:	a00017ac 	sb	zero,6060(zero)
9d003f6c:	a00017b4 	sb	zero,6068(zero)
9d003f70:	a00017b4 	sb	zero,6068(zero)
9d003f74:	a00017bc 	sb	zero,6076(zero)
9d003f78:	a00017bc 	sb	zero,6076(zero)
9d003f7c:	a00017c4 	sb	zero,6084(zero)
9d003f80:	a00017c4 	sb	zero,6084(zero)
9d003f84:	a00017cc 	sb	zero,6092(zero)
9d003f88:	a00017cc 	sb	zero,6092(zero)
9d003f8c:	a00017d4 	sb	zero,6100(zero)
9d003f90:	a00017d4 	sb	zero,6100(zero)
9d003f94:	a00017dc 	sb	zero,6108(zero)
9d003f98:	a00017dc 	sb	zero,6108(zero)
9d003f9c:	a00017e4 	sb	zero,6116(zero)
9d003fa0:	a00017e4 	sb	zero,6116(zero)
9d003fa4:	a00017ec 	sb	zero,6124(zero)
9d003fa8:	a00017ec 	sb	zero,6124(zero)
9d003fac:	a00017f4 	sb	zero,6132(zero)
9d003fb0:	a00017f4 	sb	zero,6132(zero)
9d003fb4:	a00017fc 	sb	zero,6140(zero)
9d003fb8:	a00017fc 	sb	zero,6140(zero)
9d003fbc:	a0001804 	sb	zero,6148(zero)
9d003fc0:	a0001804 	sb	zero,6148(zero)
9d003fc4:	a000180c 	sb	zero,6156(zero)
9d003fc8:	a000180c 	sb	zero,6156(zero)
9d003fcc:	a0001814 	sb	zero,6164(zero)
9d003fd0:	a0001814 	sb	zero,6164(zero)
9d003fd4:	a000181c 	sb	zero,6172(zero)
9d003fd8:	a000181c 	sb	zero,6172(zero)
9d003fdc:	a0001824 	sb	zero,6180(zero)
9d003fe0:	a0001824 	sb	zero,6180(zero)
9d003fe4:	a000182c 	sb	zero,6188(zero)
9d003fe8:	a000182c 	sb	zero,6188(zero)
9d003fec:	a0001834 	sb	zero,6196(zero)
9d003ff0:	a0001834 	sb	zero,6196(zero)
9d003ff4:	a000183c 	sb	zero,6204(zero)
9d003ff8:	a000183c 	sb	zero,6204(zero)
9d003ffc:	a0001844 	sb	zero,6212(zero)
9d004000:	a0001844 	sb	zero,6212(zero)
9d004004:	a000184c 	sb	zero,6220(zero)
9d004008:	a000184c 	sb	zero,6220(zero)
9d00400c:	a0001854 	sb	zero,6228(zero)
9d004010:	a0001854 	sb	zero,6228(zero)
9d004014:	a000185c 	sb	zero,6236(zero)
9d004018:	a000185c 	sb	zero,6236(zero)
9d00401c:	a0001864 	sb	zero,6244(zero)
9d004020:	a0001864 	sb	zero,6244(zero)
9d004024:	a000186c 	sb	zero,6252(zero)
9d004028:	a000186c 	sb	zero,6252(zero)
9d00402c:	a0001874 	sb	zero,6260(zero)
9d004030:	a0001874 	sb	zero,6260(zero)
9d004034:	a000187c 	sb	zero,6268(zero)
9d004038:	a000187c 	sb	zero,6268(zero)
9d00403c:	a0001884 	sb	zero,6276(zero)
9d004040:	a0001884 	sb	zero,6276(zero)
9d004044:	a000188c 	sb	zero,6284(zero)
9d004048:	a000188c 	sb	zero,6284(zero)
9d00404c:	a0001894 	sb	zero,6292(zero)
9d004050:	a0001894 	sb	zero,6292(zero)
9d004054:	a000189c 	sb	zero,6300(zero)
9d004058:	a000189c 	sb	zero,6300(zero)
9d00405c:	a00018a4 	sb	zero,6308(zero)
9d004060:	a00018a4 	sb	zero,6308(zero)
9d004064:	a00018ac 	sb	zero,6316(zero)
9d004068:	a00018ac 	sb	zero,6316(zero)
9d00406c:	a00018b4 	sb	zero,6324(zero)
9d004070:	a00018b4 	sb	zero,6324(zero)
9d004074:	a00018bc 	sb	zero,6332(zero)
9d004078:	a00018bc 	sb	zero,6332(zero)
9d00407c:	a00018c4 	sb	zero,6340(zero)
9d004080:	a00018c4 	sb	zero,6340(zero)
9d004084:	a00018cc 	sb	zero,6348(zero)
9d004088:	a00018cc 	sb	zero,6348(zero)
9d00408c:	a00018d4 	sb	zero,6356(zero)
9d004090:	a00018d4 	sb	zero,6356(zero)
9d004094:	a00018dc 	sb	zero,6364(zero)
9d004098:	a00018dc 	sb	zero,6364(zero)
9d00409c:	a00018e4 	sb	zero,6372(zero)
9d0040a0:	a00018e4 	sb	zero,6372(zero)
9d0040a4:	a00018ec 	sb	zero,6380(zero)
9d0040a8:	a00018ec 	sb	zero,6380(zero)
9d0040ac:	a00018f4 	sb	zero,6388(zero)
9d0040b0:	a00018f4 	sb	zero,6388(zero)
9d0040b4:	a00018fc 	sb	zero,6396(zero)
9d0040b8:	a00018fc 	sb	zero,6396(zero)
9d0040bc:	a0001904 	sb	zero,6404(zero)
9d0040c0:	a0001904 	sb	zero,6404(zero)
9d0040c4:	a000190c 	sb	zero,6412(zero)
9d0040c8:	a000190c 	sb	zero,6412(zero)
9d0040cc:	a0001914 	sb	zero,6420(zero)
9d0040d0:	a0001914 	sb	zero,6420(zero)
9d0040d4:	a000191c 	sb	zero,6428(zero)
9d0040d8:	a000191c 	sb	zero,6428(zero)
9d0040dc:	a0001924 	sb	zero,6436(zero)
9d0040e0:	a0001924 	sb	zero,6436(zero)
9d0040e4:	a000192c 	sb	zero,6444(zero)
9d0040e8:	a000192c 	sb	zero,6444(zero)
9d0040ec:	a0001934 	sb	zero,6452(zero)
9d0040f0:	a0001934 	sb	zero,6452(zero)
9d0040f4:	a000193c 	sb	zero,6460(zero)
9d0040f8:	a000193c 	sb	zero,6460(zero)
9d0040fc:	a0001944 	sb	zero,6468(zero)
9d004100:	a0001944 	sb	zero,6468(zero)
9d004104:	a000194c 	sb	zero,6476(zero)
9d004108:	a000194c 	sb	zero,6476(zero)
9d00410c:	a0001954 	sb	zero,6484(zero)
9d004110:	a0001954 	sb	zero,6484(zero)
9d004114:	a000195c 	sb	zero,6492(zero)
9d004118:	a000195c 	sb	zero,6492(zero)
9d00411c:	a0001964 	sb	zero,6500(zero)
9d004120:	a0001964 	sb	zero,6500(zero)
9d004124:	a000196c 	sb	zero,6508(zero)
9d004128:	a000196c 	sb	zero,6508(zero)
9d00412c:	a0001974 	sb	zero,6516(zero)
9d004130:	a0001974 	sb	zero,6516(zero)
9d004134:	a000197c 	sb	zero,6524(zero)
9d004138:	a000197c 	sb	zero,6524(zero)
9d00413c:	a0001984 	sb	zero,6532(zero)
9d004140:	a0001984 	sb	zero,6532(zero)
9d004144:	a000198c 	sb	zero,6540(zero)
9d004148:	a000198c 	sb	zero,6540(zero)
9d00414c:	a0001994 	sb	zero,6548(zero)
9d004150:	a0001994 	sb	zero,6548(zero)
9d004154:	a000199c 	sb	zero,6556(zero)
9d004158:	a000199c 	sb	zero,6556(zero)
9d00415c:	a00019a4 	sb	zero,6564(zero)
9d004160:	a00019a4 	sb	zero,6564(zero)
9d004164:	a00019ac 	sb	zero,6572(zero)
9d004168:	a00019ac 	sb	zero,6572(zero)
9d00416c:	a00019b4 	sb	zero,6580(zero)
9d004170:	a00019b4 	sb	zero,6580(zero)
9d004174:	a00019bc 	sb	zero,6588(zero)
9d004178:	a00019bc 	sb	zero,6588(zero)
9d00417c:	a00019c4 	sb	zero,6596(zero)
9d004180:	a00019c4 	sb	zero,6596(zero)
9d004184:	a00019cc 	sb	zero,6604(zero)
9d004188:	a00019cc 	sb	zero,6604(zero)
9d00418c:	a00019d4 	sb	zero,6612(zero)
9d004190:	a00019d4 	sb	zero,6612(zero)
9d004194:	a00019dc 	sb	zero,6620(zero)
9d004198:	a00019dc 	sb	zero,6620(zero)
9d00419c:	a00019e4 	sb	zero,6628(zero)
9d0041a0:	a00019e4 	sb	zero,6628(zero)
9d0041a4:	a00019ec 	sb	zero,6636(zero)
9d0041a8:	a00019ec 	sb	zero,6636(zero)
9d0041ac:	a00019f4 	sb	zero,6644(zero)
9d0041b0:	a00019f4 	sb	zero,6644(zero)
9d0041b4:	a00019fc 	sb	zero,6652(zero)
9d0041b8:	a00019fc 	sb	zero,6652(zero)
9d0041bc:	a0001a04 	sb	zero,6660(zero)
9d0041c0:	a0001a04 	sb	zero,6660(zero)
9d0041c4:	a0001b70 	sb	zero,7024(zero)
9d0041c8:	00000034 	teq	zero,zero
9d0041cc:	00000000 	nop
9d0041d0:	a0000020 	sb	zero,32(zero)
9d0041d4:	00000004 	sllv	zero,zero,zero
9d0041d8:	00000000 	nop
9d0041dc:	a0001bc8 	sb	zero,7112(zero)
9d0041e0:	00000020 	add	zero,zero,zero
9d0041e4:	00000001 	movf	zero,zero,$fcc0
9d0041e8:	00000000 	nop
9d0041ec:	ffffffff 	sdc3	$31,-1(ra)
	...
9d004208:	a0001bec 	sb	zero,7148(zero)
9d00420c:	00000004 	sllv	zero,zero,zero
9d004210:	00000000 	nop
9d004214:	a0001ba4 	sb	zero,7076(zero)
9d004218:	00000024 	and	zero,zero,zero
9d00421c:	00000000 	nop
9d004220:	a0000004 	sb	zero,4(zero)
9d004224:	00000004 	sllv	zero,zero,zero
9d004228:	00000001 	movf	zero,zero,$fcc0
9d00422c:	00000002 	srl	zero,zero,0x0
9d004230:	00000000 	nop
9d004234:	22222222 	addi	v0,s1,8738

Disassembly of section .text.realloc:

9d004238 <realloc>:
9d004238:	27bdffc8 	addiu	sp,sp,-56
9d00423c:	afbf0034 	sw	ra,52(sp)
9d004240:	afbe0030 	sw	s8,48(sp)
9d004244:	afb7002c 	sw	s7,44(sp)
9d004248:	afb60028 	sw	s6,40(sp)
9d00424c:	afb50024 	sw	s5,36(sp)
9d004250:	afb40020 	sw	s4,32(sp)
9d004254:	afb3001c 	sw	s3,28(sp)
9d004258:	afb20018 	sw	s2,24(sp)
9d00425c:	afb10014 	sw	s1,20(sp)
9d004260:	afb00010 	sw	s0,16(sp)
9d004264:	108000e5 	beqz	a0,9d0045fc <realloc+0x3c4>
9d004268:	00808021 	move	s0,a0
9d00426c:	8c94fffc 	lw	s4,-4(a0)
9d004270:	24b2000b 	addiu	s2,a1,11
9d004274:	2e420017 	sltiu	v0,s2,23
9d004278:	2493fff8 	addiu	s3,a0,-8
9d00427c:	2403fffc 	li	v1,-4
9d004280:	10400047 	beqz	v0,9d0043a0 <realloc+0x168>
9d004284:	02838824 	and	s1,s4,v1
9d004288:	24030010 	li	v1,16
9d00428c:	24120010 	li	s2,16
9d004290:	0245102b 	sltu	v0,s2,a1
9d004294:	14400045 	bnez	v0,9d0043ac <realloc+0x174>
9d004298:	0223102a 	slt	v0,s1,v1
9d00429c:	10400053 	beqz	v0,9d0043ec <realloc+0x1b4>
9d0042a0:	32950001 	andi	s5,s4,0x1
9d0042a4:	3c17a000 	lui	s7,0xa000
9d0042a8:	26f7160c 	addiu	s7,s7,5644
9d0042ac:	8ee40008 	lw	a0,8(s7)
9d0042b0:	02711021 	addu	v0,s3,s1
9d0042b4:	108200b6 	beq	a0,v0,9d004590 <realloc+0x358>
9d0042b8:	2408fffe 	li	t0,-2
9d0042bc:	8c460004 	lw	a2,4(v0)
9d0042c0:	00c83824 	and	a3,a2,t0
9d0042c4:	00473821 	addu	a3,v0,a3
9d0042c8:	8ce70004 	lw	a3,4(a3)
9d0042cc:	30e70001 	andi	a3,a3,0x1
9d0042d0:	10e0005e 	beqz	a3,9d00444c <realloc+0x214>
9d0042d4:	7c060804 	ins	a2,zero,0x0,0x2
9d0042d8:	00003021 	move	a2,zero
9d0042dc:	00001021 	move	v0,zero
9d0042e0:	32950001 	andi	s5,s4,0x1
9d0042e4:	16a00073 	bnez	s5,9d0044b4 <realloc+0x27c>
9d0042e8:	00000000 	nop
9d0042ec:	8e16fff8 	lw	s6,-8(s0)
9d0042f0:	0276b023 	subu	s6,s3,s6
9d0042f4:	8ec70004 	lw	a3,4(s6)
9d0042f8:	104000c9 	beqz	v0,9d004620 <realloc+0x3e8>
9d0042fc:	7c070804 	ins	a3,zero,0x0,0x2
9d004300:	104400c9 	beq	v0,a0,9d004628 <realloc+0x3f0>
9d004304:	00f13821 	addu	a3,a3,s1
9d004308:	00c7b821 	addu	s7,a2,a3
9d00430c:	02e3202a 	slt	a0,s7,v1
9d004310:	5480008d 	bnezl	a0,9d004548 <realloc+0x310>
9d004314:	00e0b821 	move	s7,a3
9d004318:	8c43000c 	lw	v1,12(v0)
9d00431c:	8c420008 	lw	v0,8(v0)
9d004320:	2626fffc 	addiu	a2,s1,-4
9d004324:	2cc40025 	sltiu	a0,a2,37
9d004328:	ac43000c 	sw	v1,12(v0)
9d00432c:	ac620008 	sw	v0,8(v1)
9d004330:	8ec2000c 	lw	v0,12(s6)
9d004334:	8ec30008 	lw	v1,8(s6)
9d004338:	26d40008 	addiu	s4,s6,8
9d00433c:	ac62000c 	sw	v0,12(v1)
9d004340:	1080008b 	beqz	a0,9d004570 <realloc+0x338>
9d004344:	ac430008 	sw	v1,8(v0)
9d004348:	2cc20014 	sltiu	v0,a2,20
9d00434c:	14400009 	bnez	v0,9d004374 <realloc+0x13c>
9d004350:	02801821 	move	v1,s4
9d004354:	8e030000 	lw	v1,0(s0)
9d004358:	2cc2001c 	sltiu	v0,a2,28
9d00435c:	aec30008 	sw	v1,8(s6)
9d004360:	8e030004 	lw	v1,4(s0)
9d004364:	104000e8 	beqz	v0,9d004708 <realloc+0x4d0>
9d004368:	aec3000c 	sw	v1,12(s6)
9d00436c:	26c30010 	addiu	v1,s6,16
9d004370:	26100008 	addiu	s0,s0,8
9d004374:	8e020000 	lw	v0,0(s0)
9d004378:	02e08821 	move	s1,s7
9d00437c:	ac620000 	sw	v0,0(v1)
9d004380:	8e020004 	lw	v0,4(s0)
9d004384:	02c09821 	move	s3,s6
9d004388:	ac620004 	sw	v0,4(v1)
9d00438c:	8e020008 	lw	v0,8(s0)
9d004390:	ac620008 	sw	v0,8(v1)
9d004394:	8ed50004 	lw	s5,4(s6)
9d004398:	0b4010fc 	j	9d0043f0 <realloc+0x1b8>
9d00439c:	32b50001 	andi	s5,s5,0x1
9d0043a0:	7c121004 	ins	s2,zero,0x0,0x3
9d0043a4:	0641ffba 	bgez	s2,9d004290 <realloc+0x58>
9d0043a8:	02401821 	move	v1,s2
9d0043ac:	2403000c 	li	v1,12
9d0043b0:	3c02a000 	lui	v0,0xa000
9d0043b4:	ac430020 	sw	v1,32(v0)
9d0043b8:	00001021 	move	v0,zero
9d0043bc:	8fbf0034 	lw	ra,52(sp)
9d0043c0:	8fbe0030 	lw	s8,48(sp)
9d0043c4:	8fb7002c 	lw	s7,44(sp)
9d0043c8:	8fb60028 	lw	s6,40(sp)
9d0043cc:	8fb50024 	lw	s5,36(sp)
9d0043d0:	8fb40020 	lw	s4,32(sp)
9d0043d4:	8fb3001c 	lw	s3,28(sp)
9d0043d8:	8fb20018 	lw	s2,24(sp)
9d0043dc:	8fb10014 	lw	s1,20(sp)
9d0043e0:	8fb00010 	lw	s0,16(sp)
9d0043e4:	03e00008 	jr	ra
9d0043e8:	27bd0038 	addiu	sp,sp,56
9d0043ec:	0200a021 	move	s4,s0
9d0043f0:	02321823 	subu	v1,s1,s2
9d0043f4:	2c650010 	sltiu	a1,v1,16
9d0043f8:	10a00022 	beqz	a1,9d004484 <realloc+0x24c>
9d0043fc:	02722021 	addu	a0,s3,s2
9d004400:	02b1a825 	or	s5,s5,s1
9d004404:	ae750004 	sw	s5,4(s3)
9d004408:	02718821 	addu	s1,s3,s1
9d00440c:	8e220004 	lw	v0,4(s1)
9d004410:	34420001 	ori	v0,v0,0x1
9d004414:	ae220004 	sw	v0,4(s1)
9d004418:	02801021 	move	v0,s4
9d00441c:	8fbf0034 	lw	ra,52(sp)
9d004420:	8fbe0030 	lw	s8,48(sp)
9d004424:	8fb7002c 	lw	s7,44(sp)
9d004428:	8fb60028 	lw	s6,40(sp)
9d00442c:	8fb50024 	lw	s5,36(sp)
9d004430:	8fb40020 	lw	s4,32(sp)
9d004434:	8fb3001c 	lw	s3,28(sp)
9d004438:	8fb20018 	lw	s2,24(sp)
9d00443c:	8fb10014 	lw	s1,20(sp)
9d004440:	8fb00010 	lw	s0,16(sp)
9d004444:	03e00008 	jr	ra
9d004448:	27bd0038 	addiu	sp,sp,56
9d00444c:	00d13821 	addu	a3,a2,s1
9d004450:	00e3402a 	slt	t0,a3,v1
9d004454:	1500ffa3 	bnez	t0,9d0042e4 <realloc+0xac>
9d004458:	32950001 	andi	s5,s4,0x1
9d00445c:	8c43000c 	lw	v1,12(v0)
9d004460:	8c420008 	lw	v0,8(v0)
9d004464:	ac43000c 	sw	v1,12(v0)
9d004468:	00e08821 	move	s1,a3
9d00446c:	ac620008 	sw	v0,8(v1)
9d004470:	02321823 	subu	v1,s1,s2
9d004474:	2c650010 	sltiu	a1,v1,16
9d004478:	14a0ffe1 	bnez	a1,9d004400 <realloc+0x1c8>
9d00447c:	0200a021 	move	s4,s0
9d004480:	02722021 	addu	a0,s3,s2
9d004484:	02b29025 	or	s2,s5,s2
9d004488:	34620001 	ori	v0,v1,0x1
9d00448c:	ae720004 	sw	s2,4(s3)
9d004490:	00831821 	addu	v1,a0,v1
9d004494:	ac820004 	sw	v0,4(a0)
9d004498:	8c620004 	lw	v0,4(v1)
9d00449c:	24840008 	addiu	a0,a0,8
9d0044a0:	34420001 	ori	v0,v0,0x1
9d0044a4:	0f401e0b 	jal	9d00782c <free>
9d0044a8:	ac620004 	sw	v0,4(v1)
9d0044ac:	0b401107 	j	9d00441c <realloc+0x1e4>
9d0044b0:	02801021 	move	v0,s4
9d0044b4:	0f400d22 	jal	9d003488 <malloc>
9d0044b8:	00a02021 	move	a0,a1
9d0044bc:	104000ad 	beqz	v0,9d004774 <realloc+0x53c>
9d0044c0:	0040b021 	move	s6,v0
9d0044c4:	7c140004 	ins	s4,zero,0x0,0x1
9d0044c8:	2442fff8 	addiu	v0,v0,-8
9d0044cc:	0274a021 	addu	s4,s3,s4
9d0044d0:	10540088 	beq	v0,s4,9d0046f4 <realloc+0x4bc>
9d0044d4:	2626fffc 	addiu	a2,s1,-4
9d0044d8:	2cc20025 	sltiu	v0,a2,37
9d0044dc:	1040004b 	beqz	v0,9d00460c <realloc+0x3d4>
9d0044e0:	2cc20014 	sltiu	v0,a2,20
9d0044e4:	50400033 	beqzl	v0,9d0045b4 <realloc+0x37c>
9d0044e8:	8e040000 	lw	a0,0(s0)
9d0044ec:	02c01021 	move	v0,s6
9d0044f0:	02001821 	move	v1,s0
9d0044f4:	8c650000 	lw	a1,0(v1)
9d0044f8:	8c640004 	lw	a0,4(v1)
9d0044fc:	8c630008 	lw	v1,8(v1)
9d004500:	ac450000 	sw	a1,0(v0)
9d004504:	ac440004 	sw	a0,4(v0)
9d004508:	ac430008 	sw	v1,8(v0)
9d00450c:	0f401e0b 	jal	9d00782c <free>
9d004510:	02002021 	move	a0,s0
9d004514:	02c01021 	move	v0,s6
9d004518:	8fbf0034 	lw	ra,52(sp)
9d00451c:	8fbe0030 	lw	s8,48(sp)
9d004520:	8fb7002c 	lw	s7,44(sp)
9d004524:	8fb60028 	lw	s6,40(sp)
9d004528:	8fb50024 	lw	s5,36(sp)
9d00452c:	8fb40020 	lw	s4,32(sp)
9d004530:	8fb3001c 	lw	s3,28(sp)
9d004534:	8fb20018 	lw	s2,24(sp)
9d004538:	8fb10014 	lw	s1,20(sp)
9d00453c:	8fb00010 	lw	s0,16(sp)
9d004540:	03e00008 	jr	ra
9d004544:	27bd0038 	addiu	sp,sp,56
9d004548:	02e3182a 	slt	v1,s7,v1
9d00454c:	1460ffd9 	bnez	v1,9d0044b4 <realloc+0x27c>
9d004550:	2626fffc 	addiu	a2,s1,-4
9d004554:	8ec2000c 	lw	v0,12(s6)
9d004558:	8ec30008 	lw	v1,8(s6)
9d00455c:	2cc40025 	sltiu	a0,a2,37
9d004560:	ac62000c 	sw	v0,12(v1)
9d004564:	26d40008 	addiu	s4,s6,8
9d004568:	1480ff77 	bnez	a0,9d004348 <realloc+0x110>
9d00456c:	ac430008 	sw	v1,8(v0)
9d004570:	02802021 	move	a0,s4
9d004574:	0f402771 	jal	9d009dc4 <memmove>
9d004578:	02002821 	move	a1,s0
9d00457c:	8ed50004 	lw	s5,4(s6)
9d004580:	02e08821 	move	s1,s7
9d004584:	32b50001 	andi	s5,s5,0x1
9d004588:	0b4010fc 	j	9d0043f0 <realloc+0x1b8>
9d00458c:	02c09821 	move	s3,s6
9d004590:	8c860004 	lw	a2,4(a0)
9d004594:	26470010 	addiu	a3,s2,16
9d004598:	7c060804 	ins	a2,zero,0x0,0x2
9d00459c:	00d11021 	addu	v0,a2,s1
9d0045a0:	0047382a 	slt	a3,v0,a3
9d0045a4:	50e0000b 	beqzl	a3,9d0045d4 <realloc+0x39c>
9d0045a8:	00521023 	subu	v0,v0,s2
9d0045ac:	0b4010b8 	j	9d0042e0 <realloc+0xa8>
9d0045b0:	00801021 	move	v0,a0
9d0045b4:	8e030004 	lw	v1,4(s0)
9d0045b8:	2cc2001c 	sltiu	v0,a2,28
9d0045bc:	aec40000 	sw	a0,0(s6)
9d0045c0:	10400042 	beqz	v0,9d0046cc <realloc+0x494>
9d0045c4:	aec30004 	sw	v1,4(s6)
9d0045c8:	26c20008 	addiu	v0,s6,8
9d0045cc:	0b40113d 	j	9d0044f4 <realloc+0x2bc>
9d0045d0:	26030008 	addiu	v1,s0,8
9d0045d4:	02729821 	addu	s3,s3,s2
9d0045d8:	34420001 	ori	v0,v0,0x1
9d0045dc:	aef30008 	sw	s3,8(s7)
9d0045e0:	ae620004 	sw	v0,4(s3)
9d0045e4:	8e03fffc 	lw	v1,-4(s0)
9d0045e8:	02001021 	move	v0,s0
9d0045ec:	30630001 	andi	v1,v1,0x1
9d0045f0:	02439025 	or	s2,s2,v1
9d0045f4:	0b401107 	j	9d00441c <realloc+0x1e4>
9d0045f8:	ae12fffc 	sw	s2,-4(s0)
9d0045fc:	0f400d22 	jal	9d003488 <malloc>
9d004600:	00a02021 	move	a0,a1
9d004604:	0b401108 	j	9d004420 <realloc+0x1e8>
9d004608:	8fbf0034 	lw	ra,52(sp)
9d00460c:	02c02021 	move	a0,s6
9d004610:	0f402771 	jal	9d009dc4 <memmove>
9d004614:	02002821 	move	a1,s0
9d004618:	0b401143 	j	9d00450c <realloc+0x2d4>
9d00461c:	00000000 	nop
9d004620:	0b401152 	j	9d004548 <realloc+0x310>
9d004624:	00f1b821 	addu	s7,a3,s1
9d004628:	00c7f021 	addu	s8,a2,a3
9d00462c:	26420010 	addiu	v0,s2,16
9d004630:	03c2102a 	slt	v0,s8,v0
9d004634:	5440ffc4 	bnezl	v0,9d004548 <realloc+0x310>
9d004638:	00e0b821 	move	s7,a3
9d00463c:	8ec3000c 	lw	v1,12(s6)
9d004640:	8ec50008 	lw	a1,8(s6)
9d004644:	2626fffc 	addiu	a2,s1,-4
9d004648:	2cc20025 	sltiu	v0,a2,37
9d00464c:	aca3000c 	sw	v1,12(a1)
9d004650:	26c70008 	addiu	a3,s6,8
9d004654:	10400042 	beqz	v0,9d004760 <realloc+0x528>
9d004658:	ac650008 	sw	a1,8(v1)
9d00465c:	2cc20014 	sltiu	v0,a2,20
9d004660:	14400009 	bnez	v0,9d004688 <realloc+0x450>
9d004664:	00e01821 	move	v1,a3
9d004668:	8e030000 	lw	v1,0(s0)
9d00466c:	2cc2001c 	sltiu	v0,a2,28
9d004670:	aec30008 	sw	v1,8(s6)
9d004674:	8e030004 	lw	v1,4(s0)
9d004678:	10400040 	beqz	v0,9d00477c <realloc+0x544>
9d00467c:	aec3000c 	sw	v1,12(s6)
9d004680:	26c30010 	addiu	v1,s6,16
9d004684:	26100008 	addiu	s0,s0,8
9d004688:	8e020000 	lw	v0,0(s0)
9d00468c:	ac620000 	sw	v0,0(v1)
9d004690:	8e020004 	lw	v0,4(s0)
9d004694:	ac620004 	sw	v0,4(v1)
9d004698:	8e020008 	lw	v0,8(s0)
9d00469c:	ac620008 	sw	v0,8(v1)
9d0046a0:	03d21023 	subu	v0,s8,s2
9d0046a4:	02d21821 	addu	v1,s6,s2
9d0046a8:	34420001 	ori	v0,v0,0x1
9d0046ac:	aee30008 	sw	v1,8(s7)
9d0046b0:	ac620004 	sw	v0,4(v1)
9d0046b4:	8ec30004 	lw	v1,4(s6)
9d0046b8:	00e01021 	move	v0,a3
9d0046bc:	30630001 	andi	v1,v1,0x1
9d0046c0:	02439025 	or	s2,s2,v1
9d0046c4:	0b401107 	j	9d00441c <realloc+0x1e4>
9d0046c8:	aed20004 	sw	s2,4(s6)
9d0046cc:	8e030008 	lw	v1,8(s0)
9d0046d0:	8e02000c 	lw	v0,12(s0)
9d0046d4:	aec30008 	sw	v1,8(s6)
9d0046d8:	aec2000c 	sw	v0,12(s6)
9d0046dc:	24020024 	li	v0,36
9d0046e0:	50c20013 	beql	a2,v0,9d004730 <realloc+0x4f8>
9d0046e4:	8e030010 	lw	v1,16(s0)
9d0046e8:	26c20010 	addiu	v0,s6,16
9d0046ec:	0b40113d 	j	9d0044f4 <realloc+0x2bc>
9d0046f0:	26030010 	addiu	v1,s0,16
9d0046f4:	8ec2fffc 	lw	v0,-4(s6)
9d0046f8:	0200a021 	move	s4,s0
9d0046fc:	7c020804 	ins	v0,zero,0x0,0x2
9d004700:	0b4010fc 	j	9d0043f0 <realloc+0x1b8>
9d004704:	02228821 	addu	s1,s1,v0
9d004708:	8e020008 	lw	v0,8(s0)
9d00470c:	aec20010 	sw	v0,16(s6)
9d004710:	8e02000c 	lw	v0,12(s0)
9d004714:	aec20014 	sw	v0,20(s6)
9d004718:	24020024 	li	v0,36
9d00471c:	50c2000a 	beql	a2,v0,9d004748 <realloc+0x510>
9d004720:	8e020010 	lw	v0,16(s0)
9d004724:	26c30018 	addiu	v1,s6,24
9d004728:	0b4010dd 	j	9d004374 <realloc+0x13c>
9d00472c:	26100010 	addiu	s0,s0,16
9d004730:	8e040014 	lw	a0,20(s0)
9d004734:	26c20018 	addiu	v0,s6,24
9d004738:	aec30010 	sw	v1,16(s6)
9d00473c:	26030018 	addiu	v1,s0,24
9d004740:	0b40113d 	j	9d0044f4 <realloc+0x2bc>
9d004744:	aec40014 	sw	a0,20(s6)
9d004748:	26c30020 	addiu	v1,s6,32
9d00474c:	aec20018 	sw	v0,24(s6)
9d004750:	8e020014 	lw	v0,20(s0)
9d004754:	26100018 	addiu	s0,s0,24
9d004758:	0b4010dd 	j	9d004374 <realloc+0x13c>
9d00475c:	aec2001c 	sw	v0,28(s6)
9d004760:	00e02021 	move	a0,a3
9d004764:	0f402771 	jal	9d009dc4 <memmove>
9d004768:	02002821 	move	a1,s0
9d00476c:	0b4011a8 	j	9d0046a0 <realloc+0x468>
9d004770:	00403821 	move	a3,v0
9d004774:	0b401107 	j	9d00441c <realloc+0x1e4>
9d004778:	00001021 	move	v0,zero
9d00477c:	8e020008 	lw	v0,8(s0)
9d004780:	aec20010 	sw	v0,16(s6)
9d004784:	8e02000c 	lw	v0,12(s0)
9d004788:	aec20014 	sw	v0,20(s6)
9d00478c:	24020024 	li	v0,36
9d004790:	50c20004 	beql	a2,v0,9d0047a4 <realloc+0x56c>
9d004794:	8e020010 	lw	v0,16(s0)
9d004798:	26c30018 	addiu	v1,s6,24
9d00479c:	0b4011a2 	j	9d004688 <realloc+0x450>
9d0047a0:	26100010 	addiu	s0,s0,16
9d0047a4:	26c30020 	addiu	v1,s6,32
9d0047a8:	aec20018 	sw	v0,24(s6)
9d0047ac:	8e020014 	lw	v0,20(s0)
9d0047b0:	26100018 	addiu	s0,s0,24
9d0047b4:	0b4011a2 	j	9d004688 <realloc+0x450>
9d0047b8:	aec2001c 	sw	v0,28(s6)

Disassembly of section .text.dp32mul:

9d0047bc <__divdf3>:
9d0047bc:	00055040 000a5542 00054ac0 00047d42     @P..BU...J..B}..
9d0047cc:	012f4825 000442c0 3c0e8000 012e4825     %H/..B.....<%H..
9d0047dc:	00076840 000d6d42 000762c0 00067d42     @h..Bm...b..B}..
9d0047ec:	018f6025 00065ac0 018e6025 00a72826     %`...Z..%`..&(..
9d0047fc:	00ae2824 254fffff 2de107fe 102000cb     $(....O%...-.. .
9d00480c:	00000000                                ....

9d004810 <Dlab1>:
9d004810:	25afffff 	addiu	t7,t5,-1
9d004814:	2de107fe 	sltiu	at,t7,2046
9d004818:	102000f4 	beqz	at,9d004bec <DspecB>
9d00481c:	00000000 	nop

9d004820 <Dlab2>:
9d004820:	014d5023 	subu	t2,t2,t5
9d004824:	254a03ff 	addiu	t2,t2,1023
9d004828:	00084042 	srl	t0,t0,0x1
9d00482c:	00097fc0 	sll	t7,t1,0x1f
9d004830:	010f4025 	or	t0,t0,t7
9d004834:	00094842 	srl	t1,t1,0x1
9d004838:	000c3c02 	srl	a3,t4,0x10
9d00483c:	00e001f4 	teq	a3,zero,0x7
9d004840:	0127001b 	divu	zero,t1,a3
9d004844:	00007012 	mflo	t6
9d004848:	00004810 	mfhi	t1
9d00484c:	3186ffff 	andi	a2,t4,0xffff
9d004850:	00ce0019 	multu	a2,t6
9d004854:	00002012 	mflo	a0
9d004858:	00094c00 	sll	t1,t1,0x10
9d00485c:	00087c02 	srl	t7,t0,0x10
9d004860:	012f4825 	or	t1,t1,t7
9d004864:	0124782b 	sltu	t7,t1,a0
9d004868:	11e00006 	beqz	t7,9d004884 <i20>
9d00486c:	01244823 	subu	t1,t1,a0

9d004870 <b21>:
9d004870:	25ceffff 	addiu	t6,t6,-1
9d004874:	012c4821 	addu	t1,t1,t4
9d004878:	012c082b 	sltu	at,t1,t4
9d00487c:	1020fffc 	beqz	at,9d004870 <b21>
9d004880:	00000000 	nop

9d004884 <i20>:
9d004884:	00e001f4 	teq	a3,zero,0x7
9d004888:	0127001b 	divu	zero,t1,a3
9d00488c:	00003812 	mflo	a3
9d004890:	00004810 	mfhi	t1
9d004894:	00c70019 	multu	a2,a3
9d004898:	00002012 	mflo	a0
9d00489c:	00094c00 	sll	t1,t1,0x10
9d0048a0:	310fffff 	andi	t7,t0,0xffff
9d0048a4:	012f4825 	or	t1,t1,t7
9d0048a8:	0124782b 	sltu	t7,t1,a0
9d0048ac:	11e00006 	beqz	t7,9d0048c8 <i22>
9d0048b0:	01244823 	subu	t1,t1,a0

9d0048b4 <b23>:
9d0048b4:	24e7ffff 	addiu	a3,a3,-1
9d0048b8:	012c4821 	addu	t1,t1,t4
9d0048bc:	012c082b 	sltu	at,t1,t4
9d0048c0:	1020fffc 	beqz	at,9d0048b4 <b23>
9d0048c4:	00000000 	nop

9d0048c8 <i22>:
9d0048c8:	000e7400 	sll	t6,t6,0x10
9d0048cc:	01c77021 	addu	t6,t6,a3
9d0048d0:	01cb0019 	multu	t6,t3
9d0048d4:	00003812 	mflo	a3
9d0048d8:	00002010 	mfhi	a0
9d0048dc:	24080000 	li	t0,0
9d0048e0:	0107782b 	sltu	t7,t0,a3
9d0048e4:	01074023 	subu	t0,t0,a3
9d0048e8:	012f102b 	sltu	v0,t1,t7
9d0048ec:	012f4823 	subu	t1,t1,t7
9d0048f0:	0124782b 	sltu	t7,t1,a0
9d0048f4:	01e27825 	or	t7,t7,v0
9d0048f8:	11e0000b 	beqz	t7,9d004928 <i24>
9d0048fc:	01244823 	subu	t1,t1,a0

9d004900 <Dlab3>:
9d004900:	25ceffff 	addiu	t6,t6,-1
9d004904:	010b4021 	addu	t0,t0,t3
9d004908:	010b782b 	sltu	t7,t0,t3
9d00490c:	012c4821 	addu	t1,t1,t4
9d004910:	012f4821 	addu	t1,t1,t7
9d004914:	112c0002 	beq	t1,t4,9d004920 <L31>
9d004918:	00000000 	nop
9d00491c:	012c782b 	sltu	t7,t1,t4

9d004920 <L31>:
9d004920:	11e0fff7 	beqz	t7,9d004900 <Dlab3>
9d004924:	00000000 	nop

9d004928 <i24>:
9d004928:	152c0006 	bne	t1,t4,9d004944 <i25>
9d00492c:	00000000 	nop
9d004930:	000b2025 	or	a0,zero,t3
9d004934:	00084825 	or	t1,zero,t0
9d004938:	240d0000 	li	t5,0
9d00493c:	1000002a 	b	9d0049e8 <e25>
9d004940:	000d3825 	or	a3,zero,t5

9d004944 <i25>:
9d004944:	000c3c02 	srl	a3,t4,0x10
9d004948:	00e001f4 	teq	a3,zero,0x7
9d00494c:	0127001b 	divu	zero,t1,a3
9d004950:	00006812 	mflo	t5
9d004954:	00004810 	mfhi	t1
9d004958:	3186ffff 	andi	a2,t4,0xffff
9d00495c:	00cd0019 	multu	a2,t5
9d004960:	00002012 	mflo	a0
9d004964:	00094c00 	sll	t1,t1,0x10
9d004968:	00087c02 	srl	t7,t0,0x10
9d00496c:	012f4825 	or	t1,t1,t7
9d004970:	0124782b 	sltu	t7,t1,a0
9d004974:	11e00006 	beqz	t7,9d004990 <i26>
9d004978:	01244823 	subu	t1,t1,a0

9d00497c <b27>:
9d00497c:	25adffff 	addiu	t5,t5,-1
9d004980:	012c4821 	addu	t1,t1,t4
9d004984:	012c082b 	sltu	at,t1,t4
9d004988:	1020fffc 	beqz	at,9d00497c <b27>
9d00498c:	00000000 	nop

9d004990 <i26>:
9d004990:	00e001f4 	teq	a3,zero,0x7
9d004994:	0127001b 	divu	zero,t1,a3
9d004998:	00003812 	mflo	a3
9d00499c:	00004810 	mfhi	t1
9d0049a0:	00c70019 	multu	a2,a3
9d0049a4:	00002012 	mflo	a0
9d0049a8:	00094c00 	sll	t1,t1,0x10
9d0049ac:	310fffff 	andi	t7,t0,0xffff
9d0049b0:	012f4825 	or	t1,t1,t7
9d0049b4:	0124782b 	sltu	t7,t1,a0
9d0049b8:	11e00006 	beqz	t7,9d0049d4 <i28>
9d0049bc:	01244823 	subu	t1,t1,a0

9d0049c0 <b29>:
9d0049c0:	24e7ffff 	addiu	a3,a3,-1
9d0049c4:	012c4821 	addu	t1,t1,t4
9d0049c8:	012c082b 	sltu	at,t1,t4
9d0049cc:	1020fffc 	beqz	at,9d0049c0 <b29>
9d0049d0:	00000000 	nop

9d0049d4 <i28>:
9d0049d4:	000d6c00 	sll	t5,t5,0x10
9d0049d8:	01a76821 	addu	t5,t5,a3
9d0049dc:	01ab0019 	multu	t5,t3
9d0049e0:	00003812 	mflo	a3
9d0049e4:	00002010 	mfhi	a0

9d0049e8 <e25>:
9d0049e8:	24080000 	li	t0,0
9d0049ec:	0107782b 	sltu	t7,t0,a3
9d0049f0:	01074023 	subu	t0,t0,a3
9d0049f4:	012f102b 	sltu	v0,t1,t7
9d0049f8:	012f4823 	subu	t1,t1,t7
9d0049fc:	0124782b 	sltu	t7,t1,a0
9d004a00:	01e27825 	or	t7,t7,v0
9d004a04:	11e0000b 	beqz	t7,9d004a34 <i30>
9d004a08:	01244823 	subu	t1,t1,a0

9d004a0c <Dlab4>:
9d004a0c:	25adffff 	addiu	t5,t5,-1
9d004a10:	010b4021 	addu	t0,t0,t3
9d004a14:	010b782b 	sltu	t7,t0,t3
9d004a18:	012c4821 	addu	t1,t1,t4
9d004a1c:	012f4821 	addu	t1,t1,t7
9d004a20:	112c0002 	beq	t1,t4,9d004a2c <L32>
9d004a24:	00000000 	nop
9d004a28:	012c782b 	sltu	t7,t1,t4

9d004a2c <L32>:
9d004a2c:	11e0fff7 	beqz	t7,9d004a0c <Dlab4>
9d004a30:	00000000 	nop

9d004a34 <i30>:
9d004a34:	05c00006 	bltz	t6,9d004a50 <i31>
9d004a38:	00000000 	nop
9d004a3c:	01a0782a 	slt	t7,t5,zero
9d004a40:	01ad6821 	addu	t5,t5,t5
9d004a44:	01ce7021 	addu	t6,t6,t6
9d004a48:	01cf7021 	addu	t6,t6,t7
9d004a4c:	254affff 	addiu	t2,t2,-1

9d004a50 <i31>:
9d004a50:	01287825 	or	t7,t1,t0
9d004a54:	11e00002 	beqz	t7,9d004a60 <i32>
9d004a58:	00000000 	nop
9d004a5c:	35ad0001 	ori	t5,t5,0x1

9d004a60 <i32>:
9d004a60:	000e4825 	or	t1,zero,t6
9d004a64:	000d4025 	or	t0,zero,t5
9d004a68:	254fffff 	addiu	t7,t2,-1
9d004a6c:	2de107fe 	sltiu	at,t7,2046
9d004a70:	10200015 	beqz	at,9d004ac8 <Doveund>
9d004a74:	00000000 	nop
9d004a78:	25080400 	addiu	t0,t0,1024
9d004a7c:	2d0f0400 	sltiu	t7,t0,1024
9d004a80:	012f4821 	addu	t1,t1,t7
9d004a84:	012f782b 	sltu	t7,t1,t7
9d004a88:	014f5021 	addu	t2,t2,t7

9d004a8c <Dlab8>:
9d004a8c:	00087ac2 	srl	t7,t0,0xb
9d004a90:	31ef0001 	andi	t7,t7,0x1
9d004a94:	010f4023 	subu	t0,t0,t7
9d004a98:	000822c2 	srl	a0,t0,0xb
9d004a9c:	00097d40 	sll	t7,t1,0x15
9d004aa0:	008f2025 	or	a0,a0,t7
9d004aa4:	00097840 	sll	t7,t1,0x1
9d004aa8:	000f7b02 	srl	t7,t7,0xc
9d004aac:	00af2825 	or	a1,a1,t7
9d004ab0:	000a7d00 	sll	t7,t2,0x14
9d004ab4:	00af2825 	or	a1,a1,t7

9d004ab8 <Dret>:
9d004ab8:	00041025 	or	v0,zero,a0
9d004abc:	00051825 	or	v1,zero,a1

9d004ac0 <D999>:
9d004ac0:	03e00008 	jr	ra
9d004ac4:	00000000 	nop

9d004ac8 <Doveund>:
9d004ac8:	1d400044 	bgtz	t2,9d004bdc <Dinf>
9d004acc:	00000000 	nop
9d004ad0:	240e0001 	li	t6,1
9d004ad4:	01ca7023 	subu	t6,t6,t2

9d004ad8 <L33>:
9d004ad8:	2dc10020 	sltiu	at,t6,32
9d004adc:	14200007 	bnez	at,9d004afc <L34>
9d004ae0:	00000000 	nop
9d004ae4:	21ceffe0 	addi	t6,t6,-32
9d004ae8:	0008202b 	sltu	a0,zero,t0
9d004aec:	1009000d 	beq	zero,t1,9d004b24 <L35>
9d004af0:	01244025 	or	t0,t1,a0
9d004af4:	1000fff8 	b	9d004ad8 <L33>
9d004af8:	34090000 	li	t1,0x0

9d004afc <L34>:
9d004afc:	11c00009 	beqz	t6,9d004b24 <L35>
9d004b00:	00000000 	nop
9d004b04:	000e3022 	neg	a2,t6
9d004b08:	00c82004 	sllv	a0,t0,a2
9d004b0c:	00c93004 	sllv	a2,t1,a2
9d004b10:	01c84006 	srlv	t0,t0,t6
9d004b14:	01c94806 	srlv	t1,t1,t6
9d004b18:	10800002 	beqz	a0,9d004b24 <L35>
9d004b1c:	00c84025 	or	t0,a2,t0
9d004b20:	35080002 	ori	t0,t0,0x2

9d004b24 <L35>:
9d004b24:	25080400 	addiu	t0,t0,1024
9d004b28:	2d0f0400 	sltiu	t7,t0,1024
9d004b2c:	012f4821 	addu	t1,t1,t7
9d004b30:	1000ffd6 	b	9d004a8c <Dlab8>
9d004b34:	000957c2 	srl	t2,t1,0x1f

9d004b38 <DspecA>:
9d004b38:	0100782a 	slt	t7,t0,zero
9d004b3c:	01084021 	addu	t0,t0,t0
9d004b40:	01294821 	addu	t1,t1,t1
9d004b44:	15400017 	bnez	t2,9d004ba4 <i33>
9d004b48:	012f4821 	addu	t1,t1,t7
9d004b4c:	01287825 	or	t7,t1,t0
9d004b50:	11e00014 	beqz	t7,9d004ba4 <i33>
9d004b54:	00000000 	nop
9d004b58:	15200008 	bnez	t1,9d004b7c <L36>
9d004b5c:	00000000 	nop
9d004b60:	15000003 	bnez	t0,9d004b70 <L37>
9d004b64:	00000000 	nop
9d004b68:	1000ff29 	b	9d004810 <Dlab1>
9d004b6c:	240a0000 	li	t2,0

9d004b70 <L37>:
9d004b70:	01004825 	move	t1,t0
9d004b74:	24080000 	li	t0,0
9d004b78:	254affe0 	addiu	t2,t2,-32

9d004b7c <L36>:
9d004b7c:	712e7020 	clz	t6,t1
9d004b80:	11c0ff23 	beqz	t6,9d004810 <Dlab1>
9d004b84:	00000000 	nop
9d004b88:	014e5023 	subu	t2,t2,t6
9d004b8c:	000e3022 	neg	a2,t6
9d004b90:	00c83006 	srlv	a2,t0,a2
9d004b94:	01c84004 	sllv	t0,t0,t6
9d004b98:	01c94804 	sllv	t1,t1,t6
9d004b9c:	1000ff1c 	b	9d004810 <Dlab1>
9d004ba0:	01264825 	or	t1,t1,a2

9d004ba4 <i33>:
9d004ba4:	154d0005 	bne	t2,t5,9d004bbc <i35>
9d004ba8:	00000000 	nop
9d004bac:	000c7840 	sll	t7,t4,0x1
9d004bb0:	01eb7825 	or	t7,t7,t3
9d004bb4:	11e0002b 	beqz	t7,9d004c64 <Dnan>
9d004bb8:	00000000 	nop

9d004bbc <i35>:
9d004bbc:	240107ff 	li	at,2047
9d004bc0:	11a1000a 	beq	t5,at,9d004bec <DspecB>
9d004bc4:	00000000 	nop
9d004bc8:	1140ffbb 	beqz	t2,9d004ab8 <Dret>
9d004bcc:	00000000 	nop
9d004bd0:	01287825 	or	t7,t1,t0
9d004bd4:	15e00023 	bnez	t7,9d004c64 <Dnan>
9d004bd8:	00000000 	nop

9d004bdc <Dinf>:
9d004bdc:	3c017ff0 	lui	at,0x7ff0
9d004be0:	00a12825 	or	a1,a1,at
9d004be4:	1000ffb4 	b	9d004ab8 <Dret>
9d004be8:	24040000 	li	a0,0

9d004bec <DspecB>:
9d004bec:	0160782a 	slt	t7,t3,zero
9d004bf0:	016b5821 	addu	t3,t3,t3
9d004bf4:	018c6021 	addu	t4,t4,t4
9d004bf8:	15a00017 	bnez	t5,9d004c58 <i36>
9d004bfc:	018f6021 	addu	t4,t4,t7
9d004c00:	018b7825 	or	t7,t4,t3
9d004c04:	11e0fff5 	beqz	t7,9d004bdc <Dinf>
9d004c08:	00000000 	nop
9d004c0c:	15800008 	bnez	t4,9d004c30 <L39>
9d004c10:	00000000 	nop
9d004c14:	15600003 	bnez	t3,9d004c24 <L40>
9d004c18:	00000000 	nop
9d004c1c:	1000ff00 	b	9d004820 <Dlab2>
9d004c20:	240d0000 	li	t5,0

9d004c24 <L40>:
9d004c24:	01606025 	move	t4,t3
9d004c28:	240b0000 	li	t3,0
9d004c2c:	25adffe0 	addiu	t5,t5,-32

9d004c30 <L39>:
9d004c30:	718e7020 	clz	t6,t4
9d004c34:	11c0fefa 	beqz	t6,9d004820 <Dlab2>
9d004c38:	00000000 	nop
9d004c3c:	01ae6823 	subu	t5,t5,t6
9d004c40:	000e3022 	neg	a2,t6
9d004c44:	00cb3006 	srlv	a2,t3,a2
9d004c48:	01cb5804 	sllv	t3,t3,t6
9d004c4c:	01cc6004 	sllv	t4,t4,t6
9d004c50:	1000fef3 	b	9d004820 <Dlab2>
9d004c54:	01866025 	or	t4,t4,a2

9d004c58 <i36>:
9d004c58:	018b7825 	or	t7,t4,t3
9d004c5c:	11e00002 	beqz	t7,9d004c68 <i38>
9d004c60:	00000000 	nop

9d004c64 <Dnan>:
9d004c64:	3c05fff8 	lui	a1,0xfff8

9d004c68 <i38>:
9d004c68:	1000ff93 	b	9d004ab8 <Dret>
9d004c6c:	24040000 	li	a0,0
9d004c70:	00000000 	nop

Disassembly of section .text:

9d004c74 <__divdi3>:
9d004c74:	04a00052 	bltz	a1,9d004dc0 <.LBE15+0x38>
9d004c78:	00004821 	move	t1,zero
9d004c7c:	04e20057 	bltzl	a3,9d004ddc <.LBE15+0x54>
9d004c80:	00063023 	negu	a2,a2

9d004c84 <.LBB13>:
9d004c84:	00c04021 	move	t0,a2
9d004c88:	00805021 	move	t2,a0
9d004c8c:	14e00046 	bnez	a3,9d004da8 <.LBE15+0x20>
9d004c90:	00a01821 	move	v1,a1
9d004c94:	00a6102b 	sltu	v0,a1,a2
9d004c98:	1040005d 	beqz	v0,9d004e10 <.LBE15+0x88>
9d004c9c:	70c21020 	clz	v0,a2
9d004ca0:	50400008 	beqzl	v0,9d004cc4 <.LBB15+0x4>
9d004ca4:	00082c02 	srl	a1,t0,0x10
9d004ca8:	00022023 	negu	a0,v0
9d004cac:	008a2006 	srlv	a0,t2,a0
9d004cb0:	00451804 	sllv	v1,a1,v0
9d004cb4:	00464004 	sllv	t0,a2,v0
9d004cb8:	00831825 	or	v1,a0,v1
9d004cbc:	004a5004 	sllv	t2,t2,v0

9d004cc0 <.LBB15>:
9d004cc0:	00082c02 	srl	a1,t0,0x10
9d004cc4:	0065001b 	divu	zero,v1,a1
9d004cc8:	00a001f4 	teq	a1,zero,0x7
9d004ccc:	00006010 	mfhi	t4
9d004cd0:	00005812 	mflo	t3
9d004cd4:	3107ffff 	andi	a3,t0,0xffff
9d004cd8:	000a2402 	srl	a0,t2,0x10
9d004cdc:	00001012 	mflo	v0
9d004ce0:	71673002 	mul	a2,t3,a3
9d004ce4:	000c6400 	sll	t4,t4,0x10
9d004ce8:	01842025 	or	a0,t4,a0
9d004cec:	0086602b 	sltu	t4,a0,a2
9d004cf0:	0065001b 	divu	zero,v1,a1
9d004cf4:	00a001f4 	teq	a1,zero,0x7
9d004cf8:	1180000b 	beqz	t4,9d004d28 <.LBB15+0x68>
9d004cfc:	00861823 	subu	v1,a0,a2
9d004d00:	00882021 	addu	a0,a0,t0
9d004d04:	0088182b 	sltu	v1,a0,t0
9d004d08:	14600006 	bnez	v1,9d004d24 <.LBB15+0x64>
9d004d0c:	2562ffff 	addiu	v0,t3,-1
9d004d10:	0086182b 	sltu	v1,a0,a2
9d004d14:	10600004 	beqz	v1,9d004d28 <.LBB15+0x68>
9d004d18:	00861823 	subu	v1,a0,a2
9d004d1c:	2562fffe 	addiu	v0,t3,-2
9d004d20:	00882021 	addu	a0,a0,t0
9d004d24:	00861823 	subu	v1,a0,a2
9d004d28:	314affff 	andi	t2,t2,0xffff
9d004d2c:	0065001b 	divu	zero,v1,a1
9d004d30:	00a001f4 	teq	a1,zero,0x7
9d004d34:	00005810 	mfhi	t3
9d004d38:	00003012 	mflo	a2
9d004d3c:	00002012 	mflo	a0
9d004d40:	70c73802 	mul	a3,a2,a3
9d004d44:	000b5c00 	sll	t3,t3,0x10
9d004d48:	016a5025 	or	t2,t3,t2
9d004d4c:	0147582b 	sltu	t3,t2,a3
9d004d50:	0065001b 	divu	zero,v1,a1
9d004d54:	00a001f4 	teq	a1,zero,0x7
9d004d58:	51600009 	beqzl	t3,9d004d80 <.LBB15+0xc0>
9d004d5c:	00021400 	sll	v0,v0,0x10
9d004d60:	01485021 	addu	t2,t2,t0
9d004d64:	0148402b 	sltu	t0,t2,t0
9d004d68:	15000004 	bnez	t0,9d004d7c <.LBB15+0xbc>
9d004d6c:	24c4ffff 	addiu	a0,a2,-1
9d004d70:	0147382b 	sltu	a3,t2,a3
9d004d74:	24c6fffe 	addiu	a2,a2,-2
9d004d78:	00c7200b 	movn	a0,a2,a3
9d004d7c:	00021400 	sll	v0,v0,0x10
9d004d80:	00821025 	or	v0,a0,v0
9d004d84:	00001821 	move	v1,zero

9d004d88 <.LBE15>:
9d004d88:	11200005 	beqz	t1,9d004da0 <.LBE15+0x18>
9d004d8c:	00000000 	nop
9d004d90:	00021023 	negu	v0,v0
9d004d94:	0002202b 	sltu	a0,zero,v0
9d004d98:	00031823 	negu	v1,v1
9d004d9c:	00641823 	subu	v1,v1,a0
9d004da0:	03e00008 	jr	ra
9d004da4:	00000000 	nop
9d004da8:	00a7102b 	sltu	v0,a1,a3
9d004dac:	10400010 	beqz	v0,9d004df0 <.LBE15+0x68>
9d004db0:	70e84020 	clz	t0,a3
9d004db4:	00001821 	move	v1,zero
9d004db8:	0b401362 	j	9d004d88 <.LBE15>
9d004dbc:	00001021 	move	v0,zero
9d004dc0:	00042023 	negu	a0,a0
9d004dc4:	0004102b 	sltu	v0,zero,a0
9d004dc8:	00052823 	negu	a1,a1
9d004dcc:	00a22823 	subu	a1,a1,v0
9d004dd0:	04e1ffac 	bgez	a3,9d004c84 <.LBB13>
9d004dd4:	2409ffff 	li	t1,-1
9d004dd8:	00063023 	negu	a2,a2
9d004ddc:	0006102b 	sltu	v0,zero,a2
9d004de0:	00073823 	negu	a3,a3
9d004de4:	00094827 	nor	t1,zero,t1
9d004de8:	0b401321 	j	9d004c84 <.LBB13>
9d004dec:	00e23823 	subu	a3,a3,v0
9d004df0:	1500007e 	bnez	t0,9d004fec <.LBE16+0xf8>
9d004df4:	24020020 	li	v0,32
9d004df8:	00e5282b 	sltu	a1,a3,a1
9d004dfc:	14a000c6 	bnez	a1,9d005118 <.LBE23+0x34>
9d004e00:	00001821 	move	v1,zero
9d004e04:	0086102b 	sltu	v0,a0,a2
9d004e08:	0b401362 	j	9d004d88 <.LBE15>
9d004e0c:	38420001 	xori	v0,v0,0x1
9d004e10:	14c00006 	bnez	a2,9d004e2c <.LBE15+0xa4>
9d004e14:	71021020 	clz	v0,t0
9d004e18:	24080001 	li	t0,1
9d004e1c:	0107001b 	divu	zero,t0,a3
9d004e20:	00e001f4 	teq	a3,zero,0x7
9d004e24:	00004012 	mflo	t0
9d004e28:	71021020 	clz	v0,t0
9d004e2c:	54400033 	bnezl	v0,9d004efc <.LBE16+0x8>
9d004e30:	00484004 	sllv	t0,t0,v0
9d004e34:	00a82023 	subu	a0,a1,t0
9d004e38:	00083c02 	srl	a3,t0,0x10
9d004e3c:	310cffff 	andi	t4,t0,0xffff
9d004e40:	24030001 	li	v1,1

9d004e44 <.LBB16>:
9d004e44:	000a3402 	srl	a2,t2,0x10
9d004e48:	0087001b 	divu	zero,a0,a3
9d004e4c:	00e001f4 	teq	a3,zero,0x7
9d004e50:	00007010 	mfhi	t6
9d004e54:	00006812 	mflo	t5
9d004e58:	00001012 	mflo	v0
9d004e5c:	71ac5802 	mul	t3,t5,t4
9d004e60:	000e7400 	sll	t6,t6,0x10
9d004e64:	01c63025 	or	a2,t6,a2
9d004e68:	00cb702b 	sltu	t6,a2,t3
9d004e6c:	0087001b 	divu	zero,a0,a3
9d004e70:	00e001f4 	teq	a3,zero,0x7
9d004e74:	11c00009 	beqz	t6,9d004e9c <.LBB16+0x58>
9d004e78:	00cb2823 	subu	a1,a2,t3
9d004e7c:	00c83021 	addu	a2,a2,t0
9d004e80:	00c8202b 	sltu	a0,a2,t0
9d004e84:	14800004 	bnez	a0,9d004e98 <.LBB16+0x54>
9d004e88:	25a2ffff 	addiu	v0,t5,-1
9d004e8c:	00cb202b 	sltu	a0,a2,t3
9d004e90:	548000a3 	bnezl	a0,9d005120 <.LBE23+0x3c>
9d004e94:	25a2fffe 	addiu	v0,t5,-2
9d004e98:	00cb2823 	subu	a1,a2,t3
9d004e9c:	314affff 	andi	t2,t2,0xffff
9d004ea0:	00a7001b 	divu	zero,a1,a3
9d004ea4:	00e001f4 	teq	a3,zero,0x7
9d004ea8:	00005810 	mfhi	t3
9d004eac:	00003012 	mflo	a2
9d004eb0:	00002012 	mflo	a0
9d004eb4:	70cc6002 	mul	t4,a2,t4
9d004eb8:	000b5c00 	sll	t3,t3,0x10
9d004ebc:	016a5025 	or	t2,t3,t2
9d004ec0:	014c582b 	sltu	t3,t2,t4
9d004ec4:	00a7001b 	divu	zero,a1,a3
9d004ec8:	00e001f4 	teq	a3,zero,0x7
9d004ecc:	51600009 	beqzl	t3,9d004ef4 <.LBE16>
9d004ed0:	00021400 	sll	v0,v0,0x10
9d004ed4:	01485021 	addu	t2,t2,t0
9d004ed8:	0148402b 	sltu	t0,t2,t0
9d004edc:	15000004 	bnez	t0,9d004ef0 <.LBB16+0xac>
9d004ee0:	24c4ffff 	addiu	a0,a2,-1
9d004ee4:	014c502b 	sltu	t2,t2,t4
9d004ee8:	24c6fffe 	addiu	a2,a2,-2
9d004eec:	00ca200b 	movn	a0,a2,t2
9d004ef0:	00021400 	sll	v0,v0,0x10

9d004ef4 <.LBE16>:
9d004ef4:	0b401362 	j	9d004d88 <.LBE15>
9d004ef8:	00821025 	or	v0,a0,v0
9d004efc:	24030020 	li	v1,32
9d004f00:	00621823 	subu	v1,v1,v0
9d004f04:	00653006 	srlv	a2,a1,v1
9d004f08:	00083c02 	srl	a3,t0,0x10
9d004f0c:	00c7001b 	divu	zero,a2,a3
9d004f10:	00e001f4 	teq	a3,zero,0x7
9d004f14:	00007810 	mfhi	t7
9d004f18:	00006812 	mflo	t5
9d004f1c:	310cffff 	andi	t4,t0,0xffff
9d004f20:	00452804 	sllv	a1,a1,v0
9d004f24:	00641806 	srlv	v1,a0,v1
9d004f28:	00652825 	or	a1,v1,a1
9d004f2c:	00057402 	srl	t6,a1,0x10
9d004f30:	00445004 	sllv	t2,a0,v0
9d004f34:	00001812 	mflo	v1
9d004f38:	71ac5802 	mul	t3,t5,t4
9d004f3c:	000f1400 	sll	v0,t7,0x10
9d004f40:	01c21025 	or	v0,t6,v0
9d004f44:	004b202b 	sltu	a0,v0,t3
9d004f48:	00c7001b 	divu	zero,a2,a3
9d004f4c:	00e001f4 	teq	a3,zero,0x7
9d004f50:	5080000b 	beqzl	a0,9d004f80 <.LBE16+0x8c>
9d004f54:	004b1023 	subu	v0,v0,t3
9d004f58:	00481021 	addu	v0,v0,t0
9d004f5c:	0048202b 	sltu	a0,v0,t0
9d004f60:	14800006 	bnez	a0,9d004f7c <.LBE16+0x88>
9d004f64:	25a3ffff 	addiu	v1,t5,-1
9d004f68:	004b202b 	sltu	a0,v0,t3
9d004f6c:	50800004 	beqzl	a0,9d004f80 <.LBE16+0x8c>
9d004f70:	004b1023 	subu	v0,v0,t3
9d004f74:	25a3fffe 	addiu	v1,t5,-2
9d004f78:	00481021 	addu	v0,v0,t0
9d004f7c:	004b1023 	subu	v0,v0,t3
9d004f80:	30adffff 	andi	t5,a1,0xffff
9d004f84:	0047001b 	divu	zero,v0,a3
9d004f88:	00e001f4 	teq	a3,zero,0x7
9d004f8c:	00002010 	mfhi	a0
9d004f90:	00005812 	mflo	t3
9d004f94:	00003012 	mflo	a2
9d004f98:	716c2802 	mul	a1,t3,t4
9d004f9c:	00042400 	sll	a0,a0,0x10
9d004fa0:	008d2025 	or	a0,a0,t5
9d004fa4:	0085682b 	sltu	t5,a0,a1
9d004fa8:	0047001b 	divu	zero,v0,a3
9d004fac:	00e001f4 	teq	a3,zero,0x7
9d004fb0:	51a0000b 	beqzl	t5,9d004fe0 <.LBE16+0xec>
9d004fb4:	00031c00 	sll	v1,v1,0x10
9d004fb8:	00882021 	addu	a0,a0,t0
9d004fbc:	0088102b 	sltu	v0,a0,t0
9d004fc0:	14400006 	bnez	v0,9d004fdc <.LBE16+0xe8>
9d004fc4:	2566ffff 	addiu	a2,t3,-1
9d004fc8:	0085102b 	sltu	v0,a0,a1
9d004fcc:	50400004 	beqzl	v0,9d004fe0 <.LBE16+0xec>
9d004fd0:	00031c00 	sll	v1,v1,0x10
9d004fd4:	2566fffe 	addiu	a2,t3,-2
9d004fd8:	00882021 	addu	a0,a0,t0
9d004fdc:	00031c00 	sll	v1,v1,0x10
9d004fe0:	00852023 	subu	a0,a0,a1
9d004fe4:	0b401391 	j	9d004e44 <.LBB16>
9d004fe8:	00c31825 	or	v1,a2,v1
9d004fec:	00481023 	subu	v0,v0,t0
9d004ff0:	01073804 	sllv	a3,a3,t0
9d004ff4:	00461806 	srlv	v1,a2,v0
9d004ff8:	00673825 	or	a3,v1,a3
9d004ffc:	00455806 	srlv	t3,a1,v0
9d005000:	00071c02 	srl	v1,a3,0x10
9d005004:	0163001b 	divu	zero,t3,v1
9d005008:	006001f4 	teq	v1,zero,0x7
9d00500c:	00005010 	mfhi	t2
9d005010:	00007012 	mflo	t6
9d005014:	30ecffff 	andi	t4,a3,0xffff
9d005018:	01052804 	sllv	a1,a1,t0
9d00501c:	00441006 	srlv	v0,a0,v0
9d005020:	00452825 	or	a1,v0,a1
9d005024:	00057c02 	srl	t7,a1,0x10
9d005028:	00001012 	mflo	v0
9d00502c:	71cc6802 	mul	t5,t6,t4
9d005030:	000a5400 	sll	t2,t2,0x10
9d005034:	014f5025 	or	t2,t2,t7
9d005038:	014d782b 	sltu	t7,t2,t5
9d00503c:	0163001b 	divu	zero,t3,v1
9d005040:	006001f4 	teq	v1,zero,0x7
9d005044:	11e0000a 	beqz	t7,9d005070 <.LBE16+0x17c>
9d005048:	01063004 	sllv	a2,a2,t0
9d00504c:	01475021 	addu	t2,t2,a3
9d005050:	0147582b 	sltu	t3,t2,a3
9d005054:	15600006 	bnez	t3,9d005070 <.LBE16+0x17c>
9d005058:	25c2ffff 	addiu	v0,t6,-1
9d00505c:	014d582b 	sltu	t3,t2,t5
9d005060:	51600004 	beqzl	t3,9d005074 <.LBE16+0x180>
9d005064:	014d5023 	subu	t2,t2,t5
9d005068:	25c2fffe 	addiu	v0,t6,-2
9d00506c:	01475021 	addu	t2,t2,a3
9d005070:	014d5023 	subu	t2,t2,t5
9d005074:	30a5ffff 	andi	a1,a1,0xffff
9d005078:	0143001b 	divu	zero,t2,v1
9d00507c:	006001f4 	teq	v1,zero,0x7
9d005080:	00007010 	mfhi	t6
9d005084:	00006812 	mflo	t5
9d005088:	00005812 	mflo	t3
9d00508c:	71ac6002 	mul	t4,t5,t4
9d005090:	000e7400 	sll	t6,t6,0x10
9d005094:	01c52825 	or	a1,t6,a1
9d005098:	00ac702b 	sltu	t6,a1,t4
9d00509c:	0143001b 	divu	zero,t2,v1
9d0050a0:	006001f4 	teq	v1,zero,0x7
9d0050a4:	51c0000b 	beqzl	t6,9d0050d4 <.LBE16+0x1e0>
9d0050a8:	00021400 	sll	v0,v0,0x10
9d0050ac:	00a72821 	addu	a1,a1,a3
9d0050b0:	00a7182b 	sltu	v1,a1,a3
9d0050b4:	14600006 	bnez	v1,9d0050d0 <.LBE16+0x1dc>
9d0050b8:	25abffff 	addiu	t3,t5,-1
9d0050bc:	00ac182b 	sltu	v1,a1,t4
9d0050c0:	50600004 	beqzl	v1,9d0050d4 <.LBE16+0x1e0>
9d0050c4:	00021400 	sll	v0,v0,0x10
9d0050c8:	25abfffe 	addiu	t3,t5,-2
9d0050cc:	00a72821 	addu	a1,a1,a3
9d0050d0:	00021400 	sll	v0,v0,0x10
9d0050d4:	01621025 	or	v0,t3,v0
9d0050d8:	00ac2823 	subu	a1,a1,t4

9d0050dc <.LBB23>:
9d0050dc:	00460019 	multu	v0,a2
9d0050e0:	00003810 	mfhi	a3

9d0050e4 <.LBE23>:
9d0050e4:	00a7182b 	sltu	v1,a1,a3
9d0050e8:	14600008 	bnez	v1,9d00510c <.LBE23+0x28>
9d0050ec:	00003012 	mflo	a2
9d0050f0:	50a70003 	beql	a1,a3,9d005100 <.LBE23+0x1c>
9d0050f4:	01042004 	sllv	a0,a0,t0
9d0050f8:	0b401362 	j	9d004d88 <.LBE15>
9d0050fc:	00001821 	move	v1,zero
9d005100:	0086302b 	sltu	a2,a0,a2
9d005104:	50c0ff20 	beqzl	a2,9d004d88 <.LBE15>
9d005108:	00001821 	move	v1,zero
9d00510c:	2442ffff 	addiu	v0,v0,-1
9d005110:	0b401362 	j	9d004d88 <.LBE15>
9d005114:	00001821 	move	v1,zero
9d005118:	0b401362 	j	9d004d88 <.LBE15>
9d00511c:	24020001 	li	v0,1
9d005120:	0b4013a6 	j	9d004e98 <.LBB16+0x54>
9d005124:	00c83021 	addu	a2,a2,t0

9d005128 <__umoddi3>:
9d005128:	00c04021 	move	t0,a2
9d00512c:	00804821 	move	t1,a0
9d005130:	14e0003b 	bnez	a3,9d005220 <.LBE15+0xc>
9d005134:	00a01821 	move	v1,a1
9d005138:	00a6102b 	sltu	v0,a1,a2
9d00513c:	10400048 	beqz	v0,9d005260 <.LBE16+0x8>
9d005140:	70c21020 	clz	v0,a2
9d005144:	50400008 	beqzl	v0,9d005168 <.LBB15+0x4>
9d005148:	00083402 	srl	a2,t0,0x10
9d00514c:	00021823 	negu	v1,v0
9d005150:	00452804 	sllv	a1,a1,v0
9d005154:	00641806 	srlv	v1,a0,v1
9d005158:	00464004 	sllv	t0,a2,v0
9d00515c:	00651825 	or	v1,v1,a1
9d005160:	00444804 	sllv	t1,a0,v0

9d005164 <.LBB15>:
9d005164:	00083402 	srl	a2,t0,0x10
9d005168:	0066001b 	divu	zero,v1,a2
9d00516c:	00c001f4 	teq	a2,zero,0x7
9d005170:	00002010 	mfhi	a0
9d005174:	00005812 	mflo	t3
9d005178:	310cffff 	andi	t4,t0,0xffff
9d00517c:	00095402 	srl	t2,t1,0x10
9d005180:	716c5802 	mul	t3,t3,t4
9d005184:	00042400 	sll	a0,a0,0x10
9d005188:	008a5025 	or	t2,a0,t2
9d00518c:	014b682b 	sltu	t5,t2,t3
9d005190:	0066001b 	divu	zero,v1,a2
9d005194:	00c001f4 	teq	a2,zero,0x7
9d005198:	51a00009 	beqzl	t5,9d0051c0 <.LBB15+0x5c>
9d00519c:	014b5023 	subu	t2,t2,t3
9d0051a0:	01485021 	addu	t2,t2,t0
9d0051a4:	0148182b 	sltu	v1,t2,t0
9d0051a8:	54600005 	bnezl	v1,9d0051c0 <.LBB15+0x5c>
9d0051ac:	014b5023 	subu	t2,t2,t3
9d0051b0:	014b202b 	sltu	a0,t2,t3
9d0051b4:	01481821 	addu	v1,t2,t0
9d0051b8:	0064500b 	movn	t2,v1,a0
9d0051bc:	014b5023 	subu	t2,t2,t3
9d0051c0:	3123ffff 	andi	v1,t1,0xffff
9d0051c4:	0146001b 	divu	zero,t2,a2
9d0051c8:	00c001f4 	teq	a2,zero,0x7
9d0051cc:	00004810 	mfhi	t1
9d0051d0:	00002012 	mflo	a0
9d0051d4:	708c2002 	mul	a0,a0,t4
9d0051d8:	00094c00 	sll	t1,t1,0x10
9d0051dc:	01234825 	or	t1,t1,v1
9d0051e0:	0124182b 	sltu	v1,t1,a0
9d0051e4:	0146001b 	divu	zero,t2,a2
9d0051e8:	00c001f4 	teq	a2,zero,0x7
9d0051ec:	50600009 	beqzl	v1,9d005214 <.LBE15>
9d0051f0:	01244823 	subu	t1,t1,a0
9d0051f4:	01284821 	addu	t1,t1,t0
9d0051f8:	0128182b 	sltu	v1,t1,t0
9d0051fc:	54600005 	bnezl	v1,9d005214 <.LBE15>
9d005200:	01244823 	subu	t1,t1,a0
9d005204:	0124182b 	sltu	v1,t1,a0
9d005208:	01284021 	addu	t0,t1,t0
9d00520c:	0103480b 	movn	t1,t0,v1
9d005210:	01244823 	subu	t1,t1,a0

9d005214 <.LBE15>:
9d005214:	00491006 	srlv	v0,t1,v0
9d005218:	03e00008 	jr	ra
9d00521c:	00001821 	move	v1,zero
9d005220:	00a7102b 	sltu	v0,a1,a3
9d005224:	14400047 	bnez	v0,9d005344 <.LBE17+0xc>
9d005228:	70ea5020 	clz	t2,a3
9d00522c:	15400048 	bnez	t2,9d005350 <.LBE17+0x18>
9d005230:	240b0020 	li	t3,32
9d005234:	00e5102b 	sltu	v0,a3,a1
9d005238:	14400005 	bnez	v0,9d005250 <.LBB16+0x4>
9d00523c:	00861023 	subu	v0,a0,a2
9d005240:	0086402b 	sltu	t0,a0,a2
9d005244:	15000089 	bnez	t0,9d00546c <.LBE24+0x10>
9d005248:	00801021 	move	v0,a0

9d00524c <.LBB16>:
9d00524c:	00861023 	subu	v0,a0,a2
9d005250:	00a72823 	subu	a1,a1,a3
9d005254:	0082202b 	sltu	a0,a0,v0

9d005258 <.LBE16>:
9d005258:	03e00008 	jr	ra
9d00525c:	00a41823 	subu	v1,a1,a0
9d005260:	14c00006 	bnez	a2,9d00527c <.LBE16+0x24>
9d005264:	71021020 	clz	v0,t0
9d005268:	24020001 	li	v0,1
9d00526c:	0046001b 	divu	zero,v0,a2
9d005270:	00c001f4 	teq	a2,zero,0x7
9d005274:	00004012 	mflo	t0
9d005278:	71021020 	clz	v0,t0
9d00527c:	5440007d 	bnezl	v0,9d005474 <.LBE24+0x18>
9d005280:	00484004 	sllv	t0,t0,v0
9d005284:	00a82823 	subu	a1,a1,t0
9d005288:	00081c02 	srl	v1,t0,0x10
9d00528c:	3107ffff 	andi	a3,t0,0xffff

9d005290 <.LBB17>:
9d005290:	00092402 	srl	a0,t1,0x10
9d005294:	00a3001b 	divu	zero,a1,v1
9d005298:	006001f4 	teq	v1,zero,0x7
9d00529c:	00005010 	mfhi	t2
9d0052a0:	00003012 	mflo	a2
9d0052a4:	70c73002 	mul	a2,a2,a3
9d0052a8:	000a5400 	sll	t2,t2,0x10
9d0052ac:	01442025 	or	a0,t2,a0
9d0052b0:	0086502b 	sltu	t2,a0,a2
9d0052b4:	00a3001b 	divu	zero,a1,v1
9d0052b8:	006001f4 	teq	v1,zero,0x7
9d0052bc:	51400009 	beqzl	t2,9d0052e4 <.LBB17+0x54>
9d0052c0:	00862023 	subu	a0,a0,a2
9d0052c4:	00882021 	addu	a0,a0,t0
9d0052c8:	0088282b 	sltu	a1,a0,t0
9d0052cc:	54a00005 	bnezl	a1,9d0052e4 <.LBB17+0x54>
9d0052d0:	00862023 	subu	a0,a0,a2
9d0052d4:	0086502b 	sltu	t2,a0,a2
9d0052d8:	00882821 	addu	a1,a0,t0
9d0052dc:	00aa200b 	movn	a0,a1,t2
9d0052e0:	00862023 	subu	a0,a0,a2
9d0052e4:	3126ffff 	andi	a2,t1,0xffff
9d0052e8:	0083001b 	divu	zero,a0,v1
9d0052ec:	006001f4 	teq	v1,zero,0x7
9d0052f0:	00004810 	mfhi	t1
9d0052f4:	00002812 	mflo	a1
9d0052f8:	70a72802 	mul	a1,a1,a3
9d0052fc:	00094c00 	sll	t1,t1,0x10
9d005300:	01264825 	or	t1,t1,a2
9d005304:	0125302b 	sltu	a2,t1,a1
9d005308:	0083001b 	divu	zero,a0,v1
9d00530c:	006001f4 	teq	v1,zero,0x7
9d005310:	50c00009 	beqzl	a2,9d005338 <.LBE17>
9d005314:	01254823 	subu	t1,t1,a1
9d005318:	01284821 	addu	t1,t1,t0
9d00531c:	0128182b 	sltu	v1,t1,t0
9d005320:	54600005 	bnezl	v1,9d005338 <.LBE17>
9d005324:	01254823 	subu	t1,t1,a1
9d005328:	0125182b 	sltu	v1,t1,a1
9d00532c:	01284021 	addu	t0,t1,t0
9d005330:	0103480b 	movn	t1,t0,v1
9d005334:	01254823 	subu	t1,t1,a1

9d005338 <.LBE17>:
9d005338:	00491006 	srlv	v0,t1,v0
9d00533c:	03e00008 	jr	ra
9d005340:	00001821 	move	v1,zero
9d005344:	00801021 	move	v0,a0
9d005348:	03e00008 	jr	ra
9d00534c:	00a01821 	move	v1,a1
9d005350:	016a5823 	subu	t3,t3,t2
9d005354:	01473804 	sllv	a3,a3,t2
9d005358:	01661006 	srlv	v0,a2,t3
9d00535c:	00473825 	or	a3,v0,a3
9d005360:	01656806 	srlv	t5,a1,t3
9d005364:	00074c02 	srl	t1,a3,0x10
9d005368:	01a9001b 	divu	zero,t5,t1
9d00536c:	012001f4 	teq	t1,zero,0x7
9d005370:	00006010 	mfhi	t4
9d005374:	00001812 	mflo	v1
9d005378:	30eeffff 	andi	t6,a3,0xffff
9d00537c:	01452804 	sllv	a1,a1,t2
9d005380:	01641006 	srlv	v0,a0,t3
9d005384:	00451025 	or	v0,v0,a1
9d005388:	00022c02 	srl	a1,v0,0x10
9d00538c:	01463004 	sllv	a2,a2,t2
9d005390:	00004012 	mflo	t0
9d005394:	706e7802 	mul	t7,v1,t6
9d005398:	000c6400 	sll	t4,t4,0x10
9d00539c:	01856025 	or	t4,t4,a1
9d0053a0:	018f282b 	sltu	a1,t4,t7
9d0053a4:	01a9001b 	divu	zero,t5,t1
9d0053a8:	012001f4 	teq	t1,zero,0x7
9d0053ac:	10a0000a 	beqz	a1,9d0053d8 <.LBE17+0xa0>
9d0053b0:	01442004 	sllv	a0,a0,t2
9d0053b4:	01876021 	addu	t4,t4,a3
9d0053b8:	0187282b 	sltu	a1,t4,a3
9d0053bc:	14a00006 	bnez	a1,9d0053d8 <.LBE17+0xa0>
9d0053c0:	2468ffff 	addiu	t0,v1,-1
9d0053c4:	018f282b 	sltu	a1,t4,t7
9d0053c8:	50a00004 	beqzl	a1,9d0053dc <.LBE17+0xa4>
9d0053cc:	018f6023 	subu	t4,t4,t7
9d0053d0:	2468fffe 	addiu	t0,v1,-2
9d0053d4:	01876021 	addu	t4,t4,a3
9d0053d8:	018f6023 	subu	t4,t4,t7
9d0053dc:	3042ffff 	andi	v0,v0,0xffff
9d0053e0:	0189001b 	divu	zero,t4,t1
9d0053e4:	012001f4 	teq	t1,zero,0x7
9d0053e8:	00002810 	mfhi	a1
9d0053ec:	00001812 	mflo	v1
9d0053f0:	00006812 	mflo	t5
9d0053f4:	706e7002 	mul	t6,v1,t6
9d0053f8:	00052c00 	sll	a1,a1,0x10
9d0053fc:	00a21025 	or	v0,a1,v0
9d005400:	004e282b 	sltu	a1,v0,t6
9d005404:	0189001b 	divu	zero,t4,t1
9d005408:	012001f4 	teq	t1,zero,0x7
9d00540c:	50a00006 	beqzl	a1,9d005428 <.LBE17+0xf0>
9d005410:	00084400 	sll	t0,t0,0x10
9d005414:	00471021 	addu	v0,v0,a3
9d005418:	0047282b 	sltu	a1,v0,a3
9d00541c:	10a0004c 	beqz	a1,9d005550 <.LBE25>
9d005420:	246dffff 	addiu	t5,v1,-1
9d005424:	00084400 	sll	t0,t0,0x10
9d005428:	01a84025 	or	t0,t5,t0
9d00542c:	004e1023 	subu	v0,v0,t6
9d005430:	01060019 	multu	t0,a2
9d005434:	00004810 	mfhi	t1
9d005438:	0049182b 	sltu	v1,v0,t1
9d00543c:	1460003e 	bnez	v1,9d005538 <.LBB25>
9d005440:	00004012 	mflo	t0
9d005444:	1049004b 	beq	v0,t1,9d005574 <.LBE25+0x24>
9d005448:	00491823 	subu	v1,v0,t1
9d00544c:	00003012 	mflo	a2

9d005450 <.LBB24>:
9d005450:	00863023 	subu	a2,a0,a2
9d005454:	0086202b 	sltu	a0,a0,a2
9d005458:	00641823 	subu	v1,v1,a0

9d00545c <.LBE24>:
9d00545c:	01631004 	sllv	v0,v1,t3
9d005460:	01463006 	srlv	a2,a2,t2
9d005464:	00461025 	or	v0,v0,a2
9d005468:	01431806 	srlv	v1,v1,t2
9d00546c:	03e00008 	jr	ra
9d005470:	00000000 	nop
9d005474:	24090020 	li	t1,32
9d005478:	01224823 	subu	t1,t1,v0
9d00547c:	01255006 	srlv	t2,a1,t1
9d005480:	00081c02 	srl	v1,t0,0x10
9d005484:	0143001b 	divu	zero,t2,v1
9d005488:	006001f4 	teq	v1,zero,0x7
9d00548c:	00003010 	mfhi	a2
9d005490:	00005812 	mflo	t3
9d005494:	3107ffff 	andi	a3,t0,0xffff
9d005498:	00452804 	sllv	a1,a1,v0
9d00549c:	01244806 	srlv	t1,a0,t1
9d0054a0:	01252825 	or	a1,t1,a1
9d0054a4:	00056402 	srl	t4,a1,0x10
9d0054a8:	00444804 	sllv	t1,a0,v0
9d0054ac:	71675802 	mul	t3,t3,a3
9d0054b0:	00063400 	sll	a2,a2,0x10
9d0054b4:	01863025 	or	a2,t4,a2
9d0054b8:	00cb202b 	sltu	a0,a2,t3
9d0054bc:	0143001b 	divu	zero,t2,v1
9d0054c0:	006001f4 	teq	v1,zero,0x7
9d0054c4:	50800006 	beqzl	a0,9d0054e0 <.LBE24+0x84>
9d0054c8:	00cb3023 	subu	a2,a2,t3
9d0054cc:	00c83021 	addu	a2,a2,t0
9d0054d0:	00c8202b 	sltu	a0,a2,t0
9d0054d4:	10800024 	beqz	a0,9d005568 <.LBE25+0x18>
9d0054d8:	00cb502b 	sltu	t2,a2,t3
9d0054dc:	00cb3023 	subu	a2,a2,t3
9d0054e0:	30aaffff 	andi	t2,a1,0xffff
9d0054e4:	00c3001b 	divu	zero,a2,v1
9d0054e8:	006001f4 	teq	v1,zero,0x7
9d0054ec:	00002010 	mfhi	a0
9d0054f0:	00002812 	mflo	a1
9d0054f4:	70a72802 	mul	a1,a1,a3
9d0054f8:	00042400 	sll	a0,a0,0x10
9d0054fc:	008a2025 	or	a0,a0,t2
9d005500:	0085502b 	sltu	t2,a0,a1
9d005504:	00c3001b 	divu	zero,a2,v1
9d005508:	006001f4 	teq	v1,zero,0x7
9d00550c:	5140ff60 	beqzl	t2,9d005290 <.LBB17>
9d005510:	00852823 	subu	a1,a0,a1
9d005514:	00882021 	addu	a0,a0,t0
9d005518:	0088302b 	sltu	a2,a0,t0
9d00551c:	54c0ff5c 	bnezl	a2,9d005290 <.LBB17>
9d005520:	00852823 	subu	a1,a0,a1
9d005524:	0085502b 	sltu	t2,a0,a1
9d005528:	00883021 	addu	a2,a0,t0
9d00552c:	00ca200b 	movn	a0,a2,t2
9d005530:	0b4014a4 	j	9d005290 <.LBB17>
9d005534:	00852823 	subu	a1,a0,a1

9d005538 <.LBB25>:
9d005538:	01063023 	subu	a2,t0,a2
9d00553c:	01271823 	subu	v1,t1,a3
9d005540:	0106402b 	sltu	t0,t0,a2
9d005544:	00681823 	subu	v1,v1,t0
9d005548:	0b401514 	j	9d005450 <.LBB24>
9d00554c:	00431823 	subu	v1,v0,v1

9d005550 <.LBE25>:
9d005550:	004e282b 	sltu	a1,v0,t6
9d005554:	50a0ffb4 	beqzl	a1,9d005428 <.LBE17+0xf0>
9d005558:	00084400 	sll	t0,t0,0x10
9d00555c:	246dfffe 	addiu	t5,v1,-2
9d005560:	0b401509 	j	9d005424 <.LBE17+0xec>
9d005564:	00471021 	addu	v0,v0,a3
9d005568:	00c82021 	addu	a0,a2,t0
9d00556c:	0b401537 	j	9d0054dc <.LBE24+0x80>
9d005570:	008a300b 	movn	a2,a0,t2
9d005574:	0088182b 	sltu	v1,a0,t0
9d005578:	5460fff0 	bnezl	v1,9d00553c <.LBB25+0x4>
9d00557c:	01063023 	subu	a2,t0,a2
9d005580:	00003012 	mflo	a2
9d005584:	0b401514 	j	9d005450 <.LBB24>
9d005588:	00001821 	move	v1,zero

Disassembly of section .text:

9d00558c <__udivdi3>:
9d00558c:	00c04021 	move	t0,a2
9d005590:	00801021 	move	v0,a0
9d005594:	14e0003f 	bnez	a3,9d005694 <.LBE15+0x8>
9d005598:	00a04821 	move	t1,a1
9d00559c:	00a6182b 	sltu	v1,a1,a2
9d0055a0:	10600047 	beqz	v1,9d0056c0 <.LBE15+0x34>
9d0055a4:	70c31820 	clz	v1,a2
9d0055a8:	50600008 	beqzl	v1,9d0055cc <.LBB15+0x4>
9d0055ac:	00081c02 	srl	v1,t0,0x10
9d0055b0:	00034823 	negu	t1,v1
9d0055b4:	00652804 	sllv	a1,a1,v1
9d0055b8:	01244806 	srlv	t1,a0,t1
9d0055bc:	00664004 	sllv	t0,a2,v1
9d0055c0:	01254825 	or	t1,t1,a1
9d0055c4:	00641004 	sllv	v0,a0,v1

9d0055c8 <.LBB15>:
9d0055c8:	00081c02 	srl	v1,t0,0x10
9d0055cc:	0123001b 	divu	zero,t1,v1
9d0055d0:	006001f4 	teq	v1,zero,0x7
9d0055d4:	00006010 	mfhi	t4
9d0055d8:	00005812 	mflo	t3
9d0055dc:	310affff 	andi	t2,t0,0xffff
9d0055e0:	00022402 	srl	a0,v0,0x10
9d0055e4:	00003012 	mflo	a2
9d0055e8:	716a3802 	mul	a3,t3,t2
9d0055ec:	000c6400 	sll	t4,t4,0x10
9d0055f0:	01842025 	or	a0,t4,a0
9d0055f4:	0087602b 	sltu	t4,a0,a3
9d0055f8:	0123001b 	divu	zero,t1,v1
9d0055fc:	006001f4 	teq	v1,zero,0x7
9d005600:	1180000b 	beqz	t4,9d005630 <.LBB15+0x68>
9d005604:	00872823 	subu	a1,a0,a3
9d005608:	00882021 	addu	a0,a0,t0
9d00560c:	0088282b 	sltu	a1,a0,t0
9d005610:	14a00006 	bnez	a1,9d00562c <.LBB15+0x64>
9d005614:	2566ffff 	addiu	a2,t3,-1
9d005618:	0087282b 	sltu	a1,a0,a3
9d00561c:	10a00004 	beqz	a1,9d005630 <.LBB15+0x68>
9d005620:	00872823 	subu	a1,a0,a3
9d005624:	2566fffe 	addiu	a2,t3,-2
9d005628:	00882021 	addu	a0,a0,t0
9d00562c:	00872823 	subu	a1,a0,a3
9d005630:	3042ffff 	andi	v0,v0,0xffff
9d005634:	00a3001b 	divu	zero,a1,v1
9d005638:	006001f4 	teq	v1,zero,0x7
9d00563c:	00004810 	mfhi	t1
9d005640:	00003812 	mflo	a3
9d005644:	00002012 	mflo	a0
9d005648:	70ea5002 	mul	t2,a3,t2
9d00564c:	00094c00 	sll	t1,t1,0x10
9d005650:	01221025 	or	v0,t1,v0
9d005654:	004a482b 	sltu	t1,v0,t2
9d005658:	00a3001b 	divu	zero,a1,v1
9d00565c:	006001f4 	teq	v1,zero,0x7
9d005660:	51200009 	beqzl	t1,9d005688 <.LBB15+0xc0>
9d005664:	00061400 	sll	v0,a2,0x10
9d005668:	00481021 	addu	v0,v0,t0
9d00566c:	0048402b 	sltu	t0,v0,t0
9d005670:	15000004 	bnez	t0,9d005684 <.LBB15+0xbc>
9d005674:	24e4ffff 	addiu	a0,a3,-1
9d005678:	004a502b 	sltu	t2,v0,t2
9d00567c:	24e7fffe 	addiu	a3,a3,-2
9d005680:	00ea200b 	movn	a0,a3,t2
9d005684:	00061400 	sll	v0,a2,0x10
9d005688:	00821025 	or	v0,a0,v0

9d00568c <.LBE15>:
9d00568c:	03e00008 	jr	ra
9d005690:	00001821 	move	v1,zero
9d005694:	00a7102b 	sltu	v0,a1,a3
9d005698:	14400044 	bnez	v0,9d0057ac <.LBE16+0x8>
9d00569c:	70e84020 	clz	t0,a3
9d0056a0:	55000045 	bnezl	t0,9d0057b8 <.LBE16+0x14>
9d0056a4:	24020020 	li	v0,32
9d0056a8:	00e5282b 	sltu	a1,a3,a1
9d0056ac:	14a000c8 	bnez	a1,9d0059d0 <.LBE20+0x120>
9d0056b0:	0086302b 	sltu	a2,a0,a2
9d0056b4:	38c20001 	xori	v0,a2,0x1
9d0056b8:	03e00008 	jr	ra
9d0056bc:	00001821 	move	v1,zero
9d0056c0:	14c00006 	bnez	a2,9d0056dc <.LBE15+0x50>
9d0056c4:	71031820 	clz	v1,t0
9d0056c8:	24030001 	li	v1,1
9d0056cc:	0066001b 	divu	zero,v1,a2
9d0056d0:	00c001f4 	teq	a2,zero,0x7
9d0056d4:	00004012 	mflo	t0
9d0056d8:	71031820 	clz	v1,t0
9d0056dc:	5460007b 	bnezl	v1,9d0058cc <.LBE20+0x1c>
9d0056e0:	00684004 	sllv	t0,t0,v1
9d0056e4:	00a82023 	subu	a0,a1,t0
9d0056e8:	00083c02 	srl	a3,t0,0x10
9d0056ec:	310bffff 	andi	t3,t0,0xffff
9d0056f0:	24030001 	li	v1,1

9d0056f4 <.LBB16>:
9d0056f4:	00023402 	srl	a2,v0,0x10
9d0056f8:	0087001b 	divu	zero,a0,a3
9d0056fc:	00e001f4 	teq	a3,zero,0x7
9d005700:	00006810 	mfhi	t5
9d005704:	00006012 	mflo	t4
9d005708:	00004812 	mflo	t1
9d00570c:	718b5002 	mul	t2,t4,t3
9d005710:	000d6c00 	sll	t5,t5,0x10
9d005714:	01a63025 	or	a2,t5,a2
9d005718:	00ca682b 	sltu	t5,a2,t2
9d00571c:	0087001b 	divu	zero,a0,a3
9d005720:	00e001f4 	teq	a3,zero,0x7
9d005724:	11a00009 	beqz	t5,9d00574c <.LBB16+0x58>
9d005728:	00ca2823 	subu	a1,a2,t2
9d00572c:	00c83021 	addu	a2,a2,t0
9d005730:	00c8202b 	sltu	a0,a2,t0
9d005734:	14800004 	bnez	a0,9d005748 <.LBB16+0x54>
9d005738:	2589ffff 	addiu	t1,t4,-1
9d00573c:	00ca202b 	sltu	a0,a2,t2
9d005740:	548000a6 	bnezl	a0,9d0059dc <.LBE20+0x12c>
9d005744:	2589fffe 	addiu	t1,t4,-2
9d005748:	00ca2823 	subu	a1,a2,t2
9d00574c:	3042ffff 	andi	v0,v0,0xffff
9d005750:	00a7001b 	divu	zero,a1,a3
9d005754:	00e001f4 	teq	a3,zero,0x7
9d005758:	00005010 	mfhi	t2
9d00575c:	00003012 	mflo	a2
9d005760:	00002012 	mflo	a0
9d005764:	70cb5802 	mul	t3,a2,t3
9d005768:	000a5400 	sll	t2,t2,0x10
9d00576c:	01421025 	or	v0,t2,v0
9d005770:	004b502b 	sltu	t2,v0,t3
9d005774:	00a7001b 	divu	zero,a1,a3
9d005778:	00e001f4 	teq	a3,zero,0x7
9d00577c:	51400009 	beqzl	t2,9d0057a4 <.LBE16>
9d005780:	00091400 	sll	v0,t1,0x10
9d005784:	00481021 	addu	v0,v0,t0
9d005788:	0048402b 	sltu	t0,v0,t0
9d00578c:	15000004 	bnez	t0,9d0057a0 <.LBB16+0xac>
9d005790:	24c4ffff 	addiu	a0,a2,-1
9d005794:	004b582b 	sltu	t3,v0,t3
9d005798:	24c6fffe 	addiu	a2,a2,-2
9d00579c:	00cb200b 	movn	a0,a2,t3
9d0057a0:	00091400 	sll	v0,t1,0x10

9d0057a4 <.LBE16>:
9d0057a4:	03e00008 	jr	ra
9d0057a8:	00821025 	or	v0,a0,v0
9d0057ac:	00001821 	move	v1,zero
9d0057b0:	03e00008 	jr	ra
9d0057b4:	00001021 	move	v0,zero
9d0057b8:	00481023 	subu	v0,v0,t0
9d0057bc:	01073804 	sllv	a3,a3,t0
9d0057c0:	00461806 	srlv	v1,a2,v0
9d0057c4:	00673825 	or	a3,v1,a3
9d0057c8:	00455006 	srlv	t2,a1,v0
9d0057cc:	00071c02 	srl	v1,a3,0x10
9d0057d0:	0143001b 	divu	zero,t2,v1
9d0057d4:	006001f4 	teq	v1,zero,0x7
9d0057d8:	00004810 	mfhi	t1
9d0057dc:	00006812 	mflo	t5
9d0057e0:	30ebffff 	andi	t3,a3,0xffff
9d0057e4:	01052804 	sllv	a1,a1,t0
9d0057e8:	00441006 	srlv	v0,a0,v0
9d0057ec:	00452825 	or	a1,v0,a1
9d0057f0:	00057402 	srl	t6,a1,0x10
9d0057f4:	00001012 	mflo	v0
9d0057f8:	71ab6002 	mul	t4,t5,t3
9d0057fc:	00094c00 	sll	t1,t1,0x10
9d005800:	012e4825 	or	t1,t1,t6
9d005804:	012c702b 	sltu	t6,t1,t4
9d005808:	0143001b 	divu	zero,t2,v1
9d00580c:	006001f4 	teq	v1,zero,0x7
9d005810:	11c0000a 	beqz	t6,9d00583c <.LBE16+0x98>
9d005814:	01063004 	sllv	a2,a2,t0
9d005818:	01274821 	addu	t1,t1,a3
9d00581c:	0127502b 	sltu	t2,t1,a3
9d005820:	15400006 	bnez	t2,9d00583c <.LBE16+0x98>
9d005824:	25a2ffff 	addiu	v0,t5,-1
9d005828:	012c502b 	sltu	t2,t1,t4
9d00582c:	51400004 	beqzl	t2,9d005840 <.LBE16+0x9c>
9d005830:	012c4823 	subu	t1,t1,t4
9d005834:	25a2fffe 	addiu	v0,t5,-2
9d005838:	01274821 	addu	t1,t1,a3
9d00583c:	012c4823 	subu	t1,t1,t4
9d005840:	30a5ffff 	andi	a1,a1,0xffff
9d005844:	0123001b 	divu	zero,t1,v1
9d005848:	006001f4 	teq	v1,zero,0x7
9d00584c:	00006810 	mfhi	t5
9d005850:	00006012 	mflo	t4
9d005854:	00005012 	mflo	t2
9d005858:	718b5802 	mul	t3,t4,t3
9d00585c:	000d6c00 	sll	t5,t5,0x10
9d005860:	01a52825 	or	a1,t5,a1
9d005864:	00ab682b 	sltu	t5,a1,t3
9d005868:	0123001b 	divu	zero,t1,v1
9d00586c:	006001f4 	teq	v1,zero,0x7
9d005870:	51a0000b 	beqzl	t5,9d0058a0 <.LBE16+0xfc>
9d005874:	00021400 	sll	v0,v0,0x10
9d005878:	00a72821 	addu	a1,a1,a3
9d00587c:	00a7182b 	sltu	v1,a1,a3
9d005880:	14600006 	bnez	v1,9d00589c <.LBE16+0xf8>
9d005884:	258affff 	addiu	t2,t4,-1
9d005888:	00ab182b 	sltu	v1,a1,t3
9d00588c:	50600004 	beqzl	v1,9d0058a0 <.LBE16+0xfc>
9d005890:	00021400 	sll	v0,v0,0x10
9d005894:	258afffe 	addiu	t2,t4,-2
9d005898:	00a72821 	addu	a1,a1,a3
9d00589c:	00021400 	sll	v0,v0,0x10
9d0058a0:	01421025 	or	v0,t2,v0
9d0058a4:	00ab2823 	subu	a1,a1,t3

9d0058a8 <.LBB20>:
9d0058a8:	00460019 	multu	v0,a2
9d0058ac:	00003810 	mfhi	a3

9d0058b0 <.LBE20>:
9d0058b0:	00a7182b 	sltu	v1,a1,a3
9d0058b4:	14600044 	bnez	v1,9d0059c8 <.LBE20+0x118>
9d0058b8:	00003012 	mflo	a2
9d0058bc:	10a7003f 	beq	a1,a3,9d0059bc <.LBE20+0x10c>
9d0058c0:	01042004 	sllv	a0,a0,t0
9d0058c4:	03e00008 	jr	ra
9d0058c8:	00001821 	move	v1,zero
9d0058cc:	24020020 	li	v0,32
9d0058d0:	00431023 	subu	v0,v0,v1
9d0058d4:	00454806 	srlv	t1,a1,v0
9d0058d8:	00083c02 	srl	a3,t0,0x10
9d0058dc:	0127001b 	divu	zero,t1,a3
9d0058e0:	00e001f4 	teq	a3,zero,0x7
9d0058e4:	00003010 	mfhi	a2
9d0058e8:	00006012 	mflo	t4
9d0058ec:	310bffff 	andi	t3,t0,0xffff
9d0058f0:	00652804 	sllv	a1,a1,v1
9d0058f4:	00441006 	srlv	v0,a0,v0
9d0058f8:	00452825 	or	a1,v0,a1
9d0058fc:	00056c02 	srl	t5,a1,0x10
9d005900:	00641004 	sllv	v0,a0,v1
9d005904:	00001812 	mflo	v1
9d005908:	718b5002 	mul	t2,t4,t3
9d00590c:	00063400 	sll	a2,a2,0x10
9d005910:	01a63025 	or	a2,t5,a2
9d005914:	00ca202b 	sltu	a0,a2,t2
9d005918:	0127001b 	divu	zero,t1,a3
9d00591c:	00e001f4 	teq	a3,zero,0x7
9d005920:	5080000b 	beqzl	a0,9d005950 <.LBE20+0xa0>
9d005924:	00ca3023 	subu	a2,a2,t2
9d005928:	00c83021 	addu	a2,a2,t0
9d00592c:	00c8202b 	sltu	a0,a2,t0
9d005930:	14800006 	bnez	a0,9d00594c <.LBE20+0x9c>
9d005934:	2583ffff 	addiu	v1,t4,-1
9d005938:	00ca202b 	sltu	a0,a2,t2
9d00593c:	50800004 	beqzl	a0,9d005950 <.LBE20+0xa0>
9d005940:	00ca3023 	subu	a2,a2,t2
9d005944:	2583fffe 	addiu	v1,t4,-2
9d005948:	00c83021 	addu	a2,a2,t0
9d00594c:	00ca3023 	subu	a2,a2,t2
9d005950:	30acffff 	andi	t4,a1,0xffff
9d005954:	00c7001b 	divu	zero,a2,a3
9d005958:	00e001f4 	teq	a3,zero,0x7
9d00595c:	00002010 	mfhi	a0
9d005960:	00005012 	mflo	t2
9d005964:	00004812 	mflo	t1
9d005968:	714b2802 	mul	a1,t2,t3
9d00596c:	00042400 	sll	a0,a0,0x10
9d005970:	008c2025 	or	a0,a0,t4
9d005974:	0085602b 	sltu	t4,a0,a1
9d005978:	00c7001b 	divu	zero,a2,a3
9d00597c:	00e001f4 	teq	a3,zero,0x7
9d005980:	5180000b 	beqzl	t4,9d0059b0 <.LBE20+0x100>
9d005984:	00031c00 	sll	v1,v1,0x10
9d005988:	00882021 	addu	a0,a0,t0
9d00598c:	0088302b 	sltu	a2,a0,t0
9d005990:	14c00006 	bnez	a2,9d0059ac <.LBE20+0xfc>
9d005994:	2549ffff 	addiu	t1,t2,-1
9d005998:	0085302b 	sltu	a2,a0,a1
9d00599c:	50c00004 	beqzl	a2,9d0059b0 <.LBE20+0x100>
9d0059a0:	00031c00 	sll	v1,v1,0x10
9d0059a4:	2549fffe 	addiu	t1,t2,-2
9d0059a8:	00882021 	addu	a0,a0,t0
9d0059ac:	00031c00 	sll	v1,v1,0x10
9d0059b0:	00852023 	subu	a0,a0,a1
9d0059b4:	0b4015bd 	j	9d0056f4 <.LBB16>
9d0059b8:	01231825 	or	v1,t1,v1
9d0059bc:	0086302b 	sltu	a2,a0,a2
9d0059c0:	10c0ffc0 	beqz	a2,9d0058c4 <.LBE20+0x14>
9d0059c4:	00000000 	nop
9d0059c8:	0b401631 	j	9d0058c4 <.LBE20+0x14>
9d0059cc:	2442ffff 	addiu	v0,v0,-1
9d0059d0:	00001821 	move	v1,zero
9d0059d4:	03e00008 	jr	ra
9d0059d8:	24020001 	li	v0,1
9d0059dc:	0b4015d2 	j	9d005748 <.LBB16+0x54>
9d0059e0:	00c83021 	addu	a2,a2,t0

Disassembly of section .text.dp32subadd:

9d0059e4 <__subdf3>:
9d0059e4:	3c018000 00e13826                       ...<&8..

9d0059ec <__adddf3>:
9d0059ec:	00055840 000b5d42 000552c0 00047d42     @X..B]...R..B}..
9d0059fc:	014f5025 00044ac0 3c088000 01485025     %PO..J.....<%PH.
9d005a0c:	00077040 000e7542 00076ac0 00067d42     @p..Bu...j..B}..
9d005a1c:	01af6825 000662c0 01a86825 256fffff     %h...b..%h....o%
9d005a2c:	2de107fe 1020008d 00000000              ...-.. .....

9d005a38 <Blab1>:
9d005a38:	25cfffff 	addiu	t7,t6,-1
9d005a3c:	2de107fe 	sltiu	at,t7,2046
9d005a40:	102000bb 	beqz	at,9d005d30 <BspecB>
9d005a44:	00000000 	nop

9d005a48 <Blab2>:
9d005a48:	3c018000 	lui	at,0x8000
9d005a4c:	00a12824 	and	a1,a1,at
9d005a50:	016e4023 	subu	t0,t3,t6
9d005a54:	1100002c 	beqz	t0,9d005b08 <Badd3>
9d005a58:	00000000 	nop
9d005a5c:	19000015 	blez	t0,9d005ab4 <i1>
9d005a60:	00000000 	nop

9d005a64 <L1>:
9d005a64:	2d010020 	sltiu	at,t0,32
9d005a68:	14200007 	bnez	at,9d005a88 <L2>
9d005a6c:	00000000 	nop
9d005a70:	2108ffe0 	addi	t0,t0,-32
9d005a74:	000c302b 	sltu	a2,zero,t4
9d005a78:	100d0023 	beq	zero,t5,9d005b08 <Badd3>
9d005a7c:	01a66025 	or	t4,t5,a2
9d005a80:	1000fff8 	b	9d005a64 <L1>
9d005a84:	340d0000 	li	t5,0x0

9d005a88 <L2>:
9d005a88:	1100001f 	beqz	t0,9d005b08 <Badd3>
9d005a8c:	00000000 	nop
9d005a90:	00082022 	neg	a0,t0
9d005a94:	008c3004 	sllv	a2,t4,a0
9d005a98:	008d2004 	sllv	a0,t5,a0
9d005a9c:	010c6006 	srlv	t4,t4,t0
9d005aa0:	010d6806 	srlv	t5,t5,t0
9d005aa4:	10c00018 	beqz	a2,9d005b08 <Badd3>
9d005aa8:	008c6025 	or	t4,a0,t4
9d005aac:	10000016 	b	9d005b08 <Badd3>
9d005ab0:	358c0002 	ori	t4,t4,0x2

9d005ab4 <i1>:
9d005ab4:	000e5825 	or	t3,zero,t6
9d005ab8:	00084023 	negu	t0,t0

9d005abc <L4>:
9d005abc:	2d010020 	sltiu	at,t0,32
9d005ac0:	14200007 	bnez	at,9d005ae0 <L5>
9d005ac4:	00000000 	nop
9d005ac8:	2108ffe0 	addi	t0,t0,-32
9d005acc:	0009302b 	sltu	a2,zero,t1
9d005ad0:	100a000d 	beq	zero,t2,9d005b08 <Badd3>
9d005ad4:	01464825 	or	t1,t2,a2
9d005ad8:	1000fff8 	b	9d005abc <L4>
9d005adc:	340a0000 	li	t2,0x0

9d005ae0 <L5>:
9d005ae0:	11000009 	beqz	t0,9d005b08 <Badd3>
9d005ae4:	00000000 	nop
9d005ae8:	00082022 	neg	a0,t0
9d005aec:	00893004 	sllv	a2,t1,a0
9d005af0:	008a2004 	sllv	a0,t2,a0
9d005af4:	01094806 	srlv	t1,t1,t0
9d005af8:	010a5006 	srlv	t2,t2,t0
9d005afc:	10c00002 	beqz	a2,9d005b08 <Badd3>
9d005b00:	00894825 	or	t1,a0,t1
9d005b04:	35290002 	ori	t1,t1,0x2

9d005b08 <Badd3>:
9d005b08:	00a77826 	xor	t7,a1,a3
9d005b0c:	05e0001c 	bltz	t7,9d005b80 <Bsub1>
9d005b10:	00000000 	nop
9d005b14:	012c4821 	addu	t1,t1,t4
9d005b18:	012c782b 	sltu	t7,t1,t4
9d005b1c:	014d5021 	addu	t2,t2,t5
9d005b20:	014f5021 	addu	t2,t2,t7
9d005b24:	114d0002 	beq	t2,t5,9d005b30 <L7>
9d005b28:	00000000 	nop
9d005b2c:	014d782b 	sltu	t7,t2,t5

9d005b30 <L7>:
9d005b30:	11e00037 	beqz	t7,9d005c10 <Bres>
9d005b34:	00000000 	nop
9d005b38:	312f0001 	andi	t7,t1,0x1
9d005b3c:	11e00002 	beqz	t7,9d005b48 <i3>
9d005b40:	00000000 	nop
9d005b44:	35290002 	ori	t1,t1,0x2

9d005b48 <i3>:
9d005b48:	00094842 	srl	t1,t1,0x1
9d005b4c:	000a7fc0 	sll	t7,t2,0x1f
9d005b50:	012f4825 	or	t1,t1,t7
9d005b54:	000a5042 	srl	t2,t2,0x1
9d005b58:	3c018000 	lui	at,0x8000
9d005b5c:	01415025 	or	t2,t2,at
9d005b60:	256b0001 	addiu	t3,t3,1
9d005b64:	240107ff 	li	at,2047
9d005b68:	15610029 	bne	t3,at,9d005c10 <Bres>
9d005b6c:	00000000 	nop
9d005b70:	3c017ff0 	lui	at,0x7ff0
9d005b74:	00a12825 	or	a1,a1,at
9d005b78:	10000037 	b	9d005c58 <BretA>
9d005b7c:	24040000 	li	a0,0

9d005b80 <Bsub1>:
9d005b80:	012c782b 	sltu	t7,t1,t4
9d005b84:	012c4823 	subu	t1,t1,t4
9d005b88:	014f102b 	sltu	v0,t2,t7
9d005b8c:	014f5023 	subu	t2,t2,t7
9d005b90:	014d782b 	sltu	t7,t2,t5
9d005b94:	01e27825 	or	t7,t7,v0
9d005b98:	11e00007 	beqz	t7,9d005bb8 <i5>
9d005b9c:	014d5023 	subu	t2,t2,t5
9d005ba0:	3c018000 	lui	at,0x8000
9d005ba4:	00a12826 	xor	a1,a1,at
9d005ba8:	0009782b 	sltu	t7,zero,t1
9d005bac:	00094823 	negu	t1,t1
9d005bb0:	000a5023 	negu	t2,t2
9d005bb4:	014f5023 	subu	t2,t2,t7

9d005bb8 <i5>:
9d005bb8:	15400008 	bnez	t2,9d005bdc <L8>
9d005bbc:	00000000 	nop
9d005bc0:	15200003 	bnez	t1,9d005bd0 <L9>
9d005bc4:	00000000 	nop
9d005bc8:	1000000d 	b	9d005c00 <L10>
9d005bcc:	240b0000 	li	t3,0

9d005bd0 <L9>:
9d005bd0:	01205025 	move	t2,t1
9d005bd4:	24090000 	li	t1,0
9d005bd8:	256bffe0 	addiu	t3,t3,-32

9d005bdc <L8>:
9d005bdc:	71484020 	clz	t0,t2
9d005be0:	11000007 	beqz	t0,9d005c00 <L10>
9d005be4:	00000000 	nop
9d005be8:	01685823 	subu	t3,t3,t0
9d005bec:	00082022 	neg	a0,t0
9d005bf0:	00892006 	srlv	a0,t1,a0
9d005bf4:	01094804 	sllv	t1,t1,t0
9d005bf8:	010a5004 	sllv	t2,t2,t0
9d005bfc:	01445025 	or	t2,t2,a0

9d005c00 <L10>:
9d005c00:	01497825 	or	t7,t2,t1
9d005c04:	15e00002 	bnez	t7,9d005c10 <Bres>
9d005c08:	00000000 	nop
9d005c0c:	24050000 	li	a1,0

9d005c10 <Bres>:
9d005c10:	19600068 	blez	t3,9d005db4 <Bund>
9d005c14:	00000000 	nop

9d005c18 <Blab8>:
9d005c18:	25290400 	addiu	t1,t1,1024
9d005c1c:	2d2f0400 	sltiu	t7,t1,1024
9d005c20:	014f5021 	addu	t2,t2,t7
9d005c24:	014f782b 	sltu	t7,t2,t7
9d005c28:	016f5821 	addu	t3,t3,t7
9d005c2c:	00097ac2 	srl	t7,t1,0xb
9d005c30:	31ef0001 	andi	t7,t7,0x1
9d005c34:	012f4823 	subu	t1,t1,t7
9d005c38:	000922c2 	srl	a0,t1,0xb
9d005c3c:	000a7d40 	sll	t7,t2,0x15
9d005c40:	008f2025 	or	a0,a0,t7
9d005c44:	000a7840 	sll	t7,t2,0x1
9d005c48:	000f7b02 	srl	t7,t7,0xc
9d005c4c:	00af2825 	or	a1,a1,t7
9d005c50:	000b7d00 	sll	t7,t3,0x14
9d005c54:	00af2825 	or	a1,a1,t7

9d005c58 <BretA>:
9d005c58:	00041025 	or	v0,zero,a0
9d005c5c:	00051825 	or	v1,zero,a1

9d005c60 <B999>:
9d005c60:	03e00008 	jr	ra
9d005c64:	00000000 	nop

9d005c68 <BspecA>:
9d005c68:	0120782a 	slt	t7,t1,zero
9d005c6c:	01294821 	addu	t1,t1,t1
9d005c70:	014a5021 	addu	t2,t2,t2
9d005c74:	15600023 	bnez	t3,9d005d04 <i7>
9d005c78:	014f5021 	addu	t2,t2,t7
9d005c7c:	01497825 	or	t7,t2,t1
9d005c80:	11e00014 	beqz	t7,9d005cd4 <i8>
9d005c84:	00000000 	nop
9d005c88:	15400008 	bnez	t2,9d005cac <L11>
9d005c8c:	00000000 	nop
9d005c90:	15200003 	bnez	t1,9d005ca0 <L12>
9d005c94:	00000000 	nop
9d005c98:	1000ff67 	b	9d005a38 <Blab1>
9d005c9c:	240b0000 	li	t3,0

9d005ca0 <L12>:
9d005ca0:	01205025 	move	t2,t1
9d005ca4:	24090000 	li	t1,0
9d005ca8:	256bffe0 	addiu	t3,t3,-32

9d005cac <L11>:
9d005cac:	71484020 	clz	t0,t2
9d005cb0:	1100ff61 	beqz	t0,9d005a38 <Blab1>
9d005cb4:	00000000 	nop
9d005cb8:	01685823 	subu	t3,t3,t0
9d005cbc:	00082022 	neg	a0,t0
9d005cc0:	00892006 	srlv	a0,t1,a0
9d005cc4:	01094804 	sllv	t1,t1,t0
9d005cc8:	010a5004 	sllv	t2,t2,t0
9d005ccc:	1000ff5a 	b	9d005a38 <Blab1>
9d005cd0:	01445025 	or	t2,t2,a0

9d005cd4 <i8>:
9d005cd4:	240107ff 	li	at,2047
9d005cd8:	11c10015 	beq	t6,at,9d005d30 <BspecB>
9d005cdc:	00000000 	nop
9d005ce0:	00e74021 	addu	t0,a3,a3
9d005ce4:	01067825 	or	t7,t0,a2
9d005ce8:	15e00003 	bnez	t7,9d005cf8 <BretB>
9d005cec:	00000000 	nop
9d005cf0:	04e0ffd9 	bltz	a3,9d005c58 <BretA>
9d005cf4:	00000000 	nop

9d005cf8 <BretB>:
9d005cf8:	00061025 	or	v0,zero,a2
9d005cfc:	1000ffd8 	b	9d005c60 <B999>
9d005d00:	00071825 	or	v1,zero,a3

9d005d04 <i7>:
9d005d04:	01497825 	or	t7,t2,t1
9d005d08:	15e00027 	bnez	t7,9d005da8 <Bnan>
9d005d0c:	00000000 	nop
9d005d10:	240107ff 	li	at,2047
9d005d14:	15c1ffd0 	bne	t6,at,9d005c58 <BretA>
9d005d18:	00000000 	nop
9d005d1c:	00a77826 	xor	t7,a1,a3
9d005d20:	05e00021 	bltz	t7,9d005da8 <Bnan>
9d005d24:	00000000 	nop
9d005d28:	1000fff3 	b	9d005cf8 <BretB>
9d005d2c:	00000000 	nop

9d005d30 <BspecB>:
9d005d30:	0180782a 	slt	t7,t4,zero
9d005d34:	018c6021 	addu	t4,t4,t4
9d005d38:	01ad6821 	addu	t5,t5,t5
9d005d3c:	15c00017 	bnez	t6,9d005d9c <i11>
9d005d40:	01af6821 	addu	t5,t5,t7
9d005d44:	01ac7825 	or	t7,t5,t4
9d005d48:	11e0ffc3 	beqz	t7,9d005c58 <BretA>
9d005d4c:	00000000 	nop
9d005d50:	15a00008 	bnez	t5,9d005d74 <L14>
9d005d54:	00000000 	nop
9d005d58:	15800003 	bnez	t4,9d005d68 <L15>
9d005d5c:	00000000 	nop
9d005d60:	1000ff39 	b	9d005a48 <Blab2>
9d005d64:	240e0000 	li	t6,0

9d005d68 <L15>:
9d005d68:	01806825 	move	t5,t4
9d005d6c:	240c0000 	li	t4,0
9d005d70:	25ceffe0 	addiu	t6,t6,-32

9d005d74 <L14>:
9d005d74:	71a84020 	clz	t0,t5
9d005d78:	1100ff33 	beqz	t0,9d005a48 <Blab2>
9d005d7c:	00000000 	nop
9d005d80:	01c87023 	subu	t6,t6,t0
9d005d84:	00082022 	neg	a0,t0
9d005d88:	008c2006 	srlv	a0,t4,a0
9d005d8c:	010c6004 	sllv	t4,t4,t0
9d005d90:	010d6804 	sllv	t5,t5,t0
9d005d94:	1000ff2c 	b	9d005a48 <Blab2>
9d005d98:	01a46825 	or	t5,t5,a0

9d005d9c <i11>:
9d005d9c:	01ac7825 	or	t7,t5,t4
9d005da0:	11e0ffd5 	beqz	t7,9d005cf8 <BretB>
9d005da4:	00000000 	nop

9d005da8 <Bnan>:
9d005da8:	3c05fff8 	lui	a1,0xfff8
9d005dac:	1000ffaa 	b	9d005c58 <BretA>
9d005db0:	24040000 	li	a0,0

9d005db4 <Bund>:
9d005db4:	24080001 	li	t0,1
9d005db8:	010b4023 	subu	t0,t0,t3

9d005dbc <L17>:
9d005dbc:	2d010020 	sltiu	at,t0,32
9d005dc0:	14200007 	bnez	at,9d005de0 <L18>
9d005dc4:	00000000 	nop
9d005dc8:	2108ffe0 	addi	t0,t0,-32
9d005dcc:	0009302b 	sltu	a2,zero,t1
9d005dd0:	100a000d 	beq	zero,t2,9d005e08 <L19>
9d005dd4:	01464825 	or	t1,t2,a2
9d005dd8:	1000fff8 	b	9d005dbc <L17>
9d005ddc:	340a0000 	li	t2,0x0

9d005de0 <L18>:
9d005de0:	11000009 	beqz	t0,9d005e08 <L19>
9d005de4:	00000000 	nop
9d005de8:	00082022 	neg	a0,t0
9d005dec:	00893004 	sllv	a2,t1,a0
9d005df0:	008a2004 	sllv	a0,t2,a0
9d005df4:	01094806 	srlv	t1,t1,t0
9d005df8:	010a5006 	srlv	t2,t2,t0
9d005dfc:	10c00002 	beqz	a2,9d005e08 <L19>
9d005e00:	00894825 	or	t1,a0,t1
9d005e04:	35290002 	ori	t1,t1,0x2

9d005e08 <L19>:
9d005e08:	1000ff83 	b	9d005c18 <Blab8>
9d005e0c:	240b0000 	li	t3,0
9d005e10:	00000000 	nop

Disassembly of section .text:

9d005e14 <Controller>:
static volatile int ADCarray[PLOTPTS];  // measured values to plot
static volatile int REFarray[PLOTPTS];  // reference values to plot
static volatile int StoringData = 0;    // if this flag = 1, currently storing plot storing data
static volatile float Kp = 0, Ki = 0; // waveform

void __ISR(_TIMER_2_VECTOR, IPL5SOFT) Controller(void) {
9d005e14:	415de800 	rdpgpr	sp,sp
9d005e18:	401a7000 	mfc0	k0,c0_epc
9d005e1c:	401b6000 	mfc0	k1,c0_status
9d005e20:	27bdffd8 	addiu	sp,sp,-40
9d005e24:	afba0024 	sw	k0,36(sp)
9d005e28:	401a6002 	mfc0	k0,c0_srsctl
9d005e2c:	afbb0020 	sw	k1,32(sp)
9d005e30:	afba001c 	sw	k0,28(sp)
9d005e34:	7c1b7844 	ins	k1,zero,0x1,0xf
9d005e38:	377b1400 	ori	k1,k1,0x1400
9d005e3c:	409b6000 	mtc0	k1,c0_status
9d005e40:	afbf0014 	sw	ra,20(sp)
9d005e44:	afa50010 	sw	a1,16(sp)
9d005e48:	afa4000c 	sw	a0,12(sp)
9d005e4c:	afa30008 	sw	v1,8(sp)
9d005e50:	afa20004 	sw	v0,4(sp)
  static int counter = 0;     // counter is initialised once
  static int plotind = 0;     // index for data arrays - counts up to PLOTPTS
  static int decctr = 0;      // counts to store data once every DECIMATION
  static int adcval = 0;

  OC1RS = Waveform[counter];  // set duty cycle based on counter
9d005e54:	8f838020 	lw	v1,-32736(gp)
9d005e58:	00031880 	sll	v1,v1,0x2
9d005e5c:	3c02a000 	lui	v0,0xa000
9d005e60:	24420664 	addiu	v0,v0,1636
9d005e64:	00621021 	addu	v0,v1,v0
9d005e68:	8c430000 	lw	v1,0(v0)
9d005e6c:	3c02bf80 	lui	v0,0xbf80
9d005e70:	ac433020 	sw	v1,12320(v0)

  // ADC sampling
  AD1CHSbits.CH0SA = 0; // set MUXA to sample B0
9d005e74:	3c02bf81 	lui	v0,0xbf81
9d005e78:	8c439040 	lw	v1,-28608(v0)
9d005e7c:	7c039c04 	ins	v1,zero,0x10,0x4
9d005e80:	ac439040 	sw	v1,-28608(v0)
  AD1CON1bits.SAMP = 1; // start sampling
9d005e84:	3c02bf81 	lui	v0,0xbf81
9d005e88:	94439000 	lhu	v1,-28672(v0)
9d005e8c:	24040001 	li	a0,1
9d005e90:	7c830844 	ins	v1,a0,0x1,0x1
9d005e94:	a4439000 	sh	v1,-28672(v0)
  _CP0_SET_COUNT(0);    // reset core timer
9d005e98:	00001021 	move	v0,zero
9d005e9c:	40824800 	mtc0	v0,c0_count
9d005ea0:	000000c0 	ehb
  while (_CP0_GET_COUNT() < SAMPLE_TIME) { ; }  // sample for more than 250 ns
9d005ea4:	40024800 	mfc0	v0,c0_count
9d005ea8:	2c42000a 	sltiu	v0,v0,10
9d005eac:	1440fffd 	bnez	v0,9d005ea4 <Controller+0x90>
9d005eb0:	3c02bf81 	lui	v0,0xbf81
  AD1CON1bits.SAMP = 0;                         // stop sampling and start converting
9d005eb4:	94439000 	lhu	v1,-28672(v0)
9d005eb8:	7c030844 	ins	v1,zero,0x1,0x1
9d005ebc:	a4439000 	sh	v1,-28672(v0)
  while (!AD1CON1bits.DONE) { ; }               // wait for the conversion process to finish
9d005ec0:	00401821 	move	v1,v0
9d005ec4:	8c629000 	lw	v0,-28672(v1)
9d005ec8:	30420001 	andi	v0,v0,0x1
9d005ecc:	1040fffd 	beqz	v0,9d005ec4 <Controller+0xb0>
9d005ed0:	3c02bf81 	lui	v0,0xbf81
  adcval = ADC1BUF0;                            // stores adc value
9d005ed4:	8c439070 	lw	v1,-28560(v0)

  if (StoringData){
9d005ed8:	8f82802c 	lw	v0,-32724(gp)
9d005edc:	10400021 	beqz	v0,9d005f64 <Controller+0x150>
9d005ee0:	8f828020 	lw	v0,-32736(gp)
    decctr++;
9d005ee4:	8f82801c 	lw	v0,-32740(gp)
9d005ee8:	24420001 	addiu	v0,v0,1
    if (decctr == DECIMATION){
9d005eec:	2404000a 	li	a0,10
9d005ef0:	50440003 	beql	v0,a0,9d005f00 <Controller+0xec>
9d005ef4:	af80801c 	sw	zero,-32740(gp)
  AD1CON1bits.SAMP = 0;                         // stop sampling and start converting
  while (!AD1CON1bits.DONE) { ; }               // wait for the conversion process to finish
  adcval = ADC1BUF0;                            // stores adc value

  if (StoringData){
    decctr++;
9d005ef8:	0b4017d2 	j	9d005f48 <Controller+0x134>
9d005efc:	af82801c 	sw	v0,-32740(gp)
    if (decctr == DECIMATION){
      decctr = 0;                             // reset decimation counter
      ADCarray[plotind] = adcval;             // store actual values
9d005f00:	8f828018 	lw	v0,-32744(gp)
9d005f04:	00022080 	sll	a0,v0,0x2
9d005f08:	3c05a000 	lui	a1,0xa000
9d005f0c:	24a50344 	addiu	a1,a1,836
9d005f10:	00852821 	addu	a1,a0,a1
9d005f14:	aca30000 	sw	v1,0(a1)
      REFarray[plotind] = Waveform[counter];  // store reference values
9d005f18:	8f858020 	lw	a1,-32736(gp)
9d005f1c:	00052880 	sll	a1,a1,0x2
9d005f20:	3c03a000 	lui	v1,0xa000
9d005f24:	24630664 	addiu	v1,v1,1636
9d005f28:	00a31821 	addu	v1,a1,v1
9d005f2c:	8c630000 	lw	v1,0(v1)
9d005f30:	3c05a000 	lui	a1,0xa000
9d005f34:	24a50024 	addiu	a1,a1,36
9d005f38:	00852021 	addu	a0,a0,a1
9d005f3c:	ac830000 	sw	v1,0(a0)
      plotind++;
9d005f40:	24420001 	addiu	v0,v0,1
9d005f44:	af828018 	sw	v0,-32744(gp)
    }
    if (plotind == PLOTPTS){
9d005f48:	240200c8 	li	v0,200
9d005f4c:	8f838018 	lw	v1,-32744(gp)
9d005f50:	14620004 	bne	v1,v0,9d005f64 <Controller+0x150>
9d005f54:	8f828020 	lw	v0,-32736(gp)
      plotind = 0;            // reset plot index
9d005f58:	af808018 	sw	zero,-32744(gp)
      StoringData = 0;        // tells main that data has finished storing
9d005f5c:	af80802c 	sw	zero,-32724(gp)
    }
  }

  counter++;
9d005f60:	8f828020 	lw	v0,-32736(gp)
9d005f64:	24420001 	addiu	v0,v0,1
9d005f68:	384303e8 	xori	v1,v0,0x3e8
9d005f6c:	0003100a 	movz	v0,zero,v1
9d005f70:	af828020 	sw	v0,-32736(gp)
  if (counter == NUMSAMPS){
    counter = 0;
  }

  IFS0bits.T2IF = 0;            // clear interrupt flag IFS0<8>
9d005f74:	3c02bf88 	lui	v0,0xbf88
9d005f78:	8c431030 	lw	v1,4144(v0)
9d005f7c:	7c034204 	ins	v1,zero,0x8,0x1
9d005f80:	ac431030 	sw	v1,4144(v0)
}
9d005f84:	8fbf0014 	lw	ra,20(sp)
9d005f88:	8fa50010 	lw	a1,16(sp)
9d005f8c:	8fa4000c 	lw	a0,12(sp)
9d005f90:	8fa30008 	lw	v1,8(sp)
9d005f94:	8fa20004 	lw	v0,4(sp)
9d005f98:	41606000 	di
9d005f9c:	000000c0 	ehb
9d005fa0:	8fba0024 	lw	k0,36(sp)
9d005fa4:	8fbb0020 	lw	k1,32(sp)
9d005fa8:	409a7000 	mtc0	k0,c0_epc
9d005fac:	8fba001c 	lw	k0,28(sp)
9d005fb0:	27bd0028 	addiu	sp,sp,40
9d005fb4:	409a6002 	mtc0	k0,c0_srsctl
9d005fb8:	41dde800 	wrpgpr	sp,sp
9d005fbc:	409b6000 	mtc0	k1,c0_status
9d005fc0:	42000018 	eret

9d005fc4 <makeWaveform>:
  }
  return 0;
}

void makeWaveform(){
  int i = 0, center = (PR3 + 1)/2, A = center / 2;
9d005fc4:	3c02bf80 	lui	v0,0xbf80
9d005fc8:	8c430a20 	lw	v1,2592(v0)
9d005fcc:	24630001 	addiu	v1,v1,1
9d005fd0:	00031842 	srl	v1,v1,0x1
9d005fd4:	00033043 	sra	a2,v1,0x1
  for (i = 0; i < NUMSAMPS; i++){
9d005fd8:	00001021 	move	v0,zero
    if (i < NUMSAMPS/2){
        Waveform[i] = center + A;
    }
    else{
      Waveform[i] = center - A;
9d005fdc:	00663823 	subu	a3,v1,a2
9d005fe0:	3c05a000 	lui	a1,0xa000
9d005fe4:	24a50664 	addiu	a1,a1,1636

void makeWaveform(){
  int i = 0, center = (PR3 + 1)/2, A = center / 2;
  for (i = 0; i < NUMSAMPS; i++){
    if (i < NUMSAMPS/2){
        Waveform[i] = center + A;
9d005fe8:	00663021 	addu	a2,v1,a2
  return 0;
}

void makeWaveform(){
  int i = 0, center = (PR3 + 1)/2, A = center / 2;
  for (i = 0; i < NUMSAMPS; i++){
9d005fec:	240403e8 	li	a0,1000
    if (i < NUMSAMPS/2){
9d005ff0:	284301f4 	slti	v1,v0,500
9d005ff4:	10600005 	beqz	v1,9d00600c <makeWaveform+0x48>
9d005ff8:	00021880 	sll	v1,v0,0x2
        Waveform[i] = center + A;
9d005ffc:	00651821 	addu	v1,v1,a1
9d006000:	ac660000 	sw	a2,0(v1)
9d006004:	0b401806 	j	9d006018 <makeWaveform+0x54>
9d006008:	24420001 	addiu	v0,v0,1
    }
    else{
      Waveform[i] = center - A;
9d00600c:	00651821 	addu	v1,v1,a1
9d006010:	ac670000 	sw	a3,0(v1)
  return 0;
}

void makeWaveform(){
  int i = 0, center = (PR3 + 1)/2, A = center / 2;
  for (i = 0; i < NUMSAMPS; i++){
9d006014:	24420001 	addiu	v0,v0,1
9d006018:	5444fff6 	bnel	v0,a0,9d005ff4 <makeWaveform+0x30>
9d00601c:	284301f4 	slti	v1,v0,500
    }
    else{
      Waveform[i] = center - A;
    }
  }
}
9d006020:	03e00008 	jr	ra
9d006024:	00000000 	nop

9d006028 <main>:
  IFS0bits.T2IF = 0;            // clear interrupt flag IFS0<8>
}

void makeWaveform();

int main(void) {
9d006028:	27bdff58 	addiu	sp,sp,-168
9d00602c:	afbf00a4 	sw	ra,164(sp)
9d006030:	afb500a0 	sw	s5,160(sp)
9d006034:	afb4009c 	sw	s4,156(sp)
9d006038:	afb30098 	sw	s3,152(sp)
9d00603c:	afb20094 	sw	s2,148(sp)
9d006040:	afb10090 	sw	s1,144(sp)
9d006044:	afb0008c 	sw	s0,140(sp)
  // declare local variables
  char message[100];            // message to and from MATLAB
  float Kptemp = 0, Kitemp = 0; // temporary local gains
9d006048:	00001021 	move	v0,zero
9d00604c:	afa2007c 	sw	v0,124(sp)
  int i = 0;                    // plot data loop counter

  NU32_Startup();          // cache on, interrupts on, LED/button init, UART init
9d006050:	0f402073 	jal	9d0081cc <NU32_Startup>
9d006054:	afa20080 	sw	v0,128(sp)

9d006058 <.LVL7>:

  // Setup ADC
  AD1PCFGbits.PCFG0 = 0;  // set B0 as analog input
9d006058:	3c02bf81 	lui	v0,0xbf81
9d00605c:	94439060 	lhu	v1,-28576(v0)
9d006060:	7c030004 	ins	v1,zero,0x0,0x1
9d006064:	a4439060 	sh	v1,-28576(v0)
  AD1CON3bits.ADCS = 2;   // ADC clock period is Tad = 2*(ADCS+1)*Tpb = 2*3*12.5ns = 75ns
9d006068:	24030002 	li	v1,2
9d00606c:	3c02bf81 	lui	v0,0xbf81
9d006070:	a0439020 	sb	v1,-28640(v0)
  AD1CON1bits.ADON = 1;   // turn on A/D converter
9d006074:	3c02bf81 	lui	v0,0xbf81
9d006078:	94449000 	lhu	a0,-28672(v0)
9d00607c:	24030001 	li	v1,1
9d006080:	7c647bc4 	ins	a0,v1,0xf,0x1
9d006084:	a4449000 	sh	a0,-28672(v0)

  // Setup OC1 and Timer3
  T3CONbits.TCKPS = 0;     // Timer3 prescaler N=1
9d006088:	3c04bf80 	lui	a0,0xbf80
9d00608c:	94820a00 	lhu	v0,2560(a0)
9d006090:	7c023104 	ins	v0,zero,0x4,0x3
9d006094:	a4820a00 	sh	v0,2560(a0)
  PR3 = 3999;              // period = 80Mhz /((PR3+1) * N) = 20kHz
9d006098:	24050f9f 	li	a1,3999
9d00609c:	3c02bf80 	lui	v0,0xbf80
9d0060a0:	ac450a20 	sw	a1,2592(v0)
  TMR3 = 0;                // initial TMR2 count is 0
9d0060a4:	3c02bf80 	lui	v0,0xbf80
9d0060a8:	ac400a10 	sw	zero,2576(v0)
  OC1CONbits.OCM = 0b110;  // PWM mode without fault pin; other OC1CON bits are defaults
9d0060ac:	3c02bf80 	lui	v0,0xbf80
9d0060b0:	94453000 	lhu	a1,12288(v0)
9d0060b4:	24060006 	li	a2,6
9d0060b8:	7cc51004 	ins	a1,a2,0x0,0x3
9d0060bc:	a4453000 	sh	a1,12288(v0)
  OC1CONbits.OCTSEL = 1;   // use Timer3 for OC1
9d0060c0:	94453000 	lhu	a1,12288(v0)
9d0060c4:	7c6518c4 	ins	a1,v1,0x3,0x1
9d0060c8:	a4453000 	sh	a1,12288(v0)
  OC1CONbits.OCM = 0b110;  // PWM mode with fault pin disabled
9d0060cc:	94453000 	lhu	a1,12288(v0)
9d0060d0:	7cc51004 	ins	a1,a2,0x0,0x3
9d0060d4:	a4453000 	sh	a1,12288(v0)
  OC1RS = 3000;            // duty cycle = OC1RS/(PR3+1) = 75%
9d0060d8:	24050bb8 	li	a1,3000
9d0060dc:	3c06bf80 	lui	a2,0xbf80
9d0060e0:	acc53020 	sw	a1,12320(a2)
  OC1R = 3000;             // initialize before turning OC1 on; afterward it is read-only
9d0060e4:	3c06bf80 	lui	a2,0xbf80
9d0060e8:	acc53010 	sw	a1,12304(a2)
  T3CONbits.ON = 1;        // turn on Timer3
9d0060ec:	94850a00 	lhu	a1,2560(a0)
9d0060f0:	7c657bc4 	ins	a1,v1,0xf,0x1
9d0060f4:	a4850a00 	sh	a1,2560(a0)
  OC1CONbits.ON = 1;       // turn on OC1
9d0060f8:	94443000 	lhu	a0,12288(v0)
9d0060fc:	7c647bc4 	ins	a0,v1,0xf,0x1
9d006100:	a4443000 	sh	a0,12288(v0)

  // Setup Timer2 for interrupt
  __builtin_disable_interrupts(); // disable interrupts
9d006104:	41626000 	di	v0
9d006108:	000000c0 	ehb
  T2CONbits.TCKPS = 1;            // Timer3 prescaler N=2
9d00610c:	3c03bf80 	lui	v1,0xbf80
9d006110:	94640800 	lhu	a0,2048(v1)
9d006114:	24020001 	li	v0,1
9d006118:	7c443104 	ins	a0,v0,0x4,0x3
9d00611c:	a4640800 	sh	a0,2048(v1)
  PR2 = 39999;                    // period = 80Mhz /((PR2+1) * N) = 1kHz
9d006120:	34059c3f 	li	a1,0x9c3f
9d006124:	3c04bf80 	lui	a0,0xbf80
9d006128:	ac850820 	sw	a1,2080(a0)
  TMR2 = 0;                       // initial TMR2 count is 0
9d00612c:	3c04bf80 	lui	a0,0xbf80
9d006130:	ac800810 	sw	zero,2064(a0)
  T2CONbits.ON = 1;               // turn on Timer2
9d006134:	94640800 	lhu	a0,2048(v1)
9d006138:	7c447bc4 	ins	a0,v0,0xf,0x1
9d00613c:	a4640800 	sh	a0,2048(v1)
  IPC2bits.T2IP = 5;              // interrupt priority 5
9d006140:	3c03bf88 	lui	v1,0xbf88
9d006144:	8c6410b0 	lw	a0,4272(v1)
9d006148:	24050005 	li	a1,5
9d00614c:	7ca42084 	ins	a0,a1,0x2,0x3
9d006150:	ac6410b0 	sw	a0,4272(v1)
  IPC2bits.T2IS = 1;              // interrupt subpriority 1
9d006154:	8c6410b0 	lw	a0,4272(v1)
9d006158:	7c440804 	ins	a0,v0,0x0,0x2
9d00615c:	ac6410b0 	sw	a0,4272(v1)
  IFS0bits.T2IF = 0;              // clear the int flag
9d006160:	3c03bf88 	lui	v1,0xbf88
9d006164:	8c641030 	lw	a0,4144(v1)
9d006168:	7c044204 	ins	a0,zero,0x8,0x1
9d00616c:	ac641030 	sw	a0,4144(v1)
  IEC0bits.T2IE = 1;              // enable T2 by setting IEC0<8>
9d006170:	3c03bf88 	lui	v1,0xbf88
9d006174:	8c641060 	lw	a0,4192(v1)
9d006178:	7c444204 	ins	a0,v0,0x8,0x1
9d00617c:	ac641060 	sw	a0,4192(v1)
  __builtin_enable_interrupts();  // enable interrupts
9d006180:	41626020 	ei	v0

  makeWaveform(); // initialise waveform
9d006184:	0f4017f1 	jal	9d005fc4 <makeWaveform>
9d006188:	3c159d01 	lui	s5,0x9d01

9d00618c <.LBB2>:

  while(1) {
    NU32_ReadUART3(message, sizeof(message));   // wait for a message from MATLAB
    sscanf(message, "%f %f", &Kptemp, &Kitemp); // store MATLAB values to local gains
9d00618c:	26b5a5bc 	addiu	s5,s5,-23108
    StoringData = 1;                // message to ISR to start storing data
    while(StoringData){ ; }         // wait while ISR is storing data

    for (i = 0; i < PLOTPTS; i++){  // send plot data to MATLAB
      // when first integer sent is 1, MATLAB knows we're done
      sprintf(message, "%d %d %d \r\n", PLOTPTS-i, ADCarray[i], REFarray[i]);
9d006190:	3c14a000 	lui	s4,0xa000
9d006194:	26940344 	addiu	s4,s4,836
9d006198:	3c13a000 	lui	s3,0xa000
9d00619c:	26730024 	addiu	s3,s3,36
9d0061a0:	3c129d01 	lui	s2,0x9d01
9d0061a4:	2652a5c4 	addiu	s2,s2,-23100
  __builtin_enable_interrupts();  // enable interrupts

  makeWaveform(); // initialise waveform

  while(1) {
    NU32_ReadUART3(message, sizeof(message));   // wait for a message from MATLAB
9d0061a8:	27a40018 	addiu	a0,sp,24
9d0061ac:	0f4020b8 	jal	9d0082e0 <NU32_ReadUART3>
9d0061b0:	24050064 	li	a1,100

9d0061b4 <.LVL10>:
    sscanf(message, "%f %f", &Kptemp, &Kitemp); // store MATLAB values to local gains
9d0061b4:	27a40018 	addiu	a0,sp,24
9d0061b8:	02a02821 	move	a1,s5
9d0061bc:	27a6007c 	addiu	a2,sp,124
9d0061c0:	0f402739 	jal	9d009ce4 <_sscanf_fF>
9d0061c4:	27a70080 	addiu	a3,sp,128

9d0061c8 <.LVL11>:

    __builtin_disable_interrupts(); // disable interrupts
9d0061c8:	41626000 	di	v0
9d0061cc:	000000c0 	ehb
    Kp = Kptemp; Ki = Kitemp;       // copy local to global values
9d0061d0:	8fa2007c 	lw	v0,124(sp)
9d0061d4:	af828028 	sw	v0,-32728(gp)
9d0061d8:	8fa20080 	lw	v0,128(sp)
9d0061dc:	af828024 	sw	v0,-32732(gp)
    __builtin_enable_interrupts();  // enable interrupts
9d0061e0:	41626020 	ei	v0

    StoringData = 1;                // message to ISR to start storing data
9d0061e4:	24020001 	li	v0,1
9d0061e8:	af82802c 	sw	v0,-32724(gp)
    while(StoringData){ ; }         // wait while ISR is storing data
9d0061ec:	8f82802c 	lw	v0,-32724(gp)
9d0061f0:	1440fffe 	bnez	v0,9d0061ec <.LVL11+0x24>
9d0061f4:	00008021 	move	s0,zero
9d0061f8:	241100c8 	li	s1,200

    for (i = 0; i < PLOTPTS; i++){  // send plot data to MATLAB
      // when first integer sent is 1, MATLAB knows we're done
      sprintf(message, "%d %d %d \r\n", PLOTPTS-i, ADCarray[i], REFarray[i]);
9d0061fc:	00101080 	sll	v0,s0,0x2
9d006200:	00541821 	addu	v1,v0,s4
9d006204:	8c670000 	lw	a3,0(v1)
9d006208:	00531021 	addu	v0,v0,s3
9d00620c:	8c420000 	lw	v0,0(v0)
9d006210:	afa20010 	sw	v0,16(sp)
9d006214:	27a40018 	addiu	a0,sp,24
9d006218:	02402821 	move	a1,s2
9d00621c:	0f402756 	jal	9d009d58 <_sprintf_cdnopuxX>
9d006220:	02303023 	subu	a2,s1,s0

9d006224 <.LVL13>:
      NU32_WriteUART3(message);
9d006224:	0f4020d5 	jal	9d008354 <NU32_WriteUART3>
9d006228:	27a40018 	addiu	a0,sp,24

9d00622c <.LVL14>:
    __builtin_enable_interrupts();  // enable interrupts

    StoringData = 1;                // message to ISR to start storing data
    while(StoringData){ ; }         // wait while ISR is storing data

    for (i = 0; i < PLOTPTS; i++){  // send plot data to MATLAB
9d00622c:	26100001 	addiu	s0,s0,1
9d006230:	1611fff3 	bne	s0,s1,9d006200 <.LVL11+0x38>
9d006234:	00101080 	sll	v0,s0,0x2
9d006238:	0b40186b 	j	9d0061ac <.LBB2+0x20>
9d00623c:	27a40018 	addiu	a0,sp,24

Disassembly of section .text.__strtod:

9d006240 <__strtod>:
9d006240:	27bdffc8 	addiu	sp,sp,-56

9d006244 <.LCFI0>:
9d006244:	afbf0034 	sw	ra,52(sp)
9d006248:	afbe0030 	sw	s8,48(sp)
9d00624c:	afb7002c 	sw	s7,44(sp)
9d006250:	afb60028 	sw	s6,40(sp)
9d006254:	afb50024 	sw	s5,36(sp)
9d006258:	afb40020 	sw	s4,32(sp)
9d00625c:	afb3001c 	sw	s3,28(sp)
9d006260:	afb20018 	sw	s2,24(sp)
9d006264:	afb10014 	sw	s1,20(sp)
9d006268:	afb00010 	sw	s0,16(sp)
9d00626c:	0080b821 	move	s7,a0
9d006270:	80820000 	lb	v0,0(a0)
9d006274:	3c1e9d01 	lui	s8,0x9d01
9d006278:	27de8c05 	addiu	s8,s8,-29691
9d00627c:	03c21821 	addu	v1,s8,v0
9d006280:	80630000 	lb	v1,0(v1)
9d006284:	00a0a821 	move	s5,a1
9d006288:	30630088 	andi	v1,v1,0x88
9d00628c:	10600008 	beqz	v1,9d0062b0 <.LCFI0+0x6c>
9d006290:	0080a021 	move	s4,a0
9d006294:	26940001 	addiu	s4,s4,1
9d006298:	82820000 	lb	v0,0(s4)
9d00629c:	03c21821 	addu	v1,s8,v0
9d0062a0:	80630000 	lb	v1,0(v1)
9d0062a4:	30630088 	andi	v1,v1,0x88
9d0062a8:	5460fffb 	bnezl	v1,9d006298 <.LCFI0+0x54>
9d0062ac:	26940001 	addiu	s4,s4,1
9d0062b0:	2403002d 	li	v1,45
9d0062b4:	10430098 	beq	v0,v1,9d006518 <.LCFI0+0x2d4>
9d0062b8:	3842002b 	xori	v0,v0,0x2b
9d0062bc:	2c420001 	sltiu	v0,v0,1
9d0062c0:	00009821 	move	s3,zero
9d0062c4:	0282a021 	addu	s4,s4,v0
9d0062c8:	82860000 	lb	a2,0(s4)
9d0062cc:	03c61021 	addu	v0,s8,a2
9d0062d0:	90420000 	lbu	v0,0(v0)
9d0062d4:	30420004 	andi	v0,v0,0x4
9d0062d8:	00008821 	move	s1,zero
9d0062dc:	104000bc 	beqz	v0,9d0065d0 <.LCFI0+0x38c>
9d0062e0:	00008021 	move	s0,zero
9d0062e4:	00009021 	move	s2,zero
9d0062e8:	24d6ffd0 	addiu	s6,a2,-48
9d0062ec:	02002821 	move	a1,s0
9d0062f0:	02202021 	move	a0,s1
9d0062f4:	00003021 	move	a2,zero
9d0062f8:	0f401b3c 	jal	9d006cf0 <.LFE23>
9d0062fc:	3c074024 	lui	a3,0x4024
9d006300:	00408021 	move	s0,v0
9d006304:	00608821 	move	s1,v1
9d006308:	0f40271b 	jal	9d009c6c <__floatsidf>
9d00630c:	02c02021 	move	a0,s6
9d006310:	02002021 	move	a0,s0
9d006314:	02202821 	move	a1,s1
9d006318:	00403021 	move	a2,v0
9d00631c:	00603821 	move	a3,v1
9d006320:	0f40167b 	jal	9d0059ec <__adddf3>
9d006324:	26940001 	addiu	s4,s4,1
9d006328:	00408821 	move	s1,v0
9d00632c:	00608021 	move	s0,v1
9d006330:	82860000 	lb	a2,0(s4)
9d006334:	03c61021 	addu	v0,s8,a2
9d006338:	90420000 	lbu	v0,0(v0)
9d00633c:	30420004 	andi	v0,v0,0x4
9d006340:	1440ffe9 	bnez	v0,9d0062e8 <.LCFI0+0xa4>
9d006344:	02569025 	or	s2,s2,s6
9d006348:	24030001 	li	v1,1
9d00634c:	2402002e 	li	v0,46
9d006350:	50c20048 	beql	a2,v0,9d006474 <.LCFI0+0x230>
9d006354:	82820001 	lb	v0,1(s4)
9d006358:	54600072 	bnezl	v1,9d006524 <.LCFI0+0x2e0>
9d00635c:	82820000 	lb	v0,0(s4)
9d006360:	12a0002a 	beqz	s5,9d00640c <.LCFI0+0x1c8>
9d006364:	00000000 	nop
9d006368:	02e0a021 	move	s4,s7
9d00636c:	0000b821 	move	s7,zero
9d006370:	aeb40000 	sw	s4,0(s5)
9d006374:	12e00025 	beqz	s7,9d00640c <.LCFI0+0x1c8>
9d006378:	00004021 	move	t0,zero
9d00637c:	001717c3 	sra	v0,s7,0x1f
9d006380:	0057b026 	xor	s6,v0,s7
9d006384:	02c2b023 	subu	s6,s6,v0
9d006388:	3c159d01 	lui	s5,0x9d01
9d00638c:	26b5a1c4 	addiu	s5,s5,-24124
9d006390:	3c093ff0 	lui	t1,0x3ff0
9d006394:	0b4018e9 	j	9d0063a4 <.LCFI0+0x160>
9d006398:	24140009 	li	s4,9
9d00639c:	1280000e 	beqz	s4,9d0063d8 <.LCFI0+0x194>
9d0063a0:	26b5fff8 	addiu	s5,s5,-8
9d0063a4:	2694ffff 	addiu	s4,s4,-1
9d0063a8:	02961007 	srav	v0,s6,s4
9d0063ac:	30420001 	andi	v0,v0,0x1
9d0063b0:	1040fffa 	beqz	v0,9d00639c <.LCFI0+0x158>
9d0063b4:	01002021 	move	a0,t0
9d0063b8:	8ea60000 	lw	a2,0(s5)
9d0063bc:	8ea70004 	lw	a3,4(s5)
9d0063c0:	0f401b3c 	jal	9d006cf0 <.LFE23>
9d0063c4:	01202821 	move	a1,t1
9d0063c8:	00404021 	move	t0,v0
9d0063cc:	00604821 	move	t1,v1
9d0063d0:	1680fff4 	bnez	s4,9d0063a4 <.LCFI0+0x160>
9d0063d4:	26b5fff8 	addiu	s5,s5,-8
9d0063d8:	02202021 	move	a0,s1
9d0063dc:	02002821 	move	a1,s0
9d0063e0:	01003021 	move	a2,t0
9d0063e4:	06e00075 	bltz	s7,9d0065bc <.LCFI0+0x378>
9d0063e8:	01203821 	move	a3,t1
9d0063ec:	0f401b3c 	jal	9d006cf0 <.LFE23>
9d0063f0:	00000000 	nop
9d0063f4:	00402021 	move	a0,v0
9d0063f8:	00602821 	move	a1,v1
9d0063fc:	0f402153 	jal	9d00854c <__ldexp>
9d006400:	02e03021 	move	a2,s7
9d006404:	00408821 	move	s1,v0
9d006408:	00608021 	move	s0,v1
9d00640c:	1220007b 	beqz	s1,9d0065fc <.LCFI0+0x3b8>
9d006410:	7e02f000 	ext	v0,s0,0x0,0x1f
9d006414:	02301025 	or	v0,s1,s0
9d006418:	10400073 	beqz	v0,9d0065e8 <.LCFI0+0x3a4>
9d00641c:	00000000 	nop
9d006420:	12600007 	beqz	s3,9d006440 <.LCFI0+0x1fc>
9d006424:	02201021 	move	v0,s1
9d006428:	02202021 	move	a0,s1
9d00642c:	0f40295c 	jal	9d00a570 <__negdf2>
9d006430:	02002821 	move	a1,s0
9d006434:	00408821 	move	s1,v0
9d006438:	00608021 	move	s0,v1
9d00643c:	02201021 	move	v0,s1
9d006440:	02001821 	move	v1,s0
9d006444:	8fbf0034 	lw	ra,52(sp)
9d006448:	8fbe0030 	lw	s8,48(sp)
9d00644c:	8fb7002c 	lw	s7,44(sp)
9d006450:	8fb60028 	lw	s6,40(sp)
9d006454:	8fb50024 	lw	s5,36(sp)
9d006458:	8fb40020 	lw	s4,32(sp)
9d00645c:	8fb3001c 	lw	s3,28(sp)
9d006460:	8fb20018 	lw	s2,24(sp)
9d006464:	8fb10014 	lw	s1,20(sp)
9d006468:	8fb00010 	lw	s0,16(sp)
9d00646c:	03e00008 	jr	ra
9d006470:	27bd0038 	addiu	sp,sp,56
9d006474:	03c22021 	addu	a0,s8,v0
9d006478:	90840000 	lbu	a0,0(a0)
9d00647c:	30840004 	andi	a0,a0,0x4
9d006480:	1080ffb5 	beqz	a0,9d006358 <.LCFI0+0x114>
9d006484:	26940001 	addiu	s4,s4,1
9d006488:	0000b821 	move	s7,zero
9d00648c:	2456ffd0 	addiu	s6,v0,-48
9d006490:	02002821 	move	a1,s0
9d006494:	02202021 	move	a0,s1
9d006498:	00003021 	move	a2,zero
9d00649c:	0f401b3c 	jal	9d006cf0 <.LFE23>
9d0064a0:	3c074024 	lui	a3,0x4024
9d0064a4:	00408021 	move	s0,v0
9d0064a8:	00608821 	move	s1,v1
9d0064ac:	0f40271b 	jal	9d009c6c <__floatsidf>
9d0064b0:	02c02021 	move	a0,s6
9d0064b4:	02002021 	move	a0,s0
9d0064b8:	02202821 	move	a1,s1
9d0064bc:	00403021 	move	a2,v0
9d0064c0:	00603821 	move	a3,v1
9d0064c4:	0f40167b 	jal	9d0059ec <__adddf3>
9d0064c8:	26940001 	addiu	s4,s4,1
9d0064cc:	00408821 	move	s1,v0
9d0064d0:	00608021 	move	s0,v1
9d0064d4:	82820000 	lb	v0,0(s4)
9d0064d8:	02569025 	or	s2,s2,s6
9d0064dc:	03c21821 	addu	v1,s8,v0
9d0064e0:	90630000 	lbu	v1,0(v1)
9d0064e4:	30630004 	andi	v1,v1,0x4
9d0064e8:	1460ffe8 	bnez	v1,9d00648c <.LCFI0+0x248>
9d0064ec:	26f7ffff 	addiu	s7,s7,-1
9d0064f0:	2404ffdf 	li	a0,-33
9d0064f4:	00441824 	and	v1,v0,a0
9d0064f8:	7c031c20 	seb	v1,v1
9d0064fc:	24020045 	li	v0,69
9d006500:	5062000f 	beql	v1,v0,9d006540 <.LCFI0+0x2fc>
9d006504:	82830001 	lb	v1,1(s4)
9d006508:	56a0ff9a 	bnezl	s5,9d006374 <.LCFI0+0x130>
9d00650c:	aeb40000 	sw	s4,0(s5)
9d006510:	0b4018dd 	j	9d006374 <.LCFI0+0x130>
9d006514:	00000000 	nop
9d006518:	26940001 	addiu	s4,s4,1
9d00651c:	0b4018b2 	j	9d0062c8 <.LCFI0+0x84>
9d006520:	24130001 	li	s3,1
9d006524:	2404ffdf 	li	a0,-33
9d006528:	00441824 	and	v1,v0,a0
9d00652c:	7c031c20 	seb	v1,v1
9d006530:	24020045 	li	v0,69
9d006534:	1462fff4 	bne	v1,v0,9d006508 <.LCFI0+0x2c4>
9d006538:	0000b821 	move	s7,zero
9d00653c:	82830001 	lb	v1,1(s4)
9d006540:	2402002d 	li	v0,45
9d006544:	10620019 	beq	v1,v0,9d0065ac <.LCFI0+0x368>
9d006548:	2402002b 	li	v0,43
9d00654c:	50620023 	beql	v1,v0,9d0065dc <.LCFI0+0x398>
9d006550:	82830002 	lb	v1,2(s4)
9d006554:	26940001 	addiu	s4,s4,1
9d006558:	00003821 	move	a3,zero
9d00655c:	03c31021 	addu	v0,s8,v1
9d006560:	90420000 	lbu	v0,0(v0)
9d006564:	30420004 	andi	v0,v0,0x4
9d006568:	1040000c 	beqz	v0,9d00659c <.LCFI0+0x358>
9d00656c:	00001021 	move	v0,zero
9d006570:	26940001 	addiu	s4,s4,1
9d006574:	2465ffd0 	addiu	a1,v1,-48
9d006578:	82830000 	lb	v1,0(s4)
9d00657c:	00023040 	sll	a2,v0,0x1
9d006580:	000210c0 	sll	v0,v0,0x3
9d006584:	03c32021 	addu	a0,s8,v1
9d006588:	90840000 	lbu	a0,0(a0)
9d00658c:	00c21021 	addu	v0,a2,v0
9d006590:	30840004 	andi	a0,a0,0x4
9d006594:	1480fff6 	bnez	a0,9d006570 <.LCFI0+0x32c>
9d006598:	00451021 	addu	v0,v0,a1
9d00659c:	00021823 	negu	v1,v0
9d0065a0:	0067100b 	movn	v0,v1,a3
9d0065a4:	0b401942 	j	9d006508 <.LCFI0+0x2c4>
9d0065a8:	02e2b821 	addu	s7,s7,v0
9d0065ac:	82830002 	lb	v1,2(s4)
9d0065b0:	24070001 	li	a3,1
9d0065b4:	0b401957 	j	9d00655c <.LCFI0+0x318>
9d0065b8:	26940002 	addiu	s4,s4,2
9d0065bc:	0f4011ef 	jal	9d0047bc <__divdf3>
9d0065c0:	00000000 	nop
9d0065c4:	00402021 	move	a0,v0
9d0065c8:	0b4018ff 	j	9d0063fc <.LCFI0+0x1b8>
9d0065cc:	00602821 	move	a1,v1
9d0065d0:	00001821 	move	v1,zero
9d0065d4:	0b4018d3 	j	9d00634c <.LCFI0+0x108>
9d0065d8:	00009021 	move	s2,zero
9d0065dc:	00003821 	move	a3,zero
9d0065e0:	0b401957 	j	9d00655c <.LCFI0+0x318>
9d0065e4:	26940002 	addiu	s4,s4,2
9d0065e8:	1240ff8d 	beqz	s2,9d006420 <.LCFI0+0x1dc>
9d0065ec:	24030022 	li	v1,34
9d0065f0:	3c02a000 	lui	v0,0xa000
9d0065f4:	0b401908 	j	9d006420 <.LCFI0+0x1dc>
9d0065f8:	ac430020 	sw	v1,32(v0)
9d0065fc:	3c037ff0 	lui	v1,0x7ff0
9d006600:	1443ff85 	bne	v0,v1,9d006418 <.LCFI0+0x1d4>
9d006604:	02301025 	or	v0,s1,s0
9d006608:	0b40197c 	j	9d0065f0 <.LCFI0+0x3ac>
9d00660c:	24030022 	li	v1,34

Disassembly of section .text.strtoll:

9d006610 <strtoll>:
9d006610:	27bdffd0 	addiu	sp,sp,-48
9d006614:	afbf002c 	sw	ra,44(sp)
9d006618:	afb60028 	sw	s6,40(sp)
9d00661c:	afb50024 	sw	s5,36(sp)
9d006620:	afb40020 	sw	s4,32(sp)
9d006624:	afb3001c 	sw	s3,28(sp)
9d006628:	afb20018 	sw	s2,24(sp)
9d00662c:	afb10014 	sw	s1,20(sp)
9d006630:	afb00010 	sw	s0,16(sp)
9d006634:	00809821 	move	s3,a0
9d006638:	80820000 	lb	v0,0(a0)
9d00663c:	00a0a021 	move	s4,a1
9d006640:	104000c0 	beqz	v0,9d006944 <strtoll+0x334>
9d006644:	00c09021 	move	s2,a2
9d006648:	3c049d01 	lui	a0,0x9d01
9d00664c:	24848c05 	addiu	a0,a0,-29691
9d006650:	00821821 	addu	v1,a0,v0
9d006654:	80630000 	lb	v1,0(v1)
9d006658:	30630088 	andi	v1,v1,0x88
9d00665c:	14600007 	bnez	v1,9d00667c <strtoll+0x6c>
9d006660:	02608821 	move	s1,s3
9d006664:	0b401a1f 	j	9d00687c <strtoll+0x26c>
9d006668:	2403002b 	li	v1,43
9d00666c:	80630000 	lb	v1,0(v1)
9d006670:	30630088 	andi	v1,v1,0x88
9d006674:	50600081 	beqzl	v1,9d00687c <strtoll+0x26c>
9d006678:	2403002b 	li	v1,43
9d00667c:	26310001 	addiu	s1,s1,1
9d006680:	82220000 	lb	v0,0(s1)
9d006684:	1440fff9 	bnez	v0,9d00666c <strtoll+0x5c>
9d006688:	00821821 	addu	v1,a0,v0
9d00668c:	00008021 	move	s0,zero
9d006690:	0000b021 	move	s6,zero
9d006694:	16400063 	bnez	s2,9d006824 <strtoll+0x214>
9d006698:	24020010 	li	v0,16
9d00669c:	24020030 	li	v0,48
9d0066a0:	12020090 	beq	s0,v0,9d0068e4 <strtoll+0x2d4>
9d0066a4:	3c0fcccc 	lui	t7,0xcccc
9d0066a8:	35efcccc 	ori	t7,t7,0xcccc
9d0066ac:	3c0b0ccc 	lui	t3,0xccc
9d0066b0:	356bcccc 	ori	t3,t3,0xcccc
9d0066b4:	240c000a 	li	t4,10
9d0066b8:	0000a821 	move	s5,zero
9d0066bc:	00002021 	move	a0,zero
9d0066c0:	2412000a 	li	s2,10
9d0066c4:	2628ffff 	addiu	t0,s1,-1
9d0066c8:	00002821 	move	a1,zero
9d0066cc:	00001021 	move	v0,zero
9d0066d0:	00001821 	move	v1,zero
9d0066d4:	3c079d01 	lui	a3,0x9d01
9d0066d8:	24e78c05 	addiu	a3,a3,-29691
9d0066dc:	240e0061 	li	t6,97
9d0066e0:	240d0041 	li	t5,65
9d0066e4:	3c187fff 	lui	t8,0x7fff
9d0066e8:	3718ffff 	ori	t8,t8,0xffff
9d0066ec:	1200002c 	beqz	s0,9d0067a0 <strtoll+0x190>
9d0066f0:	25080001 	addiu	t0,t0,1
9d0066f4:	02074821 	addu	t1,s0,a3
9d0066f8:	91290000 	lbu	t1,0(t1)
9d0066fc:	312a0004 	andi	t2,t1,0x4
9d006700:	11400041 	beqz	t2,9d006808 <strtoll+0x1f8>
9d006704:	31260003 	andi	a2,t1,0x3
9d006708:	2610ffd0 	addiu	s0,s0,-48
9d00670c:	06000024 	bltz	s0,9d0067a0 <strtoll+0x190>
9d006710:	0212482a 	slt	t1,s0,s2
9d006714:	11200022 	beqz	t1,9d0067a0 <strtoll+0x190>
9d006718:	0163482a 	slt	t1,t3,v1
9d00671c:	55200037 	bnezl	t1,9d0067fc <strtoll+0x1ec>
9d006720:	24050001 	li	a1,1
9d006724:	146b0003 	bne	v1,t3,9d006734 <strtoll+0x124>
9d006728:	01e2202b 	sltu	a0,t7,v0
9d00672c:	54800033 	bnezl	a0,9d0067fc <strtoll+0x1ec>
9d006730:	24050001 	li	a1,1
9d006734:	14a00030 	bnez	a1,9d0067f8 <strtoll+0x1e8>
9d006738:	02a20018 	mult	s5,v0
9d00673c:	001027c3 	sra	a0,s0,0x1f
9d006740:	71830000 	madd	t4,v1
9d006744:	00003012 	mflo	a2
9d006748:	004c0019 	multu	v0,t4
9d00674c:	00001012 	mflo	v0
9d006750:	00001810 	mfhi	v1
9d006754:	00c31821 	addu	v1,a2,v1
9d006758:	03033023 	subu	a2,t8,v1
9d00675c:	00c4482a 	slt	t1,a2,a0
9d006760:	15200025 	bnez	t1,9d0067f8 <strtoll+0x1e8>
9d006764:	00025027 	nor	t2,zero,v0
9d006768:	54860005 	bnel	a0,a2,9d006780 <strtoll+0x170>
9d00676c:	02028021 	addu	s0,s0,v0
9d006770:	0150502b 	sltu	t2,t2,s0
9d006774:	55400021 	bnezl	t2,9d0067fc <strtoll+0x1ec>
9d006778:	24050001 	li	a1,1
9d00677c:	02028021 	addu	s0,s0,v0
9d006780:	0202302b 	sltu	a2,s0,v0
9d006784:	00642021 	addu	a0,v1,a0
9d006788:	02001021 	move	v0,s0
9d00678c:	00c41821 	addu	v1,a2,a0
9d006790:	81100001 	lb	s0,1(t0)
9d006794:	24040001 	li	a0,1
9d006798:	1600ffd6 	bnez	s0,9d0066f4 <strtoll+0xe4>
9d00679c:	25080001 	addiu	t0,t0,1
9d0067a0:	12c0002d 	beqz	s6,9d006858 <strtoll+0x248>
9d0067a4:	00000000 	nop
9d0067a8:	54a0003b 	bnezl	a1,9d006898 <strtoll+0x288>
9d0067ac:	24030022 	li	v1,34
9d0067b0:	00023823 	negu	a3,v0
9d0067b4:	0007282b 	sltu	a1,zero,a3
9d0067b8:	00033023 	negu	a2,v1
9d0067bc:	00e01021 	move	v0,a3
9d0067c0:	00c51823 	subu	v1,a2,a1
9d0067c4:	12800002 	beqz	s4,9d0067d0 <strtoll+0x1c0>
9d0067c8:	0264400a 	movz	t0,s3,a0
9d0067cc:	ae880000 	sw	t0,0(s4)
9d0067d0:	8fbf002c 	lw	ra,44(sp)
9d0067d4:	8fb60028 	lw	s6,40(sp)
9d0067d8:	8fb50024 	lw	s5,36(sp)
9d0067dc:	8fb40020 	lw	s4,32(sp)
9d0067e0:	8fb3001c 	lw	s3,28(sp)
9d0067e4:	8fb20018 	lw	s2,24(sp)
9d0067e8:	8fb10014 	lw	s1,20(sp)
9d0067ec:	8fb00010 	lw	s0,16(sp)
9d0067f0:	03e00008 	jr	ra
9d0067f4:	27bd0030 	addiu	sp,sp,48
9d0067f8:	24050001 	li	a1,1
9d0067fc:	81100001 	lb	s0,1(t0)
9d006800:	0b4019e6 	j	9d006798 <strtoll+0x188>
9d006804:	24040001 	li	a0,1
9d006808:	10c0ffe5 	beqz	a2,9d0067a0 <strtoll+0x190>
9d00680c:	31290001 	andi	t1,t1,0x1
9d006810:	01a03021 	move	a2,t5
9d006814:	01c9300a 	movz	a2,t6,t1
9d006818:	02068023 	subu	s0,s0,a2
9d00681c:	0b4019c3 	j	9d00670c <strtoll+0xfc>
9d006820:	2610000a 	addiu	s0,s0,10
9d006824:	12420026 	beq	s2,v0,9d0068c0 <strtoll+0x2b0>
9d006828:	0012afc3 	sra	s5,s2,0x1f
9d00682c:	2404ffff 	li	a0,-1
9d006830:	3c057fff 	lui	a1,0x7fff
9d006834:	34a5ffff 	ori	a1,a1,0xffff
9d006838:	02403021 	move	a2,s2
9d00683c:	0f40131d 	jal	9d004c74 <__divdi3>
9d006840:	02a03821 	move	a3,s5
9d006844:	02406021 	move	t4,s2
9d006848:	00407821 	move	t7,v0
9d00684c:	00605821 	move	t3,v1
9d006850:	0b4019b1 	j	9d0066c4 <strtoll+0xb4>
9d006854:	00002021 	move	a0,zero
9d006858:	10a0ffda 	beqz	a1,9d0067c4 <strtoll+0x1b4>
9d00685c:	00000000 	nop
9d006860:	24030022 	li	v1,34
9d006864:	3c02a000 	lui	v0,0xa000
9d006868:	ac430020 	sw	v1,32(v0)
9d00686c:	2402ffff 	li	v0,-1
9d006870:	3c037fff 	lui	v1,0x7fff
9d006874:	0b4019f1 	j	9d0067c4 <strtoll+0x1b4>
9d006878:	3463ffff 	ori	v1,v1,0xffff
9d00687c:	5443000b 	bnel	v0,v1,9d0068ac <strtoll+0x29c>
9d006880:	2403002d 	li	v1,45
9d006884:	3842002d 	xori	v0,v0,0x2d
9d006888:	82300001 	lb	s0,1(s1)
9d00688c:	2c560001 	sltiu	s6,v0,1
9d006890:	0b4019a5 	j	9d006694 <strtoll+0x84>
9d006894:	26310001 	addiu	s1,s1,1
9d006898:	3c02a000 	lui	v0,0xa000
9d00689c:	ac430020 	sw	v1,32(v0)
9d0068a0:	00001021 	move	v0,zero
9d0068a4:	0b4019f1 	j	9d0067c4 <strtoll+0x1b4>
9d0068a8:	3c038000 	lui	v1,0x8000
9d0068ac:	5043fff6 	beql	v0,v1,9d006888 <strtoll+0x278>
9d0068b0:	3842002d 	xori	v0,v0,0x2d
9d0068b4:	82300000 	lb	s0,0(s1)
9d0068b8:	0b4019a5 	j	9d006694 <strtoll+0x84>
9d0068bc:	0000b021 	move	s6,zero
9d0068c0:	24020030 	li	v0,48
9d0068c4:	12020023 	beq	s0,v0,9d006954 <strtoll+0x344>
9d0068c8:	240fffff 	li	t7,-1
9d0068cc:	3c0b07ff 	lui	t3,0x7ff
9d0068d0:	356bffff 	ori	t3,t3,0xffff
9d0068d4:	240c0010 	li	t4,16
9d0068d8:	0000a821 	move	s5,zero
9d0068dc:	0b4019b1 	j	9d0066c4 <strtoll+0xb4>
9d0068e0:	00002021 	move	a0,zero
9d0068e4:	82300001 	lb	s0,1(s1)
9d0068e8:	2402ffdf 	li	v0,-33
9d0068ec:	02021824 	and	v1,s0,v0
9d0068f0:	24020058 	li	v0,88
9d0068f4:	5062000a 	beql	v1,v0,9d006920 <strtoll+0x310>
9d0068f8:	82300002 	lb	s0,2(s1)
9d0068fc:	26310001 	addiu	s1,s1,1
9d006900:	240fffff 	li	t7,-1
9d006904:	3c0b0fff 	lui	t3,0xfff
9d006908:	356bffff 	ori	t3,t3,0xffff
9d00690c:	240c0008 	li	t4,8
9d006910:	0000a821 	move	s5,zero
9d006914:	24040001 	li	a0,1
9d006918:	0b4019b1 	j	9d0066c4 <strtoll+0xb4>
9d00691c:	24120008 	li	s2,8
9d006920:	240fffff 	li	t7,-1
9d006924:	26310002 	addiu	s1,s1,2
9d006928:	3c0b07ff 	lui	t3,0x7ff
9d00692c:	356bffff 	ori	t3,t3,0xffff
9d006930:	240c0010 	li	t4,16
9d006934:	0000a821 	move	s5,zero
9d006938:	24040001 	li	a0,1
9d00693c:	0b4019b1 	j	9d0066c4 <strtoll+0xb4>
9d006940:	24120010 	li	s2,16
9d006944:	00008021 	move	s0,zero
9d006948:	00808821 	move	s1,a0
9d00694c:	0b4019a5 	j	9d006694 <strtoll+0x84>
9d006950:	0000b021 	move	s6,zero
9d006954:	82300001 	lb	s0,1(s1)
9d006958:	2406ffdf 	li	a2,-33
9d00695c:	02061824 	and	v1,s0,a2
9d006960:	24020058 	li	v0,88
9d006964:	50620009 	beql	v1,v0,9d00698c <strtoll+0x37c>
9d006968:	82300002 	lb	s0,2(s1)
9d00696c:	26310001 	addiu	s1,s1,1
9d006970:	240fffff 	li	t7,-1
9d006974:	3c0b07ff 	lui	t3,0x7ff
9d006978:	356bffff 	ori	t3,t3,0xffff
9d00697c:	240c0010 	li	t4,16
9d006980:	0000a821 	move	s5,zero
9d006984:	0b4019b1 	j	9d0066c4 <strtoll+0xb4>
9d006988:	24040001 	li	a0,1
9d00698c:	240fffff 	li	t7,-1
9d006990:	0b401a5d 	j	9d006974 <strtoll+0x364>
9d006994:	26310002 	addiu	s1,s1,2

Disassembly of section .text.__strtof:

9d006998 <__strtof>:
9d006998:	27bdffc8 	addiu	sp,sp,-56

9d00699c <.LCFI0>:
9d00699c:	afbf0034 	sw	ra,52(sp)
9d0069a0:	afb70030 	sw	s7,48(sp)
9d0069a4:	afb6002c 	sw	s6,44(sp)
9d0069a8:	afb50028 	sw	s5,40(sp)
9d0069ac:	afb40024 	sw	s4,36(sp)
9d0069b0:	afb30020 	sw	s3,32(sp)
9d0069b4:	afb2001c 	sw	s2,28(sp)
9d0069b8:	afb10018 	sw	s1,24(sp)
9d0069bc:	afb00014 	sw	s0,20(sp)
9d0069c0:	0080a821 	move	s5,a0
9d0069c4:	80820000 	lb	v0,0(a0)
9d0069c8:	3c139d01 	lui	s3,0x9d01
9d0069cc:	26738c05 	addiu	s3,s3,-29691
9d0069d0:	02621821 	addu	v1,s3,v0
9d0069d4:	80630000 	lb	v1,0(v1)
9d0069d8:	00a0b021 	move	s6,a1
9d0069dc:	30630088 	andi	v1,v1,0x88
9d0069e0:	10600008 	beqz	v1,9d006a04 <.LCFI0+0x68>
9d0069e4:	00808021 	move	s0,a0
9d0069e8:	26100001 	addiu	s0,s0,1
9d0069ec:	82020000 	lb	v0,0(s0)
9d0069f0:	02621821 	addu	v1,s3,v0
9d0069f4:	80630000 	lb	v1,0(v1)
9d0069f8:	30630088 	andi	v1,v1,0x88
9d0069fc:	5460fffb 	bnezl	v1,9d0069ec <.LCFI0+0x50>
9d006a00:	26100001 	addiu	s0,s0,1
9d006a04:	2403002d 	li	v1,45
9d006a08:	10430081 	beq	v0,v1,9d006c10 <.LCFI0+0x274>
9d006a0c:	3842002b 	xori	v0,v0,0x2b
9d006a10:	2c420001 	sltiu	v0,v0,1
9d006a14:	0000b821 	move	s7,zero
9d006a18:	02028021 	addu	s0,s0,v0
9d006a1c:	82030000 	lb	v1,0(s0)
9d006a20:	02631021 	addu	v0,s3,v1
9d006a24:	90420000 	lbu	v0,0(v0)
9d006a28:	30420004 	andi	v0,v0,0x4
9d006a2c:	104000a5 	beqz	v0,9d006cc4 <.LCFI0+0x328>
9d006a30:	00008821 	move	s1,zero
9d006a34:	0000a021 	move	s4,zero
9d006a38:	2472ffd0 	addiu	s2,v1,-48
9d006a3c:	02202021 	move	a0,s1
9d006a40:	0f4020e4 	jal	9d008390 <.LFE9>
9d006a44:	3c054120 	lui	a1,0x4120
9d006a48:	00408821 	move	s1,v0
9d006a4c:	0f4027d7 	jal	9d009f5c <__floatsisf>
9d006a50:	02402021 	move	a0,s2
9d006a54:	02202021 	move	a0,s1
9d006a58:	00402821 	move	a1,v0
9d006a5c:	0f401f4b 	jal	9d007d2c <__addsf3>
9d006a60:	26100001 	addiu	s0,s0,1
9d006a64:	00408821 	move	s1,v0
9d006a68:	82030000 	lb	v1,0(s0)
9d006a6c:	02631021 	addu	v0,s3,v1
9d006a70:	90420000 	lbu	v0,0(v0)
9d006a74:	30420004 	andi	v0,v0,0x4
9d006a78:	1440ffef 	bnez	v0,9d006a38 <.LCFI0+0x9c>
9d006a7c:	0292a025 	or	s4,s4,s2
9d006a80:	24040001 	li	a0,1
9d006a84:	2402002e 	li	v0,46
9d006a88:	5062003e 	beql	v1,v0,9d006b84 <.LCFI0+0x1e8>
9d006a8c:	82020001 	lb	v0,1(s0)
9d006a90:	54800062 	bnezl	a0,9d006c1c <.LCFI0+0x280>
9d006a94:	82020000 	lb	v0,0(s0)
9d006a98:	12c00024 	beqz	s6,9d006b2c <.LCFI0+0x190>
9d006a9c:	00111840 	sll	v1,s1,0x1
9d006aa0:	02a08021 	move	s0,s5
9d006aa4:	00009021 	move	s2,zero
9d006aa8:	aed00000 	sw	s0,0(s6)
9d006aac:	1240001f 	beqz	s2,9d006b2c <.LCFI0+0x190>
9d006ab0:	00111840 	sll	v1,s1,0x1
9d006ab4:	001217c3 	sra	v0,s2,0x1f
9d006ab8:	0052a826 	xor	s5,v0,s2
9d006abc:	02a2a823 	subu	s5,s5,v0
9d006ac0:	3c139d01 	lui	s3,0x9d01
9d006ac4:	2673a5b8 	addiu	s3,s3,-23112
9d006ac8:	24100006 	li	s0,6
9d006acc:	0b401ab7 	j	9d006adc <.LCFI0+0x140>
9d006ad0:	3c023f80 	lui	v0,0x3f80
9d006ad4:	1200000b 	beqz	s0,9d006b04 <.LCFI0+0x168>
9d006ad8:	2673fffc 	addiu	s3,s3,-4
9d006adc:	2610ffff 	addiu	s0,s0,-1
9d006ae0:	02151807 	srav	v1,s5,s0
9d006ae4:	30630001 	andi	v1,v1,0x1
9d006ae8:	1060fffa 	beqz	v1,9d006ad4 <.LCFI0+0x138>
9d006aec:	00000000 	nop
9d006af0:	8e650000 	lw	a1,0(s3)
9d006af4:	0f4020e4 	jal	9d008390 <.LFE9>
9d006af8:	00402021 	move	a0,v0
9d006afc:	1600fff7 	bnez	s0,9d006adc <.LCFI0+0x140>
9d006b00:	2673fffc 	addiu	s3,s3,-4
9d006b04:	02202021 	move	a0,s1
9d006b08:	0640006a 	bltz	s2,9d006cb4 <.LCFI0+0x318>
9d006b0c:	00402821 	move	a1,v0
9d006b10:	0f4020e4 	jal	9d008390 <.LFE9>
9d006b14:	00000000 	nop
9d006b18:	00402021 	move	a0,v0
9d006b1c:	0f402383 	jal	9d008e0c <__ldexpf>
9d006b20:	02402821 	move	a1,s2
9d006b24:	00408821 	move	s1,v0
9d006b28:	00111840 	sll	v1,s1,0x1
9d006b2c:	3c02ff00 	lui	v0,0xff00
9d006b30:	5062006c 	beql	v1,v0,9d006ce4 <.LCFI0+0x348>
9d006b34:	24030022 	li	v1,34
9d006b38:	12200068 	beqz	s1,9d006cdc <.LCFI0+0x340>
9d006b3c:	00000000 	nop
9d006b40:	12e00005 	beqz	s7,9d006b58 <.LCFI0+0x1bc>
9d006b44:	02201021 	move	v0,s1
9d006b48:	0f402988 	jal	9d00a620 <__negsf2>
9d006b4c:	02202021 	move	a0,s1
9d006b50:	00408821 	move	s1,v0
9d006b54:	02201021 	move	v0,s1
9d006b58:	8fbf0034 	lw	ra,52(sp)
9d006b5c:	8fb70030 	lw	s7,48(sp)
9d006b60:	8fb6002c 	lw	s6,44(sp)
9d006b64:	8fb50028 	lw	s5,40(sp)
9d006b68:	8fb40024 	lw	s4,36(sp)
9d006b6c:	8fb30020 	lw	s3,32(sp)
9d006b70:	8fb2001c 	lw	s2,28(sp)
9d006b74:	8fb10018 	lw	s1,24(sp)
9d006b78:	8fb00014 	lw	s0,20(sp)
9d006b7c:	03e00008 	jr	ra
9d006b80:	27bd0038 	addiu	sp,sp,56
9d006b84:	02621821 	addu	v1,s3,v0
9d006b88:	90630000 	lbu	v1,0(v1)
9d006b8c:	30630004 	andi	v1,v1,0x4
9d006b90:	1060ffbf 	beqz	v1,9d006a90 <.LCFI0+0xf4>
9d006b94:	26100001 	addiu	s0,s0,1
9d006b98:	00009021 	move	s2,zero
9d006b9c:	2455ffd0 	addiu	s5,v0,-48
9d006ba0:	02202021 	move	a0,s1
9d006ba4:	0f4020e4 	jal	9d008390 <.LFE9>
9d006ba8:	3c054120 	lui	a1,0x4120
9d006bac:	00408821 	move	s1,v0
9d006bb0:	0f4027d7 	jal	9d009f5c <__floatsisf>
9d006bb4:	02a02021 	move	a0,s5
9d006bb8:	02202021 	move	a0,s1
9d006bbc:	00402821 	move	a1,v0
9d006bc0:	0f401f4b 	jal	9d007d2c <__addsf3>
9d006bc4:	26100001 	addiu	s0,s0,1
9d006bc8:	00408821 	move	s1,v0
9d006bcc:	82020000 	lb	v0,0(s0)
9d006bd0:	0295a025 	or	s4,s4,s5
9d006bd4:	02621821 	addu	v1,s3,v0
9d006bd8:	90630000 	lbu	v1,0(v1)
9d006bdc:	30630004 	andi	v1,v1,0x4
9d006be0:	1460ffee 	bnez	v1,9d006b9c <.LCFI0+0x200>
9d006be4:	2652ffff 	addiu	s2,s2,-1
9d006be8:	2404ffdf 	li	a0,-33
9d006bec:	00441824 	and	v1,v0,a0
9d006bf0:	7c031c20 	seb	v1,v1
9d006bf4:	24020045 	li	v0,69
9d006bf8:	5062000f 	beql	v1,v0,9d006c38 <.LCFI0+0x29c>
9d006bfc:	82030001 	lb	v1,1(s0)
9d006c00:	56c0ffaa 	bnezl	s6,9d006aac <.LCFI0+0x110>
9d006c04:	aed00000 	sw	s0,0(s6)
9d006c08:	0b401aab 	j	9d006aac <.LCFI0+0x110>
9d006c0c:	00000000 	nop
9d006c10:	26100001 	addiu	s0,s0,1
9d006c14:	0b401a87 	j	9d006a1c <.LCFI0+0x80>
9d006c18:	24170001 	li	s7,1
9d006c1c:	2404ffdf 	li	a0,-33
9d006c20:	00441824 	and	v1,v0,a0
9d006c24:	7c031c20 	seb	v1,v1
9d006c28:	24020045 	li	v0,69
9d006c2c:	1462fff4 	bne	v1,v0,9d006c00 <.LCFI0+0x264>
9d006c30:	00009021 	move	s2,zero
9d006c34:	82030001 	lb	v1,1(s0)
9d006c38:	2402002d 	li	v0,45
9d006c3c:	10620019 	beq	v1,v0,9d006ca4 <.LCFI0+0x308>
9d006c40:	2402002b 	li	v0,43
9d006c44:	50620022 	beql	v1,v0,9d006cd0 <.LCFI0+0x334>
9d006c48:	82030002 	lb	v1,2(s0)
9d006c4c:	26100001 	addiu	s0,s0,1
9d006c50:	00003821 	move	a3,zero
9d006c54:	02631021 	addu	v0,s3,v1
9d006c58:	90420000 	lbu	v0,0(v0)
9d006c5c:	30420004 	andi	v0,v0,0x4
9d006c60:	1040000c 	beqz	v0,9d006c94 <.LCFI0+0x2f8>
9d006c64:	00001021 	move	v0,zero
9d006c68:	26100001 	addiu	s0,s0,1
9d006c6c:	2465ffd0 	addiu	a1,v1,-48
9d006c70:	82030000 	lb	v1,0(s0)
9d006c74:	00023040 	sll	a2,v0,0x1
9d006c78:	000210c0 	sll	v0,v0,0x3
9d006c7c:	02632021 	addu	a0,s3,v1
9d006c80:	90840000 	lbu	a0,0(a0)
9d006c84:	00c21021 	addu	v0,a2,v0
9d006c88:	30840004 	andi	a0,a0,0x4
9d006c8c:	1480fff6 	bnez	a0,9d006c68 <.LCFI0+0x2cc>
9d006c90:	00451021 	addu	v0,v0,a1
9d006c94:	00021823 	negu	v1,v0
9d006c98:	0067100b 	movn	v0,v1,a3
9d006c9c:	0b401b00 	j	9d006c00 <.LCFI0+0x264>
9d006ca0:	02429021 	addu	s2,s2,v0
9d006ca4:	82030002 	lb	v1,2(s0)
9d006ca8:	24070001 	li	a3,1
9d006cac:	0b401b15 	j	9d006c54 <.LCFI0+0x2b8>
9d006cb0:	26100002 	addiu	s0,s0,2
9d006cb4:	0f401fe7 	jal	9d007f9c <__divsf3>
9d006cb8:	00000000 	nop
9d006cbc:	0b401ac7 	j	9d006b1c <.LCFI0+0x180>
9d006cc0:	00402021 	move	a0,v0
9d006cc4:	00002021 	move	a0,zero
9d006cc8:	0b401aa1 	j	9d006a84 <.LCFI0+0xe8>
9d006ccc:	0000a021 	move	s4,zero
9d006cd0:	00003821 	move	a3,zero
9d006cd4:	0b401b15 	j	9d006c54 <.LCFI0+0x2b8>
9d006cd8:	26100002 	addiu	s0,s0,2
9d006cdc:	1280ff98 	beqz	s4,9d006b40 <.LCFI0+0x1a4>
9d006ce0:	24030022 	li	v1,34
9d006ce4:	3c02a000 	lui	v0,0xa000
9d006ce8:	0b401ad0 	j	9d006b40 <.LCFI0+0x1a4>
9d006cec:	ac430020 	sw	v1,32(v0)

Disassembly of section .text.dp32mul:

9d006cf0 <__muldf3>:
9d006cf0:	00055040 000a5542 00054ac0 00047d42     @P..BU...J..B}..
9d006d00:	012f4825 000442c0 3c0e8000 012e4825     %H/..B.....<%H..
9d006d10:	00076840 000d6d42 000762c0 00067d42     @h..Bm...b..B}..
9d006d20:	018f6025 00065ac0 018e6025 00a72826     %`...Z..%`..&(..
9d006d30:	00ae2824 254fffff 2de107fe 10200047     $(....O%...-G. .
9d006d40:	00000000                                ....

9d006d44 <Clab1>:
9d006d44:	25afffff 	addiu	t7,t5,-1
9d006d48:	2de107fe 	sltiu	at,t7,2046
9d006d4c:	1020006f 	beqz	at,9d006f0c <CspecB>
9d006d50:	00000000 	nop

9d006d54 <Clab2>:
9d006d54:	25affc02 	addiu	t7,t5,-1022
9d006d58:	014f5021 	addu	t2,t2,t7
9d006d5c:	012c0019 	multu	t1,t4
9d006d60:	00003812 	mflo	a3
9d006d64:	00007010 	mfhi	t6
9d006d68:	010b0019 	multu	t0,t3
9d006d6c:	00002012 	mflo	a0
9d006d70:	00003010 	mfhi	a2
9d006d74:	012b0019 	multu	t1,t3
9d006d78:	00005812 	mflo	t3
9d006d7c:	00006810 	mfhi	t5
9d006d80:	00cb3021 	addu	a2,a2,t3
9d006d84:	00cb782b 	sltu	t7,a2,t3
9d006d88:	00ed3821 	addu	a3,a3,t5
9d006d8c:	00ef3821 	addu	a3,a3,t7
9d006d90:	10ed0002 	beq	a3,t5,9d006d9c <L20>
9d006d94:	00000000 	nop
9d006d98:	00ed782b 	sltu	t7,a3,t5

9d006d9c <L20>:
9d006d9c:	01cf7021 	addu	t6,t6,t7
9d006da0:	010c0019 	multu	t0,t4
9d006da4:	00004012 	mflo	t0
9d006da8:	00004810 	mfhi	t1
9d006dac:	00c83021 	addu	a2,a2,t0
9d006db0:	00c8782b 	sltu	t7,a2,t0
9d006db4:	00e93821 	addu	a3,a3,t1
9d006db8:	00ef3821 	addu	a3,a3,t7
9d006dbc:	10e90002 	beq	a3,t1,9d006dc8 <L21>
9d006dc0:	00000000 	nop
9d006dc4:	00e9782b 	sltu	t7,a3,t1

9d006dc8 <L21>:
9d006dc8:	01cf7021 	addu	t6,t6,t7
9d006dcc:	00867825 	or	t7,a0,a2
9d006dd0:	11e00002 	beqz	t7,9d006ddc <i13>
9d006dd4:	00000000 	nop
9d006dd8:	34e70001 	ori	a3,a3,0x1

9d006ddc <i13>:
9d006ddc:	000e4825 	or	t1,zero,t6
9d006de0:	05200006 	bltz	t1,9d006dfc <i14>
9d006de4:	00074025 	or	t0,zero,a3
9d006de8:	0100782a 	slt	t7,t0,zero
9d006dec:	01084021 	addu	t0,t0,t0
9d006df0:	01294821 	addu	t1,t1,t1
9d006df4:	012f4821 	addu	t1,t1,t7
9d006df8:	254affff 	addiu	t2,t2,-1

9d006dfc <i14>:
9d006dfc:	254fffff 	addiu	t7,t2,-1
9d006e00:	2de107fe 	sltiu	at,t7,2046
9d006e04:	10200068 	beqz	at,9d006fa8 <Coveund>
9d006e08:	00000000 	nop
9d006e0c:	25080400 	addiu	t0,t0,1024
9d006e10:	2d0f0400 	sltiu	t7,t0,1024
9d006e14:	012f4821 	addu	t1,t1,t7
9d006e18:	012f782b 	sltu	t7,t1,t7
9d006e1c:	014f5021 	addu	t2,t2,t7

9d006e20 <Clab8>:
9d006e20:	00087ac2 	srl	t7,t0,0xb
9d006e24:	31ef0001 	andi	t7,t7,0x1
9d006e28:	010f4023 	subu	t0,t0,t7
9d006e2c:	000822c2 	srl	a0,t0,0xb
9d006e30:	00097d40 	sll	t7,t1,0x15
9d006e34:	008f2025 	or	a0,a0,t7
9d006e38:	00097840 	sll	t7,t1,0x1
9d006e3c:	000f7b02 	srl	t7,t7,0xc
9d006e40:	00af2825 	or	a1,a1,t7
9d006e44:	000a7d00 	sll	t7,t2,0x14
9d006e48:	00af2825 	or	a1,a1,t7

9d006e4c <Cret>:
9d006e4c:	00041025 	or	v0,zero,a0
9d006e50:	00051825 	or	v1,zero,a1

9d006e54 <C999>:
9d006e54:	03e00008 	jr	ra
9d006e58:	00000000 	nop

9d006e5c <CspecA>:
9d006e5c:	0100782a 	slt	t7,t0,zero
9d006e60:	01084021 	addu	t0,t0,t0
9d006e64:	01294821 	addu	t1,t1,t1
9d006e68:	1540001c 	bnez	t2,9d006edc <i15>
9d006e6c:	012f4821 	addu	t1,t1,t7
9d006e70:	01287825 	or	t7,t1,t0
9d006e74:	11e00014 	beqz	t7,9d006ec8 <i16>
9d006e78:	00000000 	nop
9d006e7c:	15200008 	bnez	t1,9d006ea0 <L22>
9d006e80:	00000000 	nop
9d006e84:	15000003 	bnez	t0,9d006e94 <L23>
9d006e88:	00000000 	nop
9d006e8c:	1000ffad 	b	9d006d44 <Clab1>
9d006e90:	240a0000 	li	t2,0

9d006e94 <L23>:
9d006e94:	01004825 	move	t1,t0
9d006e98:	24080000 	li	t0,0
9d006e9c:	254affe0 	addiu	t2,t2,-32

9d006ea0 <L22>:
9d006ea0:	712e7020 	clz	t6,t1
9d006ea4:	11c0ffa7 	beqz	t6,9d006d44 <Clab1>
9d006ea8:	00000000 	nop
9d006eac:	014e5023 	subu	t2,t2,t6
9d006eb0:	000e3822 	neg	a3,t6
9d006eb4:	00e83806 	srlv	a3,t0,a3
9d006eb8:	01c84004 	sllv	t0,t0,t6
9d006ebc:	01c94804 	sllv	t1,t1,t6
9d006ec0:	1000ffa0 	b	9d006d44 <Clab1>
9d006ec4:	01274825 	or	t1,t1,a3

9d006ec8 <i16>:
9d006ec8:	240107ff 	li	at,2047
9d006ecc:	11a10033 	beq	t5,at,9d006f9c <Cnan>
9d006ed0:	00000000 	nop
9d006ed4:	1000ffdd 	b	9d006e4c <Cret>
9d006ed8:	00000000 	nop

9d006edc <i15>:
9d006edc:	01287825 	or	t7,t1,t0
9d006ee0:	15e0002e 	bnez	t7,9d006f9c <Cnan>
9d006ee4:	00000000 	nop
9d006ee8:	15a00005 	bnez	t5,9d006f00 <i17>
9d006eec:	00000000 	nop
9d006ef0:	000c7840 	sll	t7,t4,0x1
9d006ef4:	01eb7825 	or	t7,t7,t3
9d006ef8:	11e00028 	beqz	t7,9d006f9c <Cnan>
9d006efc:	00000000 	nop

9d006f00 <i17>:
9d006f00:	240107ff 	li	at,2047
9d006f04:	15a10021 	bne	t5,at,9d006f8c <Cinf>
9d006f08:	00000000 	nop

9d006f0c <CspecB>:
9d006f0c:	0160782a 	slt	t7,t3,zero
9d006f10:	016b5821 	addu	t3,t3,t3
9d006f14:	018c6021 	addu	t4,t4,t4
9d006f18:	15a00019 	bnez	t5,9d006f80 <i18>
9d006f1c:	018f6021 	addu	t4,t4,t7
9d006f20:	018b7825 	or	t7,t4,t3
9d006f24:	11e00014 	beqz	t7,9d006f78 <i19>
9d006f28:	00000000 	nop
9d006f2c:	15800008 	bnez	t4,9d006f50 <L25>
9d006f30:	00000000 	nop
9d006f34:	15600003 	bnez	t3,9d006f44 <L26>
9d006f38:	00000000 	nop
9d006f3c:	1000ff85 	b	9d006d54 <Clab2>
9d006f40:	240d0000 	li	t5,0

9d006f44 <L26>:
9d006f44:	01606025 	move	t4,t3
9d006f48:	240b0000 	li	t3,0
9d006f4c:	25adffe0 	addiu	t5,t5,-32

9d006f50 <L25>:
9d006f50:	71863020 	clz	a2,t4
9d006f54:	10c0ff7f 	beqz	a2,9d006d54 <Clab2>
9d006f58:	00000000 	nop
9d006f5c:	01a66823 	subu	t5,t5,a2
9d006f60:	00067022 	neg	t6,a2
9d006f64:	01cb7006 	srlv	t6,t3,t6
9d006f68:	00cb5804 	sllv	t3,t3,a2
9d006f6c:	00cc6004 	sllv	t4,t4,a2
9d006f70:	1000ff78 	b	9d006d54 <Clab2>
9d006f74:	018e6025 	or	t4,t4,t6

9d006f78 <i19>:
9d006f78:	1000ffb4 	b	9d006e4c <Cret>
9d006f7c:	24040000 	li	a0,0

9d006f80 <i18>:
9d006f80:	018b7825 	or	t7,t4,t3
9d006f84:	15e00005 	bnez	t7,9d006f9c <Cnan>
9d006f88:	00000000 	nop

9d006f8c <Cinf>:
9d006f8c:	3c017ff0 	lui	at,0x7ff0
9d006f90:	00a12825 	or	a1,a1,at
9d006f94:	1000ffad 	b	9d006e4c <Cret>
9d006f98:	24040000 	li	a0,0

9d006f9c <Cnan>:
9d006f9c:	3c05fff8 	lui	a1,0xfff8
9d006fa0:	1000ffaa 	b	9d006e4c <Cret>
9d006fa4:	24040000 	li	a0,0

9d006fa8 <Coveund>:
9d006fa8:	1d40fff8 	bgtz	t2,9d006f8c <Cinf>
9d006fac:	00000000 	nop
9d006fb0:	240e0001 	li	t6,1
9d006fb4:	01ca7023 	subu	t6,t6,t2

9d006fb8 <L28>:
9d006fb8:	2dc10020 	sltiu	at,t6,32
9d006fbc:	14200007 	bnez	at,9d006fdc <L29>
9d006fc0:	00000000 	nop
9d006fc4:	21ceffe0 	addi	t6,t6,-32
9d006fc8:	0008302b 	sltu	a2,zero,t0
9d006fcc:	1009000d 	beq	zero,t1,9d007004 <L30>
9d006fd0:	01264025 	or	t0,t1,a2
9d006fd4:	1000fff8 	b	9d006fb8 <L28>
9d006fd8:	34090000 	li	t1,0x0

9d006fdc <L29>:
9d006fdc:	11c00009 	beqz	t6,9d007004 <L30>
9d006fe0:	00000000 	nop
9d006fe4:	000e3822 	neg	a3,t6
9d006fe8:	00e83004 	sllv	a2,t0,a3
9d006fec:	00e93804 	sllv	a3,t1,a3
9d006ff0:	01c84006 	srlv	t0,t0,t6
9d006ff4:	01c94806 	srlv	t1,t1,t6
9d006ff8:	10c00002 	beqz	a2,9d007004 <L30>
9d006ffc:	00e84025 	or	t0,a3,t0
9d007000:	35080002 	ori	t0,t0,0x2

9d007004 <L30>:
9d007004:	25080400 	addiu	t0,t0,1024
9d007008:	2d0f0400 	sltiu	t7,t0,1024
9d00700c:	012f4821 	addu	t1,t1,t7
9d007010:	1000ff83 	b	9d006e20 <Clab8>
9d007014:	000957c2 	srl	t2,t1,0x1f
9d007018:	00000000 	nop

Disassembly of section .text.strtoull:

9d00701c <strtoull>:
9d00701c:	27bdffd0 	addiu	sp,sp,-48
9d007020:	afbf002c 	sw	ra,44(sp)
9d007024:	afb50028 	sw	s5,40(sp)
9d007028:	afb40024 	sw	s4,36(sp)
9d00702c:	afb30020 	sw	s3,32(sp)
9d007030:	afb2001c 	sw	s2,28(sp)
9d007034:	afb10018 	sw	s1,24(sp)
9d007038:	afb00014 	sw	s0,20(sp)
9d00703c:	00808821 	move	s1,a0
9d007040:	80820000 	lb	v0,0(a0)
9d007044:	00a09821 	move	s3,a1
9d007048:	1040001f 	beqz	v0,9d0070c8 <strtoull+0xac>
9d00704c:	00c09021 	move	s2,a2
9d007050:	3c049d01 	lui	a0,0x9d01
9d007054:	24848c05 	addiu	a0,a0,-29691
9d007058:	0b401c1b 	j	9d00706c <strtoull+0x50>
9d00705c:	00821821 	addu	v1,a0,v0
9d007060:	82220000 	lb	v0,0(s1)
9d007064:	10400018 	beqz	v0,9d0070c8 <strtoull+0xac>
9d007068:	00821821 	addu	v1,a0,v0
9d00706c:	80630000 	lb	v1,0(v1)
9d007070:	30630088 	andi	v1,v1,0x88
9d007074:	5460fffa 	bnezl	v1,9d007060 <strtoull+0x44>
9d007078:	26310001 	addiu	s1,s1,1
9d00707c:	2403002b 	li	v1,43
9d007080:	14430079 	bne	v0,v1,9d007268 <strtoull+0x24c>
9d007084:	2403002d 	li	v1,45
9d007088:	3842002d 	xori	v0,v0,0x2d
9d00708c:	82300001 	lb	s0,1(s1)
9d007090:	2c550001 	sltiu	s5,v0,1
9d007094:	26310001 	addiu	s1,s1,1
9d007098:	1640000f 	bnez	s2,9d0070d8 <strtoull+0xbc>
9d00709c:	24020010 	li	v0,16
9d0070a0:	24020030 	li	v0,48
9d0070a4:	12020075 	beq	s0,v0,9d00727c <strtoull+0x260>
9d0070a8:	3c0d9999 	lui	t5,0x9999
9d0070ac:	35ad9999 	ori	t5,t5,0x9999
9d0070b0:	3c0a1999 	lui	t2,0x1999
9d0070b4:	354a9999 	ori	t2,t2,0x9999
9d0070b8:	240b000a 	li	t3,10
9d0070bc:	0000a021 	move	s4,zero
9d0070c0:	0b401c40 	j	9d007100 <strtoull+0xe4>
9d0070c4:	2412000a 	li	s2,10
9d0070c8:	00008021 	move	s0,zero
9d0070cc:	1240fff4 	beqz	s2,9d0070a0 <strtoull+0x84>
9d0070d0:	0000a821 	move	s5,zero
9d0070d4:	24020010 	li	v0,16
9d0070d8:	12420076 	beq	s2,v0,9d0072b4 <strtoull+0x298>
9d0070dc:	0012a7c3 	sra	s4,s2,0x1f
9d0070e0:	2404ffff 	li	a0,-1
9d0070e4:	2405ffff 	li	a1,-1
9d0070e8:	02403021 	move	a2,s2
9d0070ec:	0f401563 	jal	9d00558c <.LFE1>
9d0070f0:	02803821 	move	a3,s4
9d0070f4:	02405821 	move	t3,s2
9d0070f8:	00406821 	move	t5,v0
9d0070fc:	00605021 	move	t2,v1
9d007100:	2624ffff 	addiu	a0,s1,-1
9d007104:	00002821 	move	a1,zero
9d007108:	00001021 	move	v0,zero
9d00710c:	00001821 	move	v1,zero
9d007110:	3c079d01 	lui	a3,0x9d01
9d007114:	24e78c05 	addiu	a3,a3,-29691
9d007118:	240e0061 	li	t6,97
9d00711c:	240c0041 	li	t4,65
9d007120:	1200002b 	beqz	s0,9d0071d0 <strtoull+0x1b4>
9d007124:	24840001 	addiu	a0,a0,1
9d007128:	02074021 	addu	t0,s0,a3
9d00712c:	91080000 	lbu	t0,0(t0)
9d007130:	31090004 	andi	t1,t0,0x4
9d007134:	1120003d 	beqz	t1,9d00722c <strtoull+0x210>
9d007138:	31060003 	andi	a2,t0,0x3
9d00713c:	2610ffd0 	addiu	s0,s0,-48
9d007140:	06000023 	bltz	s0,9d0071d0 <strtoull+0x1b4>
9d007144:	0212402a 	slt	t0,s0,s2
9d007148:	11000021 	beqz	t0,9d0071d0 <strtoull+0x1b4>
9d00714c:	0143402b 	sltu	t0,t2,v1
9d007150:	55000034 	bnezl	t0,9d007224 <strtoull+0x208>
9d007154:	24050001 	li	a1,1
9d007158:	146a0003 	bne	v1,t2,9d007168 <strtoull+0x14c>
9d00715c:	01a2302b 	sltu	a2,t5,v0
9d007160:	54c00030 	bnezl	a2,9d007224 <strtoull+0x208>
9d007164:	24050001 	li	a1,1
9d007168:	14a00016 	bnez	a1,9d0071c4 <strtoull+0x1a8>
9d00716c:	02820018 	mult	s4,v0
9d007170:	001047c3 	sra	t0,s0,0x1f
9d007174:	71630000 	madd	t3,v1
9d007178:	00003012 	mflo	a2
9d00717c:	004b0019 	multu	v0,t3
9d007180:	00001012 	mflo	v0
9d007184:	00001810 	mfhi	v1
9d007188:	00c31821 	addu	v1,a2,v1
9d00718c:	00033027 	nor	a2,zero,v1
9d007190:	00c8482b 	sltu	t1,a2,t0
9d007194:	15200022 	bnez	t1,9d007220 <strtoull+0x204>
9d007198:	00027827 	nor	t7,zero,v0
9d00719c:	55060005 	bnel	t0,a2,9d0071b4 <strtoull+0x198>
9d0071a0:	02028021 	addu	s0,s0,v0
9d0071a4:	01f0782b 	sltu	t7,t7,s0
9d0071a8:	55e0001e 	bnezl	t7,9d007224 <strtoull+0x208>
9d0071ac:	24050001 	li	a1,1
9d0071b0:	02028021 	addu	s0,s0,v0
9d0071b4:	0202302b 	sltu	a2,s0,v0
9d0071b8:	00684021 	addu	t0,v1,t0
9d0071bc:	02001021 	move	v0,s0
9d0071c0:	00c81821 	addu	v1,a2,t0
9d0071c4:	80900001 	lb	s0,1(a0)
9d0071c8:	1600ffd7 	bnez	s0,9d007128 <strtoull+0x10c>
9d0071cc:	24840001 	addiu	a0,a0,1
9d0071d0:	12a0001d 	beqz	s5,9d007248 <strtoull+0x22c>
9d0071d4:	00000000 	nop
9d0071d8:	54a0001e 	bnezl	a1,9d007254 <strtoull+0x238>
9d0071dc:	24030022 	li	v1,34
9d0071e0:	00023823 	negu	a3,v0
9d0071e4:	0007282b 	sltu	a1,zero,a3
9d0071e8:	00033023 	negu	a2,v1
9d0071ec:	00e01021 	move	v0,a3
9d0071f0:	00c51823 	subu	v1,a2,a1
9d0071f4:	56600001 	bnezl	s3,9d0071fc <strtoull+0x1e0>
9d0071f8:	ae640000 	sw	a0,0(s3)
9d0071fc:	8fbf002c 	lw	ra,44(sp)
9d007200:	8fb50028 	lw	s5,40(sp)
9d007204:	8fb40024 	lw	s4,36(sp)
9d007208:	8fb30020 	lw	s3,32(sp)
9d00720c:	8fb2001c 	lw	s2,28(sp)
9d007210:	8fb10018 	lw	s1,24(sp)
9d007214:	8fb00014 	lw	s0,20(sp)
9d007218:	03e00008 	jr	ra
9d00721c:	27bd0030 	addiu	sp,sp,48
9d007220:	24050001 	li	a1,1
9d007224:	0b401c72 	j	9d0071c8 <strtoull+0x1ac>
9d007228:	80900001 	lb	s0,1(a0)
9d00722c:	10c0ffe8 	beqz	a2,9d0071d0 <strtoull+0x1b4>
9d007230:	31080001 	andi	t0,t0,0x1
9d007234:	01803021 	move	a2,t4
9d007238:	01c8300a 	movz	a2,t6,t0
9d00723c:	02068023 	subu	s0,s0,a2
9d007240:	0b401c50 	j	9d007140 <strtoull+0x124>
9d007244:	2610000a 	addiu	s0,s0,10
9d007248:	10a0ffea 	beqz	a1,9d0071f4 <strtoull+0x1d8>
9d00724c:	00000000 	nop
9d007250:	24030022 	li	v1,34
9d007254:	3c02a000 	lui	v0,0xa000
9d007258:	ac430020 	sw	v1,32(v0)
9d00725c:	2402ffff 	li	v0,-1
9d007260:	0b401c7d 	j	9d0071f4 <strtoull+0x1d8>
9d007264:	2403ffff 	li	v1,-1
9d007268:	1043ff88 	beq	v0,v1,9d00708c <strtoull+0x70>
9d00726c:	3842002d 	xori	v0,v0,0x2d
9d007270:	82300000 	lb	s0,0(s1)
9d007274:	0b401c26 	j	9d007098 <strtoull+0x7c>
9d007278:	0000a821 	move	s5,zero
9d00727c:	82300001 	lb	s0,1(s1)
9d007280:	2402ffdf 	li	v0,-33
9d007284:	02021824 	and	v1,s0,v0
9d007288:	24020058 	li	v0,88
9d00728c:	50620012 	beql	v1,v0,9d0072d8 <strtoull+0x2bc>
9d007290:	82300002 	lb	s0,2(s1)
9d007294:	26310001 	addiu	s1,s1,1
9d007298:	240dffff 	li	t5,-1
9d00729c:	3c0a1fff 	lui	t2,0x1fff
9d0072a0:	354affff 	ori	t2,t2,0xffff
9d0072a4:	240b0008 	li	t3,8
9d0072a8:	0000a021 	move	s4,zero
9d0072ac:	0b401c40 	j	9d007100 <strtoull+0xe4>
9d0072b0:	24120008 	li	s2,8
9d0072b4:	24020030 	li	v0,48
9d0072b8:	5202000f 	beql	s0,v0,9d0072f8 <strtoull+0x2dc>
9d0072bc:	82300001 	lb	s0,1(s1)
9d0072c0:	240dffff 	li	t5,-1
9d0072c4:	3c0a0fff 	lui	t2,0xfff
9d0072c8:	354affff 	ori	t2,t2,0xffff
9d0072cc:	240b0010 	li	t3,16
9d0072d0:	0b401c40 	j	9d007100 <strtoull+0xe4>
9d0072d4:	0000a021 	move	s4,zero
9d0072d8:	240dffff 	li	t5,-1
9d0072dc:	26310002 	addiu	s1,s1,2
9d0072e0:	3c0a0fff 	lui	t2,0xfff
9d0072e4:	354affff 	ori	t2,t2,0xffff
9d0072e8:	240b0010 	li	t3,16
9d0072ec:	0000a021 	move	s4,zero
9d0072f0:	0b401c40 	j	9d007100 <strtoull+0xe4>
9d0072f4:	24120010 	li	s2,16
9d0072f8:	24020078 	li	v0,120
9d0072fc:	52020003 	beql	s0,v0,9d00730c <strtoull+0x2f0>
9d007300:	82300002 	lb	s0,2(s1)
9d007304:	0b401cb0 	j	9d0072c0 <strtoull+0x2a4>
9d007308:	26310001 	addiu	s1,s1,1
9d00730c:	240dffff 	li	t5,-1
9d007310:	26310002 	addiu	s1,s1,2
9d007314:	3c0a0fff 	lui	t2,0xfff
9d007318:	354affff 	ori	t2,t2,0xffff
9d00731c:	240b0010 	li	t3,16
9d007320:	0b401c40 	j	9d007100 <strtoull+0xe4>
9d007324:	0000a021 	move	s4,zero

Disassembly of section .text._strtostr:

9d007328 <_strtostr>:
9d007328:	27bdfec8 	addiu	sp,sp,-312
9d00732c:	afbf0134 	sw	ra,308(sp)
9d007330:	afbe0130 	sw	s8,304(sp)
9d007334:	afb7012c 	sw	s7,300(sp)
9d007338:	afb60128 	sw	s6,296(sp)
9d00733c:	afb50124 	sw	s5,292(sp)
9d007340:	afb40120 	sw	s4,288(sp)
9d007344:	afb3011c 	sw	s3,284(sp)
9d007348:	afb20118 	sw	s2,280(sp)
9d00734c:	afb10114 	sw	s1,276(sp)
9d007350:	afb00110 	sw	s0,272(sp)
9d007354:	00808021 	move	s0,a0
9d007358:	afa5013c 	sw	a1,316(sp)
9d00735c:	00c09821 	move	s3,a2
9d007360:	00e0b021 	move	s6,a3
9d007364:	24020002 	li	v0,2
9d007368:	10820056 	beq	a0,v0,9d0074c4 <_strtostr+0x19c>
9d00736c:	8fb20148 	lw	s2,328(sp)
9d007370:	32730001 	andi	s3,s3,0x1
9d007374:	16600005 	bnez	s3,9d00738c <_strtostr+0x64>
9d007378:	00000000 	nop
9d00737c:	8e42000c 	lw	v0,12(s2)
9d007380:	24430004 	addiu	v1,v0,4
9d007384:	ae43000c 	sw	v1,12(s2)
9d007388:	8c510000 	lw	s1,0(v0)
9d00738c:	12c00081 	beqz	s6,9d007594 <_strtostr+0x26c>
9d007390:	02c0b821 	move	s7,s6
9d007394:	2414ffff 	li	s4,-1
9d007398:	24150001 	li	s5,1
9d00739c:	3c1e9d01 	lui	s8,0x9d01
9d0073a0:	27de8c05 	addiu	s8,s8,-29691
9d0073a4:	0f4027a5 	jal	9d009e94 <gsgetc>
9d0073a8:	02402021 	move	a0,s2
9d0073ac:	50540011 	beql	v0,s4,9d0073f4 <_strtostr+0xcc>
9d0073b0:	02e01821 	move	v1,s7
9d0073b4:	12150038 	beq	s0,s5,9d007498 <_strtostr+0x170>
9d0073b8:	26e3ffff 	addiu	v1,s7,-1
9d0073bc:	24040002 	li	a0,2
9d0073c0:	1204002b 	beq	s0,a0,9d007470 <_strtostr+0x148>
9d0073c4:	27a50010 	addiu	a1,sp,16
9d0073c8:	16600003 	bnez	s3,9d0073d8 <_strtostr+0xb0>
9d0073cc:	00000000 	nop
9d0073d0:	a2220000 	sb	v0,0(s1)
9d0073d4:	26310001 	addiu	s1,s1,1
9d0073d8:	10600006 	beqz	v1,9d0073f4 <_strtostr+0xcc>
9d0073dc:	0060b821 	move	s7,v1
9d0073e0:	0f4027a5 	jal	9d009e94 <gsgetc>
9d0073e4:	02402021 	move	a0,s2
9d0073e8:	1454fff2 	bne	v0,s4,9d0073b4 <_strtostr+0x8c>
9d0073ec:	00000000 	nop
9d0073f0:	02e01821 	move	v1,s7
9d0073f4:	2402ffff 	li	v0,-1
9d0073f8:	8e440014 	lw	a0,20(s2)
9d0073fc:	24840001 	addiu	a0,a0,1
9d007400:	16600008 	bnez	s3,9d007424 <_strtostr+0xfc>
9d007404:	ae440014 	sw	a0,20(s2)
9d007408:	24040001 	li	a0,1
9d00740c:	8fa6013c 	lw	a2,316(sp)
9d007410:	50c40001 	beql	a2,a0,9d007418 <_strtostr+0xf0>
9d007414:	a2200000 	sb	zero,0(s1)
9d007418:	8e440018 	lw	a0,24(s2)
9d00741c:	24840001 	addiu	a0,a0,1
9d007420:	ae440018 	sw	a0,24(s2)
9d007424:	14760005 	bne	v1,s6,9d00743c <_strtostr+0x114>
9d007428:	00002021 	move	a0,zero
9d00742c:	2404ffff 	li	a0,-1
9d007430:	00021027 	nor	v0,zero,v0
9d007434:	24030001 	li	v1,1
9d007438:	0062200b 	movn	a0,v1,v0
9d00743c:	00801021 	move	v0,a0
9d007440:	8fbf0134 	lw	ra,308(sp)
9d007444:	8fbe0130 	lw	s8,304(sp)
9d007448:	8fb7012c 	lw	s7,300(sp)
9d00744c:	8fb60128 	lw	s6,296(sp)
9d007450:	8fb50124 	lw	s5,292(sp)
9d007454:	8fb40120 	lw	s4,288(sp)
9d007458:	8fb3011c 	lw	s3,284(sp)
9d00745c:	8fb20118 	lw	s2,280(sp)
9d007460:	8fb10114 	lw	s1,276(sp)
9d007464:	8fb00110 	lw	s0,272(sp)
9d007468:	03e00008 	jr	ra
9d00746c:	27bd0138 	addiu	sp,sp,312
9d007470:	00a22021 	addu	a0,a1,v0
9d007474:	80840000 	lb	a0,0(a0)
9d007478:	1480ffd3 	bnez	a0,9d0073c8 <_strtostr+0xa0>
9d00747c:	00000000 	nop
9d007480:	8e440010 	lw	a0,16(s2)
9d007484:	ae420004 	sw	v0,4(s2)
9d007488:	02e01821 	move	v1,s7
9d00748c:	2484ffff 	addiu	a0,a0,-1
9d007490:	0b401cfe 	j	9d0073f8 <_strtostr+0xd0>
9d007494:	ae440010 	sw	a0,16(s2)
9d007498:	005e2021 	addu	a0,v0,s8
9d00749c:	80840000 	lb	a0,0(a0)
9d0074a0:	30840088 	andi	a0,a0,0x88
9d0074a4:	1080ffc8 	beqz	a0,9d0073c8 <_strtostr+0xa0>
9d0074a8:	00000000 	nop
9d0074ac:	8e440010 	lw	a0,16(s2)
9d0074b0:	ae420004 	sw	v0,4(s2)
9d0074b4:	02e01821 	move	v1,s7
9d0074b8:	2484ffff 	addiu	a0,a0,-1
9d0074bc:	0b401cfe 	j	9d0073f8 <_strtostr+0xd0>
9d0074c0:	ae440010 	sw	a0,16(s2)
9d0074c4:	8e540008 	lw	s4,8(s2)
9d0074c8:	82830000 	lb	v1,0(s4)
9d0074cc:	2402005e 	li	v0,94
9d0074d0:	50620032 	beql	v1,v0,9d00759c <_strtostr+0x274>
9d0074d4:	26940001 	addiu	s4,s4,1
9d0074d8:	24150001 	li	s5,1
9d0074dc:	00002821 	move	a1,zero
9d0074e0:	27a40010 	addiu	a0,sp,16
9d0074e4:	0f402913 	jal	9d00a44c <memset>
9d0074e8:	24060100 	li	a2,256
9d0074ec:	82830000 	lb	v1,0(s4)
9d0074f0:	2405ffff 	li	a1,-1
9d0074f4:	2409ffff 	li	t1,-1
9d0074f8:	240a002d 	li	t2,45
9d0074fc:	2408005d 	li	t0,93
9d007500:	0b401d4c 	j	9d007530 <_strtostr+0x208>
9d007504:	7c152420 	seb	a0,s5
9d007508:	00602821 	move	a1,v1
9d00750c:	27a30010 	addiu	v1,sp,16
9d007510:	00651021 	addu	v0,v1,a1
9d007514:	a0550000 	sb	s5,0(v0)
9d007518:	02801021 	move	v0,s4
9d00751c:	24540001 	addiu	s4,v0,1
9d007520:	ae540008 	sw	s4,8(s2)
9d007524:	80430001 	lb	v1,1(v0)
9d007528:	50680018 	beql	v1,t0,9d00758c <_strtostr+0x264>
9d00752c:	24420002 	addiu	v0,v0,2
9d007530:	10a9fff5 	beq	a1,t1,9d007508 <_strtostr+0x1e0>
9d007534:	82870001 	lb	a3,1(s4)
9d007538:	546afff4 	bnel	v1,t2,9d00750c <_strtostr+0x1e4>
9d00753c:	00602821 	move	a1,v1
9d007540:	10e8fff1 	beq	a3,t0,9d007508 <_strtostr+0x1e0>
9d007544:	24a20001 	addiu	v0,a1,1
9d007548:	00e2282a 	slt	a1,a3,v0
9d00754c:	27a30010 	addiu	v1,sp,16
9d007550:	00621021 	addu	v0,v1,v0
9d007554:	27a60011 	addiu	a2,sp,17
9d007558:	14a00005 	bnez	a1,9d007570 <_strtostr+0x248>
9d00755c:	00c71821 	addu	v1,a2,a3
9d007560:	a0440000 	sb	a0,0(v0)
9d007564:	24420001 	addiu	v0,v0,1
9d007568:	5443fffe 	bnel	v0,v1,9d007564 <_strtostr+0x23c>
9d00756c:	a0440000 	sb	a0,0(v0)
9d007570:	26820001 	addiu	v0,s4,1
9d007574:	24540001 	addiu	s4,v0,1
9d007578:	ae540008 	sw	s4,8(s2)
9d00757c:	80430001 	lb	v1,1(v0)
9d007580:	1468ffeb 	bne	v1,t0,9d007530 <_strtostr+0x208>
9d007584:	2405ffff 	li	a1,-1
9d007588:	24420002 	addiu	v0,v0,2
9d00758c:	0b401cdc 	j	9d007370 <_strtostr+0x48>
9d007590:	ae420008 	sw	v0,8(s2)
9d007594:	0b401cfd 	j	9d0073f4 <_strtostr+0xcc>
9d007598:	00001821 	move	v1,zero
9d00759c:	ae540008 	sw	s4,8(s2)
9d0075a0:	0000a821 	move	s5,zero
9d0075a4:	0b401d38 	j	9d0074e0 <_strtostr+0x1b8>
9d0075a8:	24050001 	li	a1,1

Disassembly of section .text.strtoul:

9d0075ac <strtoul>:
9d0075ac:	80820000 	lb	v0,0(a0)
9d0075b0:	10400089 	beqz	v0,9d0077d8 <strtoul+0x22c>
9d0075b4:	00001821 	move	v1,zero
9d0075b8:	3c089d01 	lui	t0,0x9d01
9d0075bc:	25088c05 	addiu	t0,t0,-29691
9d0075c0:	01021821 	addu	v1,t0,v0
9d0075c4:	80630000 	lb	v1,0(v1)
9d0075c8:	30630088 	andi	v1,v1,0x88
9d0075cc:	14600007 	bnez	v1,9d0075ec <strtoul+0x40>
9d0075d0:	00803821 	move	a3,a0
9d0075d4:	0b401dcf 	j	9d00773c <strtoul+0x190>
9d0075d8:	2403002b 	li	v1,43
9d0075dc:	80630000 	lb	v1,0(v1)
9d0075e0:	30630088 	andi	v1,v1,0x88
9d0075e4:	50600055 	beqzl	v1,9d00773c <strtoul+0x190>
9d0075e8:	2403002b 	li	v1,43
9d0075ec:	24e70001 	addiu	a3,a3,1
9d0075f0:	80e20000 	lb	v0,0(a3)
9d0075f4:	1440fff9 	bnez	v0,9d0075dc <strtoul+0x30>
9d0075f8:	01021821 	addu	v1,t0,v0
9d0075fc:	00001821 	move	v1,zero
9d007600:	0000c021 	move	t8,zero
9d007604:	14c00041 	bnez	a2,9d00770c <strtoul+0x160>
9d007608:	24020010 	li	v0,16
9d00760c:	24020030 	li	v0,48
9d007610:	1062005d 	beq	v1,v0,9d007788 <strtoul+0x1dc>
9d007614:	3c0d1999 	lui	t5,0x1999
9d007618:	35ad9999 	ori	t5,t5,0x9999
9d00761c:	240f000a 	li	t7,10
9d007620:	00005821 	move	t3,zero
9d007624:	2406000a 	li	a2,10
9d007628:	24e7ffff 	addiu	a3,a3,-1
9d00762c:	00005021 	move	t2,zero
9d007630:	00001021 	move	v0,zero
9d007634:	3c0c9d01 	lui	t4,0x9d01
9d007638:	258c8c05 	addiu	t4,t4,-29691
9d00763c:	24190061 	li	t9,97
9d007640:	240e0041 	li	t6,65
9d007644:	10600019 	beqz	v1,9d0076ac <strtoul+0x100>
9d007648:	24e70001 	addiu	a3,a3,1
9d00764c:	006c4021 	addu	t0,v1,t4
9d007650:	91080000 	lbu	t0,0(t0)
9d007654:	31090004 	andi	t1,t0,0x4
9d007658:	11200023 	beqz	t1,9d0076e8 <strtoul+0x13c>
9d00765c:	31090003 	andi	t1,t0,0x3
9d007660:	2463ffd0 	addiu	v1,v1,-48
9d007664:	04600011 	bltz	v1,9d0076ac <strtoul+0x100>
9d007668:	0066402a 	slt	t0,v1,a2
9d00766c:	1100000f 	beqz	t0,9d0076ac <strtoul+0x100>
9d007670:	01a2402b 	sltu	t0,t5,v0
9d007674:	55000019 	bnezl	t0,9d0076dc <strtoul+0x130>
9d007678:	240a0001 	li	t2,1
9d00767c:	55400008 	bnezl	t2,9d0076a0 <strtoul+0xf4>
9d007680:	80e30001 	lb	v1,1(a3)
9d007684:	704f1002 	mul	v0,v0,t7
9d007688:	00024027 	nor	t0,zero,v0
9d00768c:	0103402b 	sltu	t0,t0,v1
9d007690:	55000012 	bnezl	t0,9d0076dc <strtoul+0x130>
9d007694:	240a0001 	li	t2,1
9d007698:	00431021 	addu	v0,v0,v1
9d00769c:	80e30001 	lb	v1,1(a3)
9d0076a0:	240b0001 	li	t3,1
9d0076a4:	1460ffe9 	bnez	v1,9d00764c <strtoul+0xa0>
9d0076a8:	24e70001 	addiu	a3,a3,1
9d0076ac:	1300001f 	beqz	t8,9d00772c <strtoul+0x180>
9d0076b0:	00000000 	nop
9d0076b4:	11400005 	beqz	t2,9d0076cc <strtoul+0x120>
9d0076b8:	00021023 	negu	v0,v0
9d0076bc:	24030022 	li	v1,34
9d0076c0:	3c02a000 	lui	v0,0xa000
9d0076c4:	ac430020 	sw	v1,32(v0)
9d0076c8:	2402ffff 	li	v0,-1
9d0076cc:	10a0000d 	beqz	a1,9d007704 <strtoul+0x158>
9d0076d0:	008b380a 	movz	a3,a0,t3
9d0076d4:	03e00008 	jr	ra
9d0076d8:	aca70000 	sw	a3,0(a1)
9d0076dc:	80e30001 	lb	v1,1(a3)
9d0076e0:	0b401da9 	j	9d0076a4 <strtoul+0xf8>
9d0076e4:	240b0001 	li	t3,1
9d0076e8:	1120fff0 	beqz	t1,9d0076ac <strtoul+0x100>
9d0076ec:	31080001 	andi	t0,t0,0x1
9d0076f0:	01c04821 	move	t1,t6
9d0076f4:	0328480a 	movz	t1,t9,t0
9d0076f8:	00691823 	subu	v1,v1,t1
9d0076fc:	0b401d99 	j	9d007664 <strtoul+0xb8>
9d007700:	2463000a 	addiu	v1,v1,10
9d007704:	03e00008 	jr	ra
9d007708:	00000000 	nop
9d00770c:	10c20017 	beq	a2,v0,9d00776c <strtoul+0x1c0>
9d007710:	240dffff 	li	t5,-1
9d007714:	00c07821 	move	t7,a2
9d007718:	01a6001b 	divu	zero,t5,a2
9d00771c:	00c001f4 	teq	a2,zero,0x7
9d007720:	00006812 	mflo	t5
9d007724:	0b401d8a 	j	9d007628 <strtoul+0x7c>
9d007728:	00005821 	move	t3,zero
9d00772c:	1540ffe4 	bnez	t2,9d0076c0 <strtoul+0x114>
9d007730:	24030022 	li	v1,34
9d007734:	0b401db3 	j	9d0076cc <strtoul+0x120>
9d007738:	00000000 	nop
9d00773c:	54430006 	bnel	v0,v1,9d007758 <strtoul+0x1ac>
9d007740:	2403002d 	li	v1,45
9d007744:	3842002d 	xori	v0,v0,0x2d
9d007748:	80e30001 	lb	v1,1(a3)
9d00774c:	2c580001 	sltiu	t8,v0,1
9d007750:	0b401d81 	j	9d007604 <strtoul+0x58>
9d007754:	24e70001 	addiu	a3,a3,1
9d007758:	5043fffb 	beql	v0,v1,9d007748 <strtoul+0x19c>
9d00775c:	3842002d 	xori	v0,v0,0x2d
9d007760:	80e30000 	lb	v1,0(a3)
9d007764:	0b401d81 	j	9d007604 <strtoul+0x58>
9d007768:	0000c021 	move	t8,zero
9d00776c:	24020030 	li	v0,48
9d007770:	1062001c 	beq	v1,v0,9d0077e4 <strtoul+0x238>
9d007774:	3c0d0fff 	lui	t5,0xfff
9d007778:	35adffff 	ori	t5,t5,0xffff
9d00777c:	240f0010 	li	t7,16
9d007780:	0b401d8a 	j	9d007628 <strtoul+0x7c>
9d007784:	00005821 	move	t3,zero
9d007788:	80e30001 	lb	v1,1(a3)
9d00778c:	2402ffdf 	li	v0,-33
9d007790:	00623024 	and	a2,v1,v0
9d007794:	24020058 	li	v0,88
9d007798:	50c20008 	beql	a2,v0,9d0077bc <strtoul+0x210>
9d00779c:	80e30002 	lb	v1,2(a3)
9d0077a0:	24e70001 	addiu	a3,a3,1
9d0077a4:	3c0d1fff 	lui	t5,0x1fff
9d0077a8:	35adffff 	ori	t5,t5,0xffff
9d0077ac:	240f0008 	li	t7,8
9d0077b0:	240b0001 	li	t3,1
9d0077b4:	0b401d8a 	j	9d007628 <strtoul+0x7c>
9d0077b8:	24060008 	li	a2,8
9d0077bc:	3c0d0fff 	lui	t5,0xfff
9d0077c0:	35adffff 	ori	t5,t5,0xffff
9d0077c4:	24e70002 	addiu	a3,a3,2
9d0077c8:	240f0010 	li	t7,16
9d0077cc:	240b0001 	li	t3,1
9d0077d0:	0b401d8a 	j	9d007628 <strtoul+0x7c>
9d0077d4:	24060010 	li	a2,16
9d0077d8:	00803821 	move	a3,a0
9d0077dc:	0b401d81 	j	9d007604 <strtoul+0x58>
9d0077e0:	0000c021 	move	t8,zero
9d0077e4:	80e30001 	lb	v1,1(a3)
9d0077e8:	2402ffdf 	li	v0,-33
9d0077ec:	00624024 	and	t0,v1,v0
9d0077f0:	24020058 	li	v0,88
9d0077f4:	51020007 	beql	t0,v0,9d007814 <strtoul+0x268>
9d0077f8:	80e30002 	lb	v1,2(a3)
9d0077fc:	24e70001 	addiu	a3,a3,1
9d007800:	3c0d0fff 	lui	t5,0xfff
9d007804:	35adffff 	ori	t5,t5,0xffff
9d007808:	240f0010 	li	t7,16
9d00780c:	0b401d8a 	j	9d007628 <strtoul+0x7c>
9d007810:	240b0001 	li	t3,1
9d007814:	3c0d0fff 	lui	t5,0xfff
9d007818:	35adffff 	ori	t5,t5,0xffff
9d00781c:	24e70002 	addiu	a3,a3,2
9d007820:	240f0010 	li	t7,16
9d007824:	0b401d8a 	j	9d007628 <strtoul+0x7c>
9d007828:	240b0001 	li	t3,1

Disassembly of section .text.free:

9d00782c <free>:
9d00782c:	10800074 	beqz	a0,9d007a00 <free+0x1d4>
9d007830:	2402fffe 	li	v0,-2
9d007834:	8c86fffc 	lw	a2,-4(a0)
9d007838:	2485fff8 	addiu	a1,a0,-8
9d00783c:	00c21824 	and	v1,a2,v0
9d007840:	00a31021 	addu	v0,a1,v1
9d007844:	8c470004 	lw	a3,4(v0)
9d007848:	30e80001 	andi	t0,a3,0x1
9d00784c:	1100006c 	beqz	t0,9d007a00 <free+0x1d4>
9d007850:	7c070804 	ins	a3,zero,0x0,0x2
9d007854:	3c08a000 	lui	t0,0xa000
9d007858:	2508160c 	addiu	t0,t0,5644
9d00785c:	8d090008 	lw	t1,8(t0)
9d007860:	10490057 	beq	v0,t1,9d0079c0 <free+0x194>
9d007864:	30c60001 	andi	a2,a2,0x1
9d007868:	ac470004 	sw	a3,4(v0)
9d00786c:	14c0000c 	bnez	a2,9d0078a0 <free+0x74>
9d007870:	00004821 	move	t1,zero
9d007874:	8c86fff8 	lw	a2,-8(a0)
9d007878:	00a62823 	subu	a1,a1,a2
9d00787c:	8ca40008 	lw	a0,8(a1)
9d007880:	00661821 	addu	v1,v1,a2
9d007884:	3c06a000 	lui	a2,0xa000
9d007888:	24c61614 	addiu	a2,a2,5652
9d00788c:	50860004 	beql	a0,a2,9d0078a0 <free+0x74>
9d007890:	24090001 	li	t1,1
9d007894:	8ca6000c 	lw	a2,12(a1)
9d007898:	ac86000c 	sw	a2,12(a0)
9d00789c:	acc40008 	sw	a0,8(a2)
9d0078a0:	00472021 	addu	a0,v0,a3
9d0078a4:	8c840004 	lw	a0,4(a0)
9d0078a8:	30840001 	andi	a0,a0,0x1
9d0078ac:	54800008 	bnezl	a0,9d0078d0 <free+0xa4>
9d0078b0:	34640001 	ori	a0,v1,0x1
9d0078b4:	00671821 	addu	v1,v1,a3
9d0078b8:	11200026 	beqz	t1,9d007954 <free+0x128>
9d0078bc:	8c440008 	lw	a0,8(v0)
9d0078c0:	8c42000c 	lw	v0,12(v0)
9d0078c4:	ac82000c 	sw	v0,12(a0)
9d0078c8:	ac440008 	sw	a0,8(v0)
9d0078cc:	34640001 	ori	a0,v1,0x1
9d0078d0:	00a31021 	addu	v0,a1,v1
9d0078d4:	aca40004 	sw	a0,4(a1)
9d0078d8:	15200049 	bnez	t1,9d007a00 <free+0x1d4>
9d0078dc:	ac430000 	sw	v1,0(v0)
9d0078e0:	2c620200 	sltiu	v0,v1,512
9d0078e4:	54400028 	bnezl	v0,9d007988 <free+0x15c>
9d0078e8:	000318c2 	srl	v1,v1,0x3
9d0078ec:	00031242 	srl	v0,v1,0x9
9d0078f0:	2c440005 	sltiu	a0,v0,5
9d0078f4:	1080004c 	beqz	a0,9d007a28 <free+0x1fc>
9d0078f8:	2c440015 	sltiu	a0,v0,21
9d0078fc:	00032182 	srl	a0,v1,0x6
9d007900:	24840038 	addiu	a0,a0,56
9d007904:	00043040 	sll	a2,a0,0x1
9d007908:	00063080 	sll	a2,a2,0x2
9d00790c:	01063021 	addu	a2,t0,a2
9d007910:	8cc20008 	lw	v0,8(a2)
9d007914:	50460049 	beql	v0,a2,9d007a3c <free+0x210>
9d007918:	8d030004 	lw	v1,4(t0)
9d00791c:	8c440004 	lw	a0,4(v0)
9d007920:	7c040804 	ins	a0,zero,0x0,0x2
9d007924:	0064202b 	sltu	a0,v1,a0
9d007928:	50800005 	beqzl	a0,9d007940 <free+0x114>
9d00792c:	8c43000c 	lw	v1,12(v0)
9d007930:	8c420008 	lw	v0,8(v0)
9d007934:	54c2fffa 	bnel	a2,v0,9d007920 <free+0xf4>
9d007938:	8c440004 	lw	a0,4(v0)
9d00793c:	8c43000c 	lw	v1,12(v0)
9d007940:	aca3000c 	sw	v1,12(a1)
9d007944:	aca20008 	sw	v0,8(a1)
9d007948:	ac650008 	sw	a1,8(v1)
9d00794c:	03e00008 	jr	ra
9d007950:	ac45000c 	sw	a1,12(v0)
9d007954:	3c06a000 	lui	a2,0xa000
9d007958:	24c61614 	addiu	a2,a2,5652
9d00795c:	5486ffd9 	bnel	a0,a2,9d0078c4 <free+0x98>
9d007960:	8c42000c 	lw	v0,12(v0)
9d007964:	34660001 	ori	a2,v1,0x1
9d007968:	00a31021 	addu	v0,a1,v1
9d00796c:	ad050014 	sw	a1,20(t0)
9d007970:	ad050010 	sw	a1,16(t0)
9d007974:	aca4000c 	sw	a0,12(a1)
9d007978:	aca40008 	sw	a0,8(a1)
9d00797c:	aca60004 	sw	a2,4(a1)
9d007980:	03e00008 	jr	ra
9d007984:	ac430000 	sw	v1,0(v0)
9d007988:	000310c0 	sll	v0,v1,0x3
9d00798c:	01021021 	addu	v0,t0,v0
9d007990:	8d060004 	lw	a2,4(t0)
9d007994:	8c440008 	lw	a0,8(v0)
9d007998:	00031883 	sra	v1,v1,0x2
9d00799c:	24070001 	li	a3,1
9d0079a0:	00671804 	sllv	v1,a3,v1
9d0079a4:	00661825 	or	v1,v1,a2
9d0079a8:	aca2000c 	sw	v0,12(a1)
9d0079ac:	aca40008 	sw	a0,8(a1)
9d0079b0:	ad030004 	sw	v1,4(t0)
9d0079b4:	ac450008 	sw	a1,8(v0)
9d0079b8:	03e00008 	jr	ra
9d0079bc:	ac85000c 	sw	a1,12(a0)
9d0079c0:	14c00008 	bnez	a2,9d0079e4 <free+0x1b8>
9d0079c4:	00e33821 	addu	a3,a3,v1
9d0079c8:	8c84fff8 	lw	a0,-8(a0)
9d0079cc:	00a42823 	subu	a1,a1,a0
9d0079d0:	8ca2000c 	lw	v0,12(a1)
9d0079d4:	8ca30008 	lw	v1,8(a1)
9d0079d8:	00e43821 	addu	a3,a3,a0
9d0079dc:	ac62000c 	sw	v0,12(v1)
9d0079e0:	ac430008 	sw	v1,8(v0)
9d0079e4:	3c02a000 	lui	v0,0xa000
9d0079e8:	8c421608 	lw	v0,5640(v0)
9d0079ec:	34e30001 	ori	v1,a3,0x1
9d0079f0:	aca30004 	sw	v1,4(a1)
9d0079f4:	00e2382b 	sltu	a3,a3,v0
9d0079f8:	10e00003 	beqz	a3,9d007a08 <free+0x1dc>
9d0079fc:	ad050008 	sw	a1,8(t0)
9d007a00:	03e00008 	jr	ra
9d007a04:	00000000 	nop
9d007a08:	27bdffe8 	addiu	sp,sp,-24
9d007a0c:	afbf0014 	sw	ra,20(sp)
9d007a10:	3c02a000 	lui	v0,0xa000
9d007a14:	0f402342 	jal	9d008d08 <malloc_trim>
9d007a18:	8c441ba0 	lw	a0,7072(v0)
9d007a1c:	8fbf0014 	lw	ra,20(sp)
9d007a20:	03e00008 	jr	ra
9d007a24:	27bd0018 	addiu	sp,sp,24
9d007a28:	5080000b 	beqzl	a0,9d007a58 <free+0x22c>
9d007a2c:	2c440055 	sltiu	a0,v0,85
9d007a30:	2444005b 	addiu	a0,v0,91
9d007a34:	0b401e42 	j	9d007908 <free+0xdc>
9d007a38:	00043040 	sll	a2,a0,0x1
9d007a3c:	00042083 	sra	a0,a0,0x2
9d007a40:	24060001 	li	a2,1
9d007a44:	00862004 	sllv	a0,a2,a0
9d007a48:	00831825 	or	v1,a0,v1
9d007a4c:	ad030004 	sw	v1,4(t0)
9d007a50:	0b401e50 	j	9d007940 <free+0x114>
9d007a54:	00401821 	move	v1,v0
9d007a58:	50800005 	beqzl	a0,9d007a70 <free+0x244>
9d007a5c:	2c440155 	sltiu	a0,v0,341
9d007a60:	00032302 	srl	a0,v1,0xc
9d007a64:	2484006e 	addiu	a0,a0,110
9d007a68:	0b401e42 	j	9d007908 <free+0xdc>
9d007a6c:	00043040 	sll	a2,a0,0x1
9d007a70:	10800005 	beqz	a0,9d007a88 <free+0x25c>
9d007a74:	2c420555 	sltiu	v0,v0,1365
9d007a78:	000323c2 	srl	a0,v1,0xf
9d007a7c:	24840077 	addiu	a0,a0,119
9d007a80:	0b401e42 	j	9d007908 <free+0xdc>
9d007a84:	00043040 	sll	a2,a0,0x1
9d007a88:	50400005 	beqzl	v0,9d007aa0 <free+0x274>
9d007a8c:	240600fc 	li	a2,252
9d007a90:	00032482 	srl	a0,v1,0x12
9d007a94:	2484007c 	addiu	a0,a0,124
9d007a98:	0b401e42 	j	9d007908 <free+0xdc>
9d007a9c:	00043040 	sll	a2,a0,0x1
9d007aa0:	0b401e42 	j	9d007908 <free+0xdc>
9d007aa4:	2404007e 	li	a0,126

Disassembly of section .text.strtol:

9d007aa8 <strtol>:
9d007aa8:	80820000 	lb	v0,0(a0)
9d007aac:	1040008a 	beqz	v0,9d007cd8 <strtol+0x230>
9d007ab0:	00001821 	move	v1,zero
9d007ab4:	3c089d01 	lui	t0,0x9d01
9d007ab8:	25088c05 	addiu	t0,t0,-29691
9d007abc:	01021821 	addu	v1,t0,v0
9d007ac0:	80630000 	lb	v1,0(v1)
9d007ac4:	30630088 	andi	v1,v1,0x88
9d007ac8:	14600007 	bnez	v1,9d007ae8 <strtol+0x40>
9d007acc:	00803821 	move	a3,a0
9d007ad0:	0b401f12 	j	9d007c48 <strtol+0x1a0>
9d007ad4:	2403002b 	li	v1,43
9d007ad8:	80630000 	lb	v1,0(v1)
9d007adc:	30630088 	andi	v1,v1,0x88
9d007ae0:	50600059 	beqzl	v1,9d007c48 <strtol+0x1a0>
9d007ae4:	2403002b 	li	v1,43
9d007ae8:	24e70001 	addiu	a3,a3,1
9d007aec:	80e20000 	lb	v0,0(a3)
9d007af0:	1440fff9 	bnez	v0,9d007ad8 <strtol+0x30>
9d007af4:	01021821 	addu	v1,t0,v0
9d007af8:	00001821 	move	v1,zero
9d007afc:	0000c021 	move	t8,zero
9d007b00:	14c00042 	bnez	a2,9d007c0c <strtol+0x164>
9d007b04:	24020010 	li	v0,16
9d007b08:	24020030 	li	v0,48
9d007b0c:	10620060 	beq	v1,v0,9d007c90 <strtol+0x1e8>
9d007b10:	3c0d0ccc 	lui	t5,0xccc
9d007b14:	35adcccc 	ori	t5,t5,0xcccc
9d007b18:	00005821 	move	t3,zero
9d007b1c:	2406000a 	li	a2,10
9d007b20:	24e7ffff 	addiu	a3,a3,-1
9d007b24:	00005021 	move	t2,zero
9d007b28:	00001021 	move	v0,zero
9d007b2c:	3c0c9d01 	lui	t4,0x9d01
9d007b30:	258c8c05 	addiu	t4,t4,-29691
9d007b34:	240f0061 	li	t7,97
9d007b38:	240e0041 	li	t6,65
9d007b3c:	3c197fff 	lui	t9,0x7fff
9d007b40:	3739ffff 	ori	t9,t9,0xffff
9d007b44:	10600019 	beqz	v1,9d007bac <strtol+0x104>
9d007b48:	24e70001 	addiu	a3,a3,1
9d007b4c:	006c4021 	addu	t0,v1,t4
9d007b50:	91080000 	lbu	t0,0(t0)
9d007b54:	31090004 	andi	t1,t0,0x4
9d007b58:	11200023 	beqz	t1,9d007be8 <strtol+0x140>
9d007b5c:	31090003 	andi	t1,t0,0x3
9d007b60:	2463ffd0 	addiu	v1,v1,-48
9d007b64:	04600011 	bltz	v1,9d007bac <strtol+0x104>
9d007b68:	0066402a 	slt	t0,v1,a2
9d007b6c:	1100000f 	beqz	t0,9d007bac <strtol+0x104>
9d007b70:	01a2402a 	slt	t0,t5,v0
9d007b74:	55000019 	bnezl	t0,9d007bdc <strtol+0x134>
9d007b78:	240a0001 	li	t2,1
9d007b7c:	55400017 	bnezl	t2,9d007bdc <strtol+0x134>
9d007b80:	240a0001 	li	t2,1
9d007b84:	70461002 	mul	v0,v0,a2
9d007b88:	03224023 	subu	t0,t9,v0
9d007b8c:	0103402a 	slt	t0,t0,v1
9d007b90:	55000012 	bnezl	t0,9d007bdc <strtol+0x134>
9d007b94:	240a0001 	li	t2,1
9d007b98:	00431021 	addu	v0,v0,v1
9d007b9c:	80e30001 	lb	v1,1(a3)
9d007ba0:	240b0001 	li	t3,1
9d007ba4:	1460ffe9 	bnez	v1,9d007b4c <strtol+0xa4>
9d007ba8:	24e70001 	addiu	a3,a3,1
9d007bac:	1300001f 	beqz	t8,9d007c2c <strtol+0x184>
9d007bb0:	00000000 	nop
9d007bb4:	11400005 	beqz	t2,9d007bcc <strtol+0x124>
9d007bb8:	00021023 	negu	v0,v0
9d007bbc:	24030022 	li	v1,34
9d007bc0:	3c02a000 	lui	v0,0xa000
9d007bc4:	ac430020 	sw	v1,32(v0)
9d007bc8:	3c028000 	lui	v0,0x8000
9d007bcc:	10a0000d 	beqz	a1,9d007c04 <strtol+0x15c>
9d007bd0:	008b380a 	movz	a3,a0,t3
9d007bd4:	03e00008 	jr	ra
9d007bd8:	aca70000 	sw	a3,0(a1)
9d007bdc:	80e30001 	lb	v1,1(a3)
9d007be0:	0b401ee9 	j	9d007ba4 <strtol+0xfc>
9d007be4:	240b0001 	li	t3,1
9d007be8:	1120fff0 	beqz	t1,9d007bac <strtol+0x104>
9d007bec:	31080001 	andi	t0,t0,0x1
9d007bf0:	01c04821 	move	t1,t6
9d007bf4:	01e8480a 	movz	t1,t7,t0
9d007bf8:	00691823 	subu	v1,v1,t1
9d007bfc:	0b401ed9 	j	9d007b64 <strtol+0xbc>
9d007c00:	2463000a 	addiu	v1,v1,10
9d007c04:	03e00008 	jr	ra
9d007c08:	00000000 	nop
9d007c0c:	10c2001a 	beq	a2,v0,9d007c78 <strtol+0x1d0>
9d007c10:	3c0d7fff 	lui	t5,0x7fff
9d007c14:	35adffff 	ori	t5,t5,0xffff
9d007c18:	01a6001a 	div	zero,t5,a2
9d007c1c:	00c001f4 	teq	a2,zero,0x7
9d007c20:	00006812 	mflo	t5
9d007c24:	0b401ec8 	j	9d007b20 <strtol+0x78>
9d007c28:	00005821 	move	t3,zero
9d007c2c:	1140ffe7 	beqz	t2,9d007bcc <strtol+0x124>
9d007c30:	24030022 	li	v1,34
9d007c34:	3c02a000 	lui	v0,0xa000
9d007c38:	ac430020 	sw	v1,32(v0)
9d007c3c:	3c027fff 	lui	v0,0x7fff
9d007c40:	0b401ef3 	j	9d007bcc <strtol+0x124>
9d007c44:	3442ffff 	ori	v0,v0,0xffff
9d007c48:	54430006 	bnel	v0,v1,9d007c64 <strtol+0x1bc>
9d007c4c:	2403002d 	li	v1,45
9d007c50:	3842002d 	xori	v0,v0,0x2d
9d007c54:	80e30001 	lb	v1,1(a3)
9d007c58:	2c580001 	sltiu	t8,v0,1
9d007c5c:	0b401ec0 	j	9d007b00 <strtol+0x58>
9d007c60:	24e70001 	addiu	a3,a3,1
9d007c64:	5043fffb 	beql	v0,v1,9d007c54 <strtol+0x1ac>
9d007c68:	3842002d 	xori	v0,v0,0x2d
9d007c6c:	80e30000 	lb	v1,0(a3)
9d007c70:	0b401ec0 	j	9d007b00 <strtol+0x58>
9d007c74:	0000c021 	move	t8,zero
9d007c78:	24020030 	li	v0,48
9d007c7c:	10620019 	beq	v1,v0,9d007ce4 <strtol+0x23c>
9d007c80:	3c0d07ff 	lui	t5,0x7ff
9d007c84:	35adffff 	ori	t5,t5,0xffff
9d007c88:	0b401ec8 	j	9d007b20 <strtol+0x78>
9d007c8c:	00005821 	move	t3,zero
9d007c90:	80e30001 	lb	v1,1(a3)
9d007c94:	2402ffdf 	li	v0,-33
9d007c98:	00623024 	and	a2,v1,v0
9d007c9c:	24020058 	li	v0,88
9d007ca0:	50c20007 	beql	a2,v0,9d007cc0 <strtol+0x218>
9d007ca4:	80e30002 	lb	v1,2(a3)
9d007ca8:	24e70001 	addiu	a3,a3,1
9d007cac:	3c0d0fff 	lui	t5,0xfff
9d007cb0:	35adffff 	ori	t5,t5,0xffff
9d007cb4:	240b0001 	li	t3,1
9d007cb8:	0b401ec8 	j	9d007b20 <strtol+0x78>
9d007cbc:	24060008 	li	a2,8
9d007cc0:	3c0d07ff 	lui	t5,0x7ff
9d007cc4:	35adffff 	ori	t5,t5,0xffff
9d007cc8:	24e70002 	addiu	a3,a3,2
9d007ccc:	240b0001 	li	t3,1
9d007cd0:	0b401ec8 	j	9d007b20 <strtol+0x78>
9d007cd4:	24060010 	li	a2,16
9d007cd8:	00803821 	move	a3,a0
9d007cdc:	0b401ec0 	j	9d007b00 <strtol+0x58>
9d007ce0:	0000c021 	move	t8,zero
9d007ce4:	80e30001 	lb	v1,1(a3)
9d007ce8:	2402ffdf 	li	v0,-33
9d007cec:	00624024 	and	t0,v1,v0
9d007cf0:	24020058 	li	v0,88
9d007cf4:	51020006 	beql	t0,v0,9d007d10 <strtol+0x268>
9d007cf8:	80e30002 	lb	v1,2(a3)
9d007cfc:	24e70001 	addiu	a3,a3,1
9d007d00:	3c0d07ff 	lui	t5,0x7ff
9d007d04:	35adffff 	ori	t5,t5,0xffff
9d007d08:	0b401ec8 	j	9d007b20 <strtol+0x78>
9d007d0c:	240b0001 	li	t3,1
9d007d10:	3c0d07ff 	lui	t5,0x7ff
9d007d14:	35adffff 	ori	t5,t5,0xffff
9d007d18:	24e70002 	addiu	a3,a3,2
9d007d1c:	0b401ec8 	j	9d007b20 <strtol+0x78>
9d007d20:	240b0001 	li	t3,1

Disassembly of section .text.fpsubadd:

9d007d24 <__subsf3>:
9d007d24:	3c018000 00a12826                       ...<&(..

9d007d2c <__addsf3>:
9d007d2c:	00044dc2 312900ff 00055dc2 316b00ff     .M....)1.]....k1
9d007d3c:	3c078000 00044200 01074025 00055200     ...<.B..%@...R..
9d007d4c:	01475025 252dffff 2da100fe 10200061     %PG...-%...-a. .
9d007d5c:	00000000                                ....

9d007d60 <Blab1>:
9d007d60:	256dffff 	addiu	t5,t3,-1
9d007d64:	2da100fe 	sltiu	at,t5,254
9d007d68:	10200077 	beqz	at,9d007f48 <BspecB>
9d007d6c:	00000000 	nop

9d007d70 <Blab2>:
9d007d70:	012b6023 	subu	t4,t1,t3
9d007d74:	0580000d 	bltz	t4,9d007dac <i1>
9d007d78:	00000000 	nop
9d007d7c:	29810020 	slti	at,t4,32
9d007d80:	14200003 	bnez	at,9d007d90 <i2>
9d007d84:	00000000 	nop
9d007d88:	10000015 	b	9d007de0 <e1>
9d007d8c:	240a0002 	li	t2,2

9d007d90 <i2>:
9d007d90:	000a3025 	or	a2,zero,t2
9d007d94:	018a5006 	srlv	t2,t2,t4
9d007d98:	018a6804 	sllv	t5,t2,t4
9d007d9c:	11a60010 	beq	t5,a2,9d007de0 <e1>
9d007da0:	00000000 	nop
9d007da4:	1000000e 	b	9d007de0 <e1>
9d007da8:	354a0002 	ori	t2,t2,0x2

9d007dac <i1>:
9d007dac:	000b4825 	or	t1,zero,t3
9d007db0:	000c6023 	negu	t4,t4
9d007db4:	29810020 	slti	at,t4,32
9d007db8:	14200003 	bnez	at,9d007dc8 <i4>
9d007dbc:	00000000 	nop
9d007dc0:	10000007 	b	9d007de0 <e1>
9d007dc4:	24080002 	li	t0,2

9d007dc8 <i4>:
9d007dc8:	00083025 	or	a2,zero,t0
9d007dcc:	01884006 	srlv	t0,t0,t4
9d007dd0:	01886804 	sllv	t5,t0,t4
9d007dd4:	11a60002 	beq	t5,a2,9d007de0 <e1>
9d007dd8:	00000000 	nop
9d007ddc:	35080002 	ori	t0,t0,0x2

9d007de0 <e1>:
9d007de0:	00876024 	and	t4,a0,a3
9d007de4:	01856826 	xor	t5,t4,a1
9d007de8:	05a00010 	bltz	t5,9d007e2c <Bsub1>
9d007dec:	00000000 	nop
9d007df0:	010a4021 	addu	t0,t0,t2
9d007df4:	010a682b 	sltu	t5,t0,t2
9d007df8:	11a00017 	beqz	t5,9d007e58 <Bres>
9d007dfc:	00000000 	nop
9d007e00:	310d0001 	andi	t5,t0,0x1
9d007e04:	11a00002 	beqz	t5,9d007e10 <i7>
9d007e08:	00000000 	nop
9d007e0c:	35080002 	ori	t0,t0,0x2

9d007e10 <i7>:
9d007e10:	00084042 	srl	t0,t0,0x1
9d007e14:	25290001 	addiu	t1,t1,1
9d007e18:	240100ff 	li	at,255
9d007e1c:	1521000e 	bne	t1,at,9d007e58 <Bres>
9d007e20:	00000000 	nop
9d007e24:	1000000c 	b	9d007e58 <Bres>
9d007e28:	24080000 	li	t0,0

9d007e2c <Bsub1>:
9d007e2c:	010a682b 	sltu	t5,t0,t2
9d007e30:	11a00004 	beqz	t5,9d007e44 <i9>
9d007e34:	010a4023 	subu	t0,t0,t2
9d007e38:	00084023 	negu	t0,t0
9d007e3c:	10000003 	b	9d007e4c <e9>
9d007e40:	01876026 	xor	t4,t4,a3

9d007e44 <i9>:
9d007e44:	11000050 	beqz	t0,9d007f88 <Bzer>
9d007e48:	00000000 	nop

9d007e4c <e9>:
9d007e4c:	71063020 	clz	a2,t0
9d007e50:	01264823 	subu	t1,t1,a2
9d007e54:	00c84004 	sllv	t0,t0,a2

9d007e58 <Bres>:
9d007e58:	1920000e 	blez	t1,9d007e94 <Bund>
9d007e5c:	00000000 	nop

9d007e60 <Blab12>:
9d007e60:	25080080 	addiu	t0,t0,128
9d007e64:	2d0d0080 	sltiu	t5,t0,128
9d007e68:	012d4821 	addu	t1,t1,t5
9d007e6c:	00086a02 	srl	t5,t0,0x8
9d007e70:	31ad0001 	andi	t5,t5,0x1
9d007e74:	010d4023 	subu	t0,t0,t5
9d007e78:	00084040 	sll	t0,t0,0x1
9d007e7c:	00084242 	srl	t0,t0,0x9
9d007e80:	00096dc0 	sll	t5,t1,0x17
9d007e84:	010d4025 	or	t0,t0,t5
9d007e88:	010c1025 	or	v0,t0,t4

9d007e8c <B999>:
9d007e8c:	03e00008 	jr	ra
9d007e90:	00000000 	nop

9d007e94 <Bund>:
9d007e94:	24060001 	li	a2,1
9d007e98:	00c93023 	subu	a2,a2,t1
9d007e9c:	2cc10020 	sltiu	at,a2,32
9d007ea0:	10200039 	beqz	at,9d007f88 <Bzer>
9d007ea4:	00000000 	nop
9d007ea8:	3c018000 	lui	at,0x8000
9d007eac:	01014025 	or	t0,t0,at
9d007eb0:	240d0020 	li	t5,32
9d007eb4:	01a66823 	subu	t5,t5,a2
9d007eb8:	01a84804 	sllv	t1,t0,t5
9d007ebc:	11200002 	beqz	t1,9d007ec8 <i10>
9d007ec0:	00c84006 	srlv	t0,t0,a2
9d007ec4:	35080001 	ori	t0,t0,0x1

9d007ec8 <i10>:
9d007ec8:	24090000 	li	t1,0
9d007ecc:	250d0080 	addiu	t5,t0,128
9d007ed0:	05a1ffe3 	bgez	t5,9d007e60 <Blab12>
9d007ed4:	00000000 	nop
9d007ed8:	1000ffe1 	b	9d007e60 <Blab12>
9d007edc:	24090001 	li	t1,1

9d007ee0 <BspecA>:
9d007ee0:	1520000e 	bnez	t1,9d007f1c <i12>
9d007ee4:	00000000 	nop
9d007ee8:	01084021 	addu	t0,t0,t0
9d007eec:	11000005 	beqz	t0,9d007f04 <i13>
9d007ef0:	00000000 	nop
9d007ef4:	710c6020 	clz	t4,t0
9d007ef8:	012c4823 	subu	t1,t1,t4
9d007efc:	1000ff98 	b	9d007d60 <Blab1>
9d007f00:	01884004 	sllv	t0,t0,t4

9d007f04 <i13>:
9d007f04:	240100ff 	li	at,255
9d007f08:	1161000f 	beq	t3,at,9d007f48 <BspecB>
9d007f0c:	00000000 	nop
9d007f10:	3c018000 	lui	at,0x8000
9d007f14:	14a10018 	bne	a1,at,9d007f78 <BretB>
9d007f18:	00000000 	nop

9d007f1c <i12>:
9d007f1c:	01086821 	addu	t5,t0,t0
9d007f20:	15a0001b 	bnez	t5,9d007f90 <Bnan>
9d007f24:	00000000 	nop
9d007f28:	240100ff 	li	at,255
9d007f2c:	15610014 	bne	t3,at,9d007f80 <BretA>
9d007f30:	00000000 	nop
9d007f34:	00856826 	xor	t5,a0,a1
9d007f38:	05a00015 	bltz	t5,9d007f90 <Bnan>
9d007f3c:	00000000 	nop
9d007f40:	1000000d 	b	9d007f78 <BretB>
9d007f44:	00000000 	nop

9d007f48 <BspecB>:
9d007f48:	15600008 	bnez	t3,9d007f6c <i15>
9d007f4c:	00000000 	nop
9d007f50:	014a5021 	addu	t2,t2,t2
9d007f54:	1140000a 	beqz	t2,9d007f80 <BretA>
9d007f58:	00000000 	nop
9d007f5c:	714c6020 	clz	t4,t2
9d007f60:	016c5823 	subu	t3,t3,t4
9d007f64:	1000ff82 	b	9d007d70 <Blab2>
9d007f68:	018a5004 	sllv	t2,t2,t4

9d007f6c <i15>:
9d007f6c:	014a6821 	addu	t5,t2,t2
9d007f70:	15a00007 	bnez	t5,9d007f90 <Bnan>
9d007f74:	00000000 	nop

9d007f78 <BretB>:
9d007f78:	1000ffc4 	b	9d007e8c <B999>
9d007f7c:	00051025 	or	v0,zero,a1

9d007f80 <BretA>:
9d007f80:	1000ffc2 	b	9d007e8c <B999>
9d007f84:	00041025 	or	v0,zero,a0

9d007f88 <Bzer>:
9d007f88:	1000ffc0 	b	9d007e8c <B999>
9d007f8c:	24020000 	li	v0,0

9d007f90 <Bnan>:
9d007f90:	1000ffbe 	b	9d007e8c <B999>
9d007f94:	3c02ffc0 	lui	v0,0xffc0
9d007f98:	00000000 	nop

Disassembly of section .text.fp32div:

9d007f9c <__divsf3>:
9d007f9c:	3c0b8000 000445c2 310800ff 000555c2     ...<.E.....1.U..
9d007fac:	314a00ff 00043a00 00eb3825 00054a00     ..J1.:..%8...J..
9d007fbc:	012b4825 00857026 016e5824 250effff     %H+.&p..$Xn....%
9d007fcc:	2dc100fe 1020003f 00000000              ...-?. .....

9d007fd8 <Dlab1>:
9d007fd8:	254effff 	addiu	t6,t2,-1
9d007fdc:	2dc100fe 	sltiu	at,t6,254
9d007fe0:	10200053 	beqz	at,9d008130 <DspecB>
9d007fe4:	00000000 	nop

9d007fe8 <Dlab2>:
9d007fe8:	00e9082b 	sltu	at,a3,t1
9d007fec:	14200003 	bnez	at,9d007ffc <i27>
9d007ff0:	00000000 	nop
9d007ff4:	00073842 	srl	a3,a3,0x1
9d007ff8:	25080001 	addiu	t0,t0,1

9d007ffc <i27>:
9d007ffc:	00096382 	srl	t4,t1,0xe
9d008000:	018001f4 	teq	t4,zero,0x7
9d008004:	00ec001b 	divu	zero,a3,t4
9d008008:	00002012 	mflo	a0
9d00800c:	00003010 	mfhi	a2
9d008010:	312d3fff 	andi	t5,t1,0x3fff
9d008014:	01a40019 	multu	t5,a0
9d008018:	00002812 	mflo	a1
9d00801c:	00063380 	sll	a2,a2,0xe
9d008020:	00c5702b 	sltu	t6,a2,a1
9d008024:	11c00004 	beqz	t6,9d008038 <i28>
9d008028:	00c53023 	subu	a2,a2,a1
9d00802c:	2484ffff 	addiu	a0,a0,-1
9d008030:	00c93021 	addu	a2,a2,t1
9d008034:	00c9702b 	sltu	t6,a2,t1

9d008038 <i28>:
9d008038:	018001f4 	teq	t4,zero,0x7
9d00803c:	00cc001b 	divu	zero,a2,t4
9d008040:	00003812 	mflo	a3
9d008044:	00003010 	mfhi	a2
9d008048:	01a70019 	multu	t5,a3
9d00804c:	00002812 	mflo	a1
9d008050:	00063380 	sll	a2,a2,0xe
9d008054:	00c5702b 	sltu	t6,a2,a1
9d008058:	11c00004 	beqz	t6,9d00806c <i29>
9d00805c:	00c53023 	subu	a2,a2,a1
9d008060:	24e7ffff 	addiu	a3,a3,-1
9d008064:	00c93021 	addu	a2,a2,t1
9d008068:	00c9702b 	sltu	t6,a2,t1

9d00806c <i29>:
9d00806c:	00047380 	sll	t6,a0,0xe
9d008070:	00ee3821 	addu	a3,a3,t6
9d008074:	10c00002 	beqz	a2,9d008080 <i30>
9d008078:	00073900 	sll	a3,a3,0x4
9d00807c:	34e70001 	ori	a3,a3,0x1

9d008080 <i30>:
9d008080:	240e007e 	li	t6,126
9d008084:	01ca7023 	subu	t6,t6,t2
9d008088:	010e4021 	addu	t0,t0,t6
9d00808c:	250effff 	addiu	t6,t0,-1
9d008090:	2dc100fe 	sltiu	at,t6,254
9d008094:	10200034 	beqz	at,9d008168 <Doveund>
9d008098:	00000000 	nop

9d00809c <Dlab8>:
9d00809c:	24e70080 	addiu	a3,a3,128
9d0080a0:	2cee0080 	sltiu	t6,a3,128
9d0080a4:	010e4021 	addu	t0,t0,t6
9d0080a8:	00077202 	srl	t6,a3,0x8
9d0080ac:	31ce0001 	andi	t6,t6,0x1
9d0080b0:	00ee3823 	subu	a3,a3,t6
9d0080b4:	00073840 	sll	a3,a3,0x1
9d0080b8:	00073a42 	srl	a3,a3,0x9
9d0080bc:	000875c0 	sll	t6,t0,0x17
9d0080c0:	00ee3825 	or	a3,a3,t6
9d0080c4:	00eb1025 	or	v0,a3,t3

9d0080c8 <D999>:
9d0080c8:	03e00008 	jr	ra
9d0080cc:	00000000 	nop

9d0080d0 <DspecA>:
9d0080d0:	15000008 	bnez	t0,9d0080f4 <i31>
9d0080d4:	00000000 	nop
9d0080d8:	00e73821 	addu	a3,a3,a3
9d0080dc:	10e00005 	beqz	a3,9d0080f4 <i31>
9d0080e0:	00000000 	nop
9d0080e4:	70ec6020 	clz	t4,a3
9d0080e8:	010c4023 	subu	t0,t0,t4
9d0080ec:	1000ffba 	b	9d007fd8 <Dlab1>
9d0080f0:	01873804 	sllv	a3,a3,t4

9d0080f4 <i31>:
9d0080f4:	15480004 	bne	t2,t0,9d008108 <i33>
9d0080f8:	00000000 	nop
9d0080fc:	01297021 	addu	t6,t1,t1
9d008100:	11c0002f 	beqz	t6,9d0081c0 <Dnan>
9d008104:	00000000 	nop

9d008108 <i33>:
9d008108:	240100ff 	li	at,255
9d00810c:	11410008 	beq	t2,at,9d008130 <DspecB>
9d008110:	00000000 	nop
9d008114:	11000012 	beqz	t0,9d008160 <Dzer>
9d008118:	00000000 	nop
9d00811c:	00e77021 	addu	t6,a3,a3
9d008120:	15c00027 	bnez	t6,9d0081c0 <Dnan>
9d008124:	00000000 	nop
9d008128:	10000022 	b	9d0081b4 <Dinf>
9d00812c:	00000000 	nop

9d008130 <DspecB>:
9d008130:	15400008 	bnez	t2,9d008154 <i34>
9d008134:	00000000 	nop
9d008138:	01294821 	addu	t1,t1,t1
9d00813c:	1120001d 	beqz	t1,9d0081b4 <Dinf>
9d008140:	00000000 	nop
9d008144:	712c6020 	clz	t4,t1
9d008148:	014c5023 	subu	t2,t2,t4
9d00814c:	1000ffa6 	b	9d007fe8 <Dlab2>
9d008150:	01894804 	sllv	t1,t1,t4

9d008154 <i34>:
9d008154:	01297021 	addu	t6,t1,t1
9d008158:	15c00019 	bnez	t6,9d0081c0 <Dnan>
9d00815c:	00000000 	nop

9d008160 <Dzer>:
9d008160:	1000ffd9 	b	9d0080c8 <D999>
9d008164:	000b1025 	or	v0,zero,t3

9d008168 <Doveund>:
9d008168:	1d000012 	bgtz	t0,9d0081b4 <Dinf>
9d00816c:	00000000 	nop
9d008170:	240c0001 	li	t4,1
9d008174:	01886023 	subu	t4,t4,t0
9d008178:	2d810020 	sltiu	at,t4,32
9d00817c:	1020fff8 	beqz	at,9d008160 <Dzer>
9d008180:	00000000 	nop
9d008184:	240e0020 	li	t6,32
9d008188:	01cc7023 	subu	t6,t6,t4
9d00818c:	01c74004 	sllv	t0,a3,t6
9d008190:	11000002 	beqz	t0,9d00819c <i37>
9d008194:	01873806 	srlv	a3,a3,t4
9d008198:	34e70002 	ori	a3,a3,0x2

9d00819c <i37>:
9d00819c:	24080000 	li	t0,0
9d0081a0:	24ee0080 	addiu	t6,a3,128
9d0081a4:	05c1ffbd 	bgez	t6,9d00809c <Dlab8>
9d0081a8:	00000000 	nop
9d0081ac:	1000ffbb 	b	9d00809c <Dlab8>
9d0081b0:	24080001 	li	t0,1

9d0081b4 <Dinf>:
9d0081b4:	3c017f80 	lui	at,0x7f80
9d0081b8:	1000ffc3 	b	9d0080c8 <D999>
9d0081bc:	01611025 	or	v0,t3,at

9d0081c0 <Dnan>:
9d0081c0:	1000ffc1 	b	9d0080c8 <D999>
9d0081c4:	3c02ffc0 	lui	v0,0xffc0
9d0081c8:	00000000 	nop

Disassembly of section .text:

9d0081cc <NU32_Startup>:
9d0081cc:	27bdfff8 	addiu	sp,sp,-8
9d0081d0:	afbf0004 	sw	ra,4(sp)
9d0081d4:	41626000 	di	v0
9d0081d8:	000000c0 	ehb
9d0081dc:	3c02a421 	lui	v0,0xa421
9d0081e0:	24420583 	addiu	v0,v0,1411
9d0081e4:	40828000 	mtc0	v0,c0_config
9d0081e8:	000000c0 	ehb
9d0081ec:	3c02bf88 	lui	v0,0xbf88
9d0081f0:	8c434000 	lw	v1,16384(v0)
9d0081f4:	24050002 	li	a1,2
9d0081f8:	7ca31004 	ins	v1,a1,0x0,0x3
9d0081fc:	ac434000 	sw	v1,16384(v0)
9d008200:	8c434000 	lw	v1,16384(v0)
9d008204:	24040003 	li	a0,3
9d008208:	7c832904 	ins	v1,a0,0x4,0x2
9d00820c:	ac434000 	sw	v1,16384(v0)
9d008210:	3c02bf88 	lui	v0,0xbf88
9d008214:	8c432000 	lw	v1,8192(v0)
9d008218:	7c033184 	ins	v1,zero,0x6,0x1
9d00821c:	ac432000 	sw	v1,8192(v0)
9d008220:	3c02bf88 	lui	v0,0xbf88
9d008224:	8c461000 	lw	a2,4096(v0)
9d008228:	24030001 	li	v1,1
9d00822c:	7c666304 	ins	a2,v1,0xc,0x1
9d008230:	ac461000 	sw	a2,4096(v0)
9d008234:	3c02bf81 	lui	v0,0xbf81
9d008238:	9046f200 	lbu	a2,-3584(v0)
9d00823c:	7c0618c4 	ins	a2,zero,0x3,0x1
9d008240:	a046f200 	sb	a2,-3584(v0)
9d008244:	3c02bf88 	lui	v0,0xbf88
9d008248:	ac446144 	sw	a0,24900(v0)
9d00824c:	3c02bf88 	lui	v0,0xbf88
9d008250:	90446160 	lbu	a0,24928(v0)
9d008254:	7c640004 	ins	a0,v1,0x0,0x1
9d008258:	a0446160 	sb	a0,24928(v0)
9d00825c:	90446160 	lbu	a0,24928(v0)
9d008260:	7c040844 	ins	a0,zero,0x1,0x1
9d008264:	a0446160 	sb	a0,24928(v0)
9d008268:	3c02bf80 	lui	v0,0xbf80
9d00826c:	94446400 	lhu	a0,25600(v0)
9d008270:	7c0418c4 	ins	a0,zero,0x3,0x1
9d008274:	a4446400 	sh	a0,25600(v0)
9d008278:	24060014 	li	a2,20
9d00827c:	3c04bf80 	lui	a0,0xbf80
9d008280:	ac866440 	sw	a2,25664(a0)
9d008284:	94446400 	lhu	a0,25600(v0)
9d008288:	7c041044 	ins	a0,zero,0x1,0x2
9d00828c:	a4446400 	sh	a0,25600(v0)
9d008290:	94446400 	lhu	a0,25600(v0)
9d008294:	7c040004 	ins	a0,zero,0x0,0x1
9d008298:	a4446400 	sh	a0,25600(v0)
9d00829c:	3c04bf80 	lui	a0,0xbf80
9d0082a0:	8c866410 	lw	a2,25616(a0)
9d0082a4:	7c665284 	ins	a2,v1,0xa,0x1
9d0082a8:	ac866410 	sw	a2,25616(a0)
9d0082ac:	8c866410 	lw	a2,25616(a0)
9d0082b0:	7c666304 	ins	a2,v1,0xc,0x1
9d0082b4:	ac866410 	sw	a2,25616(a0)
9d0082b8:	94446400 	lhu	a0,25600(v0)
9d0082bc:	7ca44a04 	ins	a0,a1,0x8,0x2
9d0082c0:	a4446400 	sh	a0,25600(v0)
9d0082c4:	94446400 	lhu	a0,25600(v0)
9d0082c8:	7c647bc4 	ins	a0,v1,0xf,0x1
9d0082cc:	a4446400 	sh	a0,25600(v0)
9d0082d0:	41626020 	ei	v0
9d0082d4:	8fbf0004 	lw	ra,4(sp)
9d0082d8:	03e00008 	jr	ra
9d0082dc:	27bd0008 	addiu	sp,sp,8

9d0082e0 <NU32_ReadUART3>:
9d0082e0:	00003021 	move	a2,zero
9d0082e4:	3c03bf80 	lui	v1,0xbf80
9d0082e8:	3c08bf80 	lui	t0,0xbf80
9d0082ec:	2407000a 	li	a3,10
9d0082f0:	0b4020cc 	j	9d008330 <NU32_ReadUART3+0x50>
9d0082f4:	2409000d 	li	t1,13
9d0082f8:	8c626410 	lw	v0,25616(v1)
9d0082fc:	30420001 	andi	v0,v0,0x1
9d008300:	1040fffd 	beqz	v0,9d0082f8 <NU32_ReadUART3+0x18>
9d008304:	00000000 	nop
9d008308:	8d026430 	lw	v0,25648(t0)
9d00830c:	7c021420 	seb	v0,v0
9d008310:	5047000e 	beql	v0,a3,9d00834c <NU32_ReadUART3+0x6c>
9d008314:	00862021 	addu	a0,a0,a2
9d008318:	1049000b 	beq	v0,t1,9d008348 <NU32_ReadUART3+0x68>
9d00831c:	00865021 	addu	t2,a0,a2
9d008320:	a1420000 	sb	v0,0(t2)
9d008324:	24c60001 	addiu	a2,a2,1
9d008328:	00c5102a 	slt	v0,a2,a1
9d00832c:	0002300a 	movz	a2,zero,v0
9d008330:	8c626410 	lw	v0,25616(v1)
9d008334:	30420001 	andi	v0,v0,0x1
9d008338:	1040ffef 	beqz	v0,9d0082f8 <NU32_ReadUART3+0x18>
9d00833c:	00000000 	nop
9d008340:	0b4020c2 	j	9d008308 <NU32_ReadUART3+0x28>
9d008344:	00000000 	nop
9d008348:	00862021 	addu	a0,a0,a2
9d00834c:	03e00008 	jr	ra
9d008350:	a0800000 	sb	zero,0(a0)

9d008354 <NU32_WriteUART3>:
9d008354:	80850000 	lb	a1,0(a0)
9d008358:	10a0000b 	beqz	a1,9d008388 <NU32_WriteUART3+0x34>
9d00835c:	3c03bf80 	lui	v1,0xbf80
9d008360:	3c06bf80 	lui	a2,0xbf80
9d008364:	8c626410 	lw	v0,25616(v1)
9d008368:	30420200 	andi	v0,v0,0x200
9d00836c:	1440fffd 	bnez	v0,9d008364 <NU32_WriteUART3+0x10>
9d008370:	00000000 	nop
9d008374:	acc56420 	sw	a1,25632(a2)
9d008378:	24840001 	addiu	a0,a0,1
9d00837c:	80850000 	lb	a1,0(a0)
9d008380:	14a0fff8 	bnez	a1,9d008364 <NU32_WriteUART3+0x10>
9d008384:	00000000 	nop
9d008388:	03e00008 	jr	ra
9d00838c:	00000000 	nop

Disassembly of section .text.fp32mul:

9d008390 <__mulsf3>:
9d008390:	00043dc2 30e700ff 00054dc2 312900ff     .=.....0.M....)1
9d0083a0:	3c0a8000 00043200 00ca3025 00054200     ...<.2..%0...B..
9d0083b0:	010a4025 00856026 014c5024 24ecffff     %@..&`..$PL....$
9d0083c0:	2d8100fe 10200021 00000000              ...-!. .....

9d0083cc <Clab1>:
9d0083cc:	252cffff 	addiu	t4,t1,-1
9d0083d0:	2d8100fe 	sltiu	at,t4,254
9d0083d4:	10200036 	beqz	at,9d0084b0 <CspecB>
9d0083d8:	00000000 	nop

9d0083dc <Clab2>:
9d0083dc:	00c80019 	multu	a2,t0
9d0083e0:	00005812 	mflo	t3
9d0083e4:	11600002 	beqz	t3,9d0083f0 <i17>
9d0083e8:	00003010 	mfhi	a2
9d0083ec:	34c60001 	ori	a2,a2,0x1

9d0083f0 <i17>:
9d0083f0:	04c00003 	bltz	a2,9d008400 <i18>
9d0083f4:	00000000 	nop
9d0083f8:	00063040 	sll	a2,a2,0x1
9d0083fc:	24e7ffff 	addiu	a3,a3,-1

9d008400 <i18>:
9d008400:	252cff82 	addiu	t4,t1,-126
9d008404:	00ec3821 	addu	a3,a3,t4
9d008408:	24ecffff 	addiu	t4,a3,-1
9d00840c:	2d8100fe 	sltiu	at,t4,254
9d008410:	1020003a 	beqz	at,9d0084fc <Coveund>
9d008414:	00000000 	nop

9d008418 <Clab8>:
9d008418:	24c60080 	addiu	a2,a2,128
9d00841c:	2ccc0080 	sltiu	t4,a2,128
9d008420:	00ec3821 	addu	a3,a3,t4
9d008424:	00066202 	srl	t4,a2,0x8
9d008428:	318c0001 	andi	t4,t4,0x1
9d00842c:	00cc3023 	subu	a2,a2,t4
9d008430:	00063040 	sll	a2,a2,0x1
9d008434:	00063242 	srl	a2,a2,0x9
9d008438:	000765c0 	sll	t4,a3,0x17
9d00843c:	00cc3025 	or	a2,a2,t4
9d008440:	00ca1025 	or	v0,a2,t2

9d008444 <C999>:
9d008444:	03e00008 	jr	ra
9d008448:	00000000 	nop

9d00844c <CspecA>:
9d00844c:	14e0000d 	bnez	a3,9d008484 <i19>
9d008450:	00000000 	nop
9d008454:	00c63021 	addu	a2,a2,a2
9d008458:	10c00005 	beqz	a2,9d008470 <i20>
9d00845c:	00000000 	nop
9d008460:	70cb5820 	clz	t3,a2
9d008464:	00eb3823 	subu	a3,a3,t3
9d008468:	1000ffd8 	b	9d0083cc <Clab1>
9d00846c:	01663004 	sllv	a2,a2,t3

9d008470 <i20>:
9d008470:	240100ff 	li	at,255
9d008474:	1121001f 	beq	t1,at,9d0084f4 <Cnan>
9d008478:	00000000 	nop
9d00847c:	10000015 	b	9d0084d4 <Czer>
9d008480:	00000000 	nop

9d008484 <i19>:
9d008484:	00c66021 	addu	t4,a2,a2
9d008488:	1580001a 	bnez	t4,9d0084f4 <Cnan>
9d00848c:	00000000 	nop
9d008490:	15200004 	bnez	t1,9d0084a4 <i21>
9d008494:	00000000 	nop
9d008498:	01086021 	addu	t4,t0,t0
9d00849c:	11800015 	beqz	t4,9d0084f4 <Cnan>
9d0084a0:	00000000 	nop

9d0084a4 <i21>:
9d0084a4:	240100ff 	li	at,255
9d0084a8:	1521000f 	bne	t1,at,9d0084e8 <Cinf>
9d0084ac:	00000000 	nop

9d0084b0 <CspecB>:
9d0084b0:	1520000a 	bnez	t1,9d0084dc <i22>
9d0084b4:	00000000 	nop
9d0084b8:	01084021 	addu	t0,t0,t0
9d0084bc:	11000005 	beqz	t0,9d0084d4 <Czer>
9d0084c0:	00000000 	nop
9d0084c4:	710b5820 	clz	t3,t0
9d0084c8:	012b4823 	subu	t1,t1,t3
9d0084cc:	1000ffc3 	b	9d0083dc <Clab2>
9d0084d0:	01684004 	sllv	t0,t0,t3

9d0084d4 <Czer>:
9d0084d4:	1000ffdb 	b	9d008444 <C999>
9d0084d8:	000a1025 	or	v0,zero,t2

9d0084dc <i22>:
9d0084dc:	01086021 	addu	t4,t0,t0
9d0084e0:	15800004 	bnez	t4,9d0084f4 <Cnan>
9d0084e4:	00000000 	nop

9d0084e8 <Cinf>:
9d0084e8:	3c017f80 	lui	at,0x7f80
9d0084ec:	1000ffd5 	b	9d008444 <C999>
9d0084f0:	01411025 	or	v0,t2,at

9d0084f4 <Cnan>:
9d0084f4:	1000ffd3 	b	9d008444 <C999>
9d0084f8:	3c02ffc0 	lui	v0,0xffc0

9d0084fc <Coveund>:
9d0084fc:	1ce0fffa 	bgtz	a3,9d0084e8 <Cinf>
9d008500:	00000000 	nop
9d008504:	240b0001 	li	t3,1
9d008508:	01675823 	subu	t3,t3,a3
9d00850c:	2d610020 	sltiu	at,t3,32
9d008510:	1020fff0 	beqz	at,9d0084d4 <Czer>
9d008514:	00000000 	nop
9d008518:	240c0020 	li	t4,32
9d00851c:	018b6023 	subu	t4,t4,t3
9d008520:	01863804 	sllv	a3,a2,t4
9d008524:	10e00002 	beqz	a3,9d008530 <i25>
9d008528:	01663006 	srlv	a2,a2,t3
9d00852c:	34c60002 	ori	a2,a2,0x2

9d008530 <i25>:
9d008530:	24070000 	li	a3,0
9d008534:	24cc0080 	addiu	t4,a2,128
9d008538:	0581ffb7 	bgez	t4,9d008418 <Clab8>
9d00853c:	00000000 	nop
9d008540:	1000ffb5 	b	9d008418 <Clab8>
9d008544:	24070001 	li	a3,1
9d008548:	00000000 	nop

Disassembly of section .text.__ldexp:

9d00854c <__ldexp>:
9d00854c:	27bdffe0 	addiu	sp,sp,-32

9d008550 <.LCFI0>:
9d008550:	afbf001c 	sw	ra,28(sp)
9d008554:	afb20018 	sw	s2,24(sp)
9d008558:	afb10014 	sw	s1,20(sp)
9d00855c:	afb00010 	sw	s0,16(sp)
9d008560:	7ca75500 	ext	a3,a1,0x14,0xb
9d008564:	24e2ffff 	addiu	v0,a3,-1
9d008568:	7ca89800 	ext	t0,a1,0x0,0x14
9d00856c:	2c4907fe 	sltiu	t1,v0,2046
9d008570:	00c08821 	move	s1,a2
9d008574:	000587c2 	srl	s0,a1,0x1f
9d008578:	00801021 	move	v0,a0
9d00857c:	11200041 	beqz	t1,9d008684 <.LCFI0+0x134>
9d008580:	01001821 	move	v1,t0
9d008584:	24e7fc01 	addiu	a3,a3,-1023
9d008588:	3c040010 	lui	a0,0x10
9d00858c:	01041825 	or	v1,t0,a0
9d008590:	00f13821 	addu	a3,a3,s1
9d008594:	00022f42 	srl	a1,v0,0x1d
9d008598:	000318c0 	sll	v1,v1,0x3
9d00859c:	24e403ff 	addiu	a0,a3,1023
9d0085a0:	00a31825 	or	v1,a1,v1
9d0085a4:	18800025 	blez	a0,9d00863c <.LCFI0+0xec>
9d0085a8:	000210c0 	sll	v0,v0,0x3
9d0085ac:	30450007 	andi	a1,v0,0x7
9d0085b0:	14a00015 	bnez	a1,9d008608 <.LCFI0+0xb8>
9d0085b4:	7c4500c0 	ext	a1,v0,0x3,0x1
9d0085b8:	00033740 	sll	a2,v1,0x1d
9d0085bc:	000210c2 	srl	v0,v0,0x3
9d0085c0:	288507ff 	slti	a1,a0,2047
9d0085c4:	00c21025 	or	v0,a2,v0
9d0085c8:	10a00036 	beqz	a1,9d0086a4 <.LCFI0+0x154>
9d0085cc:	000318c2 	srl	v1,v1,0x3
9d0085d0:	7c650500 	ext	a1,v1,0x14,0x1
9d0085d4:	50a00002 	beqzl	a1,9d0085e0 <.LCFI0+0x90>
9d0085d8:	00002021 	move	a0,zero
9d0085dc:	7c639800 	ext	v1,v1,0x0,0x14
9d0085e0:	001082c0 	sll	s0,s0,0xb
9d0085e4:	00902025 	or	a0,a0,s0
9d0085e8:	00042500 	sll	a0,a0,0x14
9d0085ec:	00831825 	or	v1,a0,v1
9d0085f0:	8fbf001c 	lw	ra,28(sp)
9d0085f4:	8fb20018 	lw	s2,24(sp)
9d0085f8:	8fb10014 	lw	s1,20(sp)
9d0085fc:	8fb00010 	lw	s0,16(sp)
9d008600:	03e00008 	jr	ra
9d008604:	27bd0020 	addiu	sp,sp,32
9d008608:	24a50003 	addiu	a1,a1,3
9d00860c:	00452821 	addu	a1,v0,a1
9d008610:	00a2102b 	sltu	v0,a1,v0
9d008614:	00431821 	addu	v1,v0,v1
9d008618:	7c660600 	ext	a2,v1,0x18,0x1
9d00861c:	10c0ffe6 	beqz	a2,9d0085b8 <.LCFI0+0x68>
9d008620:	00a01021 	move	v0,a1
9d008624:	00032fc0 	sll	a1,v1,0x1f
9d008628:	00021042 	srl	v0,v0,0x1
9d00862c:	00a21025 	or	v0,a1,v0
9d008630:	00031842 	srl	v1,v1,0x1
9d008634:	0b40216e 	j	9d0085b8 <.LCFI0+0x68>
9d008638:	24840001 	addiu	a0,a0,1
9d00863c:	2406fc02 	li	a2,-1022
9d008640:	00c73023 	subu	a2,a2,a3
9d008644:	28c40038 	slti	a0,a2,56
9d008648:	5080001b 	beqzl	a0,9d0086b8 <.LCFI0+0x168>
9d00864c:	00001021 	move	v0,zero
9d008650:	00062023 	negu	a0,a2
9d008654:	30850020 	andi	a1,a0,0x20
9d008658:	14a00003 	bnez	a1,9d008668 <.LCFI0+0x118>
9d00865c:	00828804 	sllv	s1,v0,a0
9d008660:	00832004 	sllv	a0,v1,a0
9d008664:	00828825 	or	s1,a0,v0
9d008668:	00402021 	move	a0,v0
9d00866c:	0f402894 	jal	9d00a250 <__lshrdi3>
9d008670:	00602821 	move	a1,v1
9d008674:	0011882b 	sltu	s1,zero,s1
9d008678:	02221025 	or	v0,s1,v0
9d00867c:	0b40216b 	j	9d0085ac <.LCFI0+0x5c>
9d008680:	24040001 	li	a0,1
9d008684:	54e00005 	bnezl	a3,9d00869c <.LCFI0+0x14c>
9d008688:	00801021 	move	v0,a0
9d00868c:	01043025 	or	a2,t0,a0
9d008690:	14c0000c 	bnez	a2,9d0086c4 <.LCFI0+0x174>
9d008694:	00000000 	nop
9d008698:	00801021 	move	v0,a0
9d00869c:	0b40217c 	j	9d0085f0 <.LCFI0+0xa0>
9d0086a0:	00a01821 	move	v1,a1
9d0086a4:	00101ac0 	sll	v1,s0,0xb
9d0086a8:	346307ff 	ori	v1,v1,0x7ff
9d0086ac:	00031d00 	sll	v1,v1,0x14
9d0086b0:	0b40217c 	j	9d0085f0 <.LCFI0+0xa0>
9d0086b4:	00001021 	move	v0,zero
9d0086b8:	00001821 	move	v1,zero
9d0086bc:	0b402178 	j	9d0085e0 <.LCFI0+0x90>
9d0086c0:	00002021 	move	a0,zero
9d0086c4:	15000003 	bnez	t0,9d0086d4 <.LCFI0+0x184>
9d0086c8:	71129020 	clz	s2,t0
9d0086cc:	70929020 	clz	s2,a0
9d0086d0:	26520020 	addiu	s2,s2,32
9d0086d4:	2646fff5 	addiu	a2,s2,-11
9d0086d8:	10c0ffad 	beqz	a2,9d008590 <.LCFI0+0x40>
9d0086dc:	2407fc02 	li	a3,-1022
9d0086e0:	0f4028a4 	jal	9d00a290 <__ashldi3>
9d0086e4:	01002821 	move	a1,t0
9d0086e8:	2407fc0d 	li	a3,-1011
9d0086ec:	0b402164 	j	9d008590 <.LCFI0+0x40>
9d0086f0:	00f23823 	subu	a3,a3,s2

Disassembly of section .text._sbrk_init:

9d0086f4 <_sbrk_init>:
9d0086f4:	27bdffd8 	addiu	sp,sp,-40

9d0086f8 <.LCFI0>:
9d0086f8:	afbf0024 	sw	ra,36(sp)
9d0086fc:	afb40020 	sw	s4,32(sp)
9d008700:	afb3001c 	sw	s3,28(sp)
9d008704:	afb20018 	sw	s2,24(sp)
9d008708:	afb10014 	sw	s1,20(sp)
9d00870c:	afb00010 	sw	s0,16(sp)
9d008710:	3c10a000 	lui	s0,0xa000
9d008714:	8e021bbc 	lw	v0,7100(s0)
9d008718:	10400009 	beqz	v0,9d008740 <.LCFI0+0x48>
9d00871c:	3c12a000 	lui	s2,0xa000
9d008720:	8fbf0024 	lw	ra,36(sp)
9d008724:	8fb40020 	lw	s4,32(sp)
9d008728:	8fb3001c 	lw	s3,28(sp)
9d00872c:	8fb20018 	lw	s2,24(sp)
9d008730:	8fb10014 	lw	s1,20(sp)
9d008734:	8fb00010 	lw	s0,16(sp)
9d008738:	03e00008 	jr	ra
9d00873c:	27bd0028 	addiu	sp,sp,40
9d008740:	8e431bc4 	lw	v1,7108(s2)
9d008744:	5060003d 	beqzl	v1,9d00883c <.LCFI0+0x144>
9d008748:	3c03a000 	lui	v1,0xa000
9d00874c:	3c13a000 	lui	s3,0xa000
9d008750:	8e621bc0 	lw	v0,7104(s3)
9d008754:	5040003b 	beqzl	v0,9d008844 <.LCFI0+0x14c>
9d008758:	3c040000 	lui	a0,0x0
9d00875c:	00038f82 	srl	s1,v1,0x1e
9d008760:	0002a782 	srl	s4,v0,0x1e
9d008764:	7c65e000 	ext	a1,v1,0x0,0x1d
9d008768:	3a310002 	xori	s1,s1,0x2
9d00876c:	7c44e000 	ext	a0,v0,0x0,0x1d
9d008770:	3a940002 	xori	s4,s4,0x2
9d008774:	00b1180a 	movz	v1,a1,s1
9d008778:	00608821 	move	s1,v1
9d00877c:	0094100a 	movz	v0,a0,s4
9d008780:	0f4028fe 	jal	9d00a3f8 <_stub_sbd_memlayout>
9d008784:	0040a021 	move	s4,v0
9d008788:	8c430000 	lw	v1,0(v0)
9d00878c:	8c440004 	lw	a0,4(v0)
9d008790:	0223102b 	sltu	v0,s1,v1
9d008794:	10400024 	beqz	v0,9d008828 <.LCFI0+0x130>
9d008798:	00642021 	addu	a0,v1,a0
9d00879c:	3c02a000 	lui	v0,0xa000
9d0087a0:	24420024 	addiu	v0,v0,36
9d0087a4:	7c42e000 	ext	v0,v0,0x0,0x1d
9d0087a8:	0062102b 	sltu	v0,v1,v0
9d0087ac:	1440ffdd 	bnez	v0,9d008724 <.LCFI0+0x2c>
9d0087b0:	8fbf0024 	lw	ra,36(sp)
9d0087b4:	0283102b 	sltu	v0,s4,v1
9d0087b8:	14400005 	bnez	v0,9d0087d0 <.LCFI0+0xd8>
9d0087bc:	0064102b 	sltu	v0,v1,a0
9d0087c0:	0284102b 	sltu	v0,s4,a0
9d0087c4:	54400004 	bnezl	v0,9d0087d8 <.LCFI0+0xe0>
9d0087c8:	02802021 	move	a0,s4
9d0087cc:	0064102b 	sltu	v0,v1,a0
9d0087d0:	1040ffd4 	beqz	v0,9d008724 <.LCFI0+0x2c>
9d0087d4:	8fbf0024 	lw	ra,36(sp)
9d0087d8:	3c02a000 	lui	v0,0xa000
9d0087dc:	24420024 	addiu	v0,v0,36
9d0087e0:	00021742 	srl	v0,v0,0x1d
9d0087e4:	24050005 	li	a1,5
9d0087e8:	1445001b 	bne	v0,a1,9d008858 <.LCFI0+0x160>
9d0087ec:	24050004 	li	a1,4
9d0087f0:	3c02a000 	lui	v0,0xa000
9d0087f4:	00621825 	or	v1,v1,v0
9d0087f8:	00822025 	or	a0,a0,v0
9d0087fc:	ae431bc4 	sw	v1,7108(s2)
9d008800:	ae641bc0 	sw	a0,7104(s3)
9d008804:	ae031bbc 	sw	v1,7100(s0)
9d008808:	8fbf0024 	lw	ra,36(sp)
9d00880c:	8fb40020 	lw	s4,32(sp)
9d008810:	8fb3001c 	lw	s3,28(sp)
9d008814:	8fb20018 	lw	s2,24(sp)
9d008818:	8fb10014 	lw	s1,20(sp)
9d00881c:	8fb00010 	lw	s0,16(sp)
9d008820:	03e00008 	jr	ra
9d008824:	27bd0028 	addiu	sp,sp,40
9d008828:	0224102b 	sltu	v0,s1,a0
9d00882c:	1040ffdc 	beqz	v0,9d0087a0 <.LCFI0+0xa8>
9d008830:	3c02a000 	lui	v0,0xa000
9d008834:	0b4021ed 	j	9d0087b4 <.LCFI0+0xbc>
9d008838:	02201821 	move	v1,s1
9d00883c:	0b4021d3 	j	9d00874c <.LCFI0+0x54>
9d008840:	24631bf8 	addiu	v1,v1,7160
9d008844:	24840000 	addiu	a0,a0,0
9d008848:	3c02a000 	lui	v0,0xa000
9d00884c:	24421bf8 	addiu	v0,v0,7160
9d008850:	0b4021d7 	j	9d00875c <.LCFI0+0x64>
9d008854:	00441021 	addu	v0,v0,a0
9d008858:	14450007 	bne	v0,a1,9d008878 <.LCFI0+0x180>
9d00885c:	3c028000 	lui	v0,0x8000
9d008860:	00621825 	or	v1,v1,v0
9d008864:	00821025 	or	v0,a0,v0
9d008868:	ae431bc4 	sw	v1,7108(s2)
9d00886c:	ae621bc0 	sw	v0,7104(s3)
9d008870:	0b402202 	j	9d008808 <.LCFI0+0x110>
9d008874:	ae031bbc 	sw	v1,7100(s0)
9d008878:	ae441bc4 	sw	a0,7108(s2)
9d00887c:	00801821 	move	v1,a0
9d008880:	0b402202 	j	9d008808 <.LCFI0+0x110>
9d008884:	ae031bbc 	sw	v1,7100(s0)

Disassembly of section .text._outcnvrt:

9d008888 <_outcnvrt>:
9d008888:	27bdffc8 	addiu	sp,sp,-56
9d00888c:	afbf0034 	sw	ra,52(sp)
9d008890:	afb70030 	sw	s7,48(sp)
9d008894:	afb6002c 	sw	s6,44(sp)
9d008898:	afb50028 	sw	s5,40(sp)
9d00889c:	afb40024 	sw	s4,36(sp)
9d0088a0:	afb30020 	sw	s3,32(sp)
9d0088a4:	afb2001c 	sw	s2,28(sp)
9d0088a8:	afb10018 	sw	s1,24(sp)
9d0088ac:	afb00014 	sw	s0,20(sp)
9d0088b0:	00808821 	move	s1,a0
9d0088b4:	00a08021 	move	s0,a1
9d0088b8:	97b70048 	lhu	s7,72(sp)
9d0088bc:	32f70008 	andi	s7,s7,0x8
9d0088c0:	32f7ffff 	andi	s7,s7,0xffff
9d0088c4:	00c0a021 	move	s4,a2
9d0088c8:	00e0a821 	move	s5,a3
9d0088cc:	16e00003 	bnez	s7,9d0088dc <_outcnvrt+0x54>
9d0088d0:	00c7b02a 	slt	s6,a2,a3
9d0088d4:	16c0002a 	bnez	s6,9d008980 <_outcnvrt+0xf8>
9d0088d8:	00000000 	nop
9d0088dc:	02149021 	addu	s2,s0,s4
9d0088e0:	0b40223f 	j	9d0088fc <_outcnvrt+0x74>
9d0088e4:	2413ffff 	li	s3,-1
9d0088e8:	26100001 	addiu	s0,s0,1
9d0088ec:	0f402582 	jal	9d009608 <fputc>
9d0088f0:	8204ffff 	lb	a0,-1(s0)
9d0088f4:	10530007 	beq	v0,s3,9d008914 <_outcnvrt+0x8c>
9d0088f8:	02a01021 	move	v0,s5
9d0088fc:	1612fffa 	bne	s0,s2,9d0088e8 <_outcnvrt+0x60>
9d008900:	02202821 	move	a1,s1
9d008904:	12e00003 	beqz	s7,9d008914 <_outcnvrt+0x8c>
9d008908:	02a01021 	move	v0,s5
9d00890c:	56c0000d 	bnezl	s6,9d008944 <_outcnvrt+0xbc>
9d008910:	02202021 	move	a0,s1
9d008914:	0296100a 	movz	v0,s4,s6
9d008918:	8fbf0034 	lw	ra,52(sp)
9d00891c:	8fb70030 	lw	s7,48(sp)
9d008920:	8fb6002c 	lw	s6,44(sp)
9d008924:	8fb50028 	lw	s5,40(sp)
9d008928:	8fb40024 	lw	s4,36(sp)
9d00892c:	8fb30020 	lw	s3,32(sp)
9d008930:	8fb2001c 	lw	s2,28(sp)
9d008934:	8fb10018 	lw	s1,24(sp)
9d008938:	8fb00014 	lw	s0,20(sp)
9d00893c:	03e00008 	jr	ra
9d008940:	27bd0038 	addiu	sp,sp,56
9d008944:	0f402557 	jal	9d00955c <.LFE3>
9d008948:	02b42823 	subu	a1,s5,s4
9d00894c:	02a01021 	move	v0,s5
9d008950:	0296100a 	movz	v0,s4,s6
9d008954:	8fbf0034 	lw	ra,52(sp)
9d008958:	8fb70030 	lw	s7,48(sp)
9d00895c:	8fb6002c 	lw	s6,44(sp)
9d008960:	8fb50028 	lw	s5,40(sp)
9d008964:	8fb40024 	lw	s4,36(sp)
9d008968:	8fb30020 	lw	s3,32(sp)
9d00896c:	8fb2001c 	lw	s2,28(sp)
9d008970:	8fb10018 	lw	s1,24(sp)
9d008974:	8fb00014 	lw	s0,20(sp)
9d008978:	03e00008 	jr	ra
9d00897c:	27bd0038 	addiu	sp,sp,56
9d008980:	0f402557 	jal	9d00955c <.LFE3>
9d008984:	00e62823 	subu	a1,a3,a2
9d008988:	2403ffff 	li	v1,-1
9d00898c:	1443ffd3 	bne	v0,v1,9d0088dc <_outcnvrt+0x54>
9d008990:	02a01021 	move	v0,s5
9d008994:	0296100a 	movz	v0,s4,s6
9d008998:	8fbf0034 	lw	ra,52(sp)
9d00899c:	8fb70030 	lw	s7,48(sp)
9d0089a0:	8fb6002c 	lw	s6,44(sp)
9d0089a4:	8fb50028 	lw	s5,40(sp)
9d0089a8:	8fb40024 	lw	s4,36(sp)
9d0089ac:	8fb30020 	lw	s3,32(sp)
9d0089b0:	8fb2001c 	lw	s2,28(sp)
9d0089b4:	8fb10018 	lw	s1,24(sp)
9d0089b8:	8fb00014 	lw	s0,20(sp)
9d0089bc:	03e00008 	jr	ra
9d0089c0:	27bd0038 	addiu	sp,sp,56

Disassembly of section .text.ungetc:

9d0089c4 <ungetc>:
9d0089c4:	27bdffe0 	addiu	sp,sp,-32
9d0089c8:	afbf001c 	sw	ra,28(sp)
9d0089cc:	afb20018 	sw	s2,24(sp)
9d0089d0:	afb10014 	sw	s1,20(sp)
9d0089d4:	afb00010 	sw	s0,16(sp)
9d0089d8:	2412ffff 	li	s2,-1
9d0089dc:	10920028 	beq	a0,s2,9d008a80 <ungetc+0xbc>
9d0089e0:	00808821 	move	s1,a0
9d0089e4:	00a08021 	move	s0,a1
9d0089e8:	8ca20018 	lw	v0,24(a1)
9d0089ec:	00a02021 	move	a0,a1
9d0089f0:	8c420010 	lw	v0,16(v0)
9d0089f4:	0040f809 	jalr	v0
9d0089f8:	24050002 	li	a1,2
9d0089fc:	10400021 	beqz	v0,9d008a84 <ungetc+0xc0>
9d008a00:	2402ffff 	li	v0,-1
9d008a04:	8e020000 	lw	v0,0(s0)
9d008a08:	10520037 	beq	v0,s2,9d008ae8 <ungetc+0x124>
9d008a0c:	00000000 	nop
9d008a10:	8e02000c 	lw	v0,12(s0)
9d008a14:	50400017 	beqzl	v0,9d008a74 <ungetc+0xb0>
9d008a18:	8e030004 	lw	v1,4(s0)
9d008a1c:	8e020004 	lw	v0,4(s0)
9d008a20:	8e030008 	lw	v1,8(s0)
9d008a24:	0062182b 	sltu	v1,v1,v0
9d008a28:	1060001c 	beqz	v1,9d008a9c <ungetc+0xd8>
9d008a2c:	8e030000 	lw	v1,0(s0)
9d008a30:	2442ffff 	addiu	v0,v0,-1
9d008a34:	ae020004 	sw	v0,4(s0)
9d008a38:	24630001 	addiu	v1,v1,1
9d008a3c:	ae030000 	sw	v1,0(s0)
9d008a40:	90430000 	lbu	v1,0(v0)
9d008a44:	54710001 	bnel	v1,s1,9d008a4c <ungetc+0x88>
9d008a48:	a0510000 	sb	s1,0(v0)
9d008a4c:	96030010 	lhu	v1,16(s0)
9d008a50:	02201021 	move	v0,s1
9d008a54:	7c032944 	ins	v1,zero,0x5,0x1
9d008a58:	a6030010 	sh	v1,16(s0)
9d008a5c:	8fbf001c 	lw	ra,28(sp)
9d008a60:	8fb20018 	lw	s2,24(sp)
9d008a64:	8fb10014 	lw	s1,20(sp)
9d008a68:	8fb00010 	lw	s0,16(sp)
9d008a6c:	03e00008 	jr	ra
9d008a70:	27bd0020 	addiu	sp,sp,32
9d008a74:	2402ffff 	li	v0,-1
9d008a78:	50620011 	beql	v1,v0,9d008ac0 <ungetc+0xfc>
9d008a7c:	96030010 	lhu	v1,16(s0)
9d008a80:	2402ffff 	li	v0,-1
9d008a84:	8fbf001c 	lw	ra,28(sp)
9d008a88:	8fb20018 	lw	s2,24(sp)
9d008a8c:	8fb10014 	lw	s1,20(sp)
9d008a90:	8fb00010 	lw	s0,16(sp)
9d008a94:	03e00008 	jr	ra
9d008a98:	27bd0020 	addiu	sp,sp,32
9d008a9c:	5060ffe7 	beqzl	v1,9d008a3c <ungetc+0x78>
9d008aa0:	24630001 	addiu	v1,v1,1
9d008aa4:	02201021 	move	v0,s1
9d008aa8:	8fbf001c 	lw	ra,28(sp)
9d008aac:	8fb20018 	lw	s2,24(sp)
9d008ab0:	8fb10014 	lw	s1,20(sp)
9d008ab4:	8fb00010 	lw	s0,16(sp)
9d008ab8:	03e00008 	jr	ra
9d008abc:	27bd0020 	addiu	sp,sp,32
9d008ac0:	ae110004 	sw	s1,4(s0)
9d008ac4:	02201021 	move	v0,s1
9d008ac8:	7c032944 	ins	v1,zero,0x5,0x1
9d008acc:	a6030010 	sh	v1,16(s0)
9d008ad0:	8fbf001c 	lw	ra,28(sp)
9d008ad4:	8fb20018 	lw	s2,24(sp)
9d008ad8:	8fb10014 	lw	s1,20(sp)
9d008adc:	8fb00010 	lw	s0,16(sp)
9d008ae0:	03e00008 	jr	ra
9d008ae4:	27bd0020 	addiu	sp,sp,32
9d008ae8:	0f402651 	jal	9d009944 <_i_init>
9d008aec:	02002021 	move	a0,s0
9d008af0:	0b402285 	j	9d008a14 <ungetc+0x50>
9d008af4:	8e02000c 	lw	v0,12(s0)

Disassembly of section .text.putget.2780:

9d008af8 <putget.2780>:
9d008af8:	27bdffe0 	addiu	sp,sp,-32
9d008afc:	afbf001c 	sw	ra,28(sp)
9d008b00:	afb10018 	sw	s1,24(sp)
9d008b04:	afb00014 	sw	s0,20(sp)
9d008b08:	01e08021 	move	s0,t7
9d008b0c:	8de50014 	lw	a1,20(t7)
9d008b10:	8de20010 	lw	v0,16(t7)
9d008b14:	10a20019 	beq	a1,v0,9d008b7c <putget.2780+0x84>
9d008b18:	00808821 	move	s1,a0
9d008b1c:	8de20008 	lw	v0,8(t7)
9d008b20:	24a30001 	addiu	v1,a1,1
9d008b24:	00452821 	addu	a1,v0,a1
9d008b28:	ae030014 	sw	v1,20(s0)
9d008b2c:	1220000d 	beqz	s1,9d008b64 <putget.2780+0x6c>
9d008b30:	a0b10000 	sb	s1,0(a1)
9d008b34:	8e020004 	lw	v0,4(s0)
9d008b38:	1040000a 	beqz	v0,9d008b64 <putget.2780+0x6c>
9d008b3c:	2411ffff 	li	s1,-1
9d008b40:	0f4027a5 	jal	9d009e94 <gsgetc>
9d008b44:	8e040000 	lw	a0,0(s0)
9d008b48:	00408821 	move	s1,v0
9d008b4c:	2402ffff 	li	v0,-1
9d008b50:	12220005 	beq	s1,v0,9d008b68 <putget.2780+0x70>
9d008b54:	02201021 	move	v0,s1
9d008b58:	8e020004 	lw	v0,4(s0)
9d008b5c:	2442ffff 	addiu	v0,v0,-1
9d008b60:	ae020004 	sw	v0,4(s0)
9d008b64:	02201021 	move	v0,s1
9d008b68:	8fbf001c 	lw	ra,28(sp)
9d008b6c:	8fb10018 	lw	s1,24(sp)
9d008b70:	8fb00014 	lw	s0,20(sp)
9d008b74:	03e00008 	jr	ra
9d008b78:	27bd0020 	addiu	sp,sp,32
9d008b7c:	8de4000c 	lw	a0,12(t7)
9d008b80:	24a50080 	addiu	a1,a1,128
9d008b84:	10800007 	beqz	a0,9d008ba4 <putget.2780+0xac>
9d008b88:	ade50010 	sw	a1,16(t7)
9d008b8c:	0f40108e 	jal	9d004238 <realloc>
9d008b90:	00000000 	nop
9d008b94:	ae02000c 	sw	v0,12(s0)
9d008b98:	8e050014 	lw	a1,20(s0)
9d008b9c:	0b4022c8 	j	9d008b20 <putget.2780+0x28>
9d008ba0:	ae020008 	sw	v0,8(s0)
9d008ba4:	0f400d22 	jal	9d003488 <malloc>
9d008ba8:	00a02021 	move	a0,a1
9d008bac:	8e030008 	lw	v1,8(s0)
9d008bb0:	ae02000c 	sw	v0,12(s0)
9d008bb4:	24680080 	addiu	t0,v1,128
9d008bb8:	88670003 	lwl	a3,3(v1)
9d008bbc:	88660007 	lwl	a2,7(v1)
9d008bc0:	8865000b 	lwl	a1,11(v1)
9d008bc4:	8864000f 	lwl	a0,15(v1)
9d008bc8:	98670000 	lwr	a3,0(v1)
9d008bcc:	98660004 	lwr	a2,4(v1)
9d008bd0:	98650008 	lwr	a1,8(v1)
9d008bd4:	9864000c 	lwr	a0,12(v1)
9d008bd8:	24630010 	addiu	v1,v1,16
9d008bdc:	ac470000 	sw	a3,0(v0)
9d008be0:	ac460004 	sw	a2,4(v0)
9d008be4:	ac450008 	sw	a1,8(v0)
9d008be8:	ac44000c 	sw	a0,12(v0)
9d008bec:	1468fff2 	bne	v1,t0,9d008bb8 <putget.2780+0xc0>
9d008bf0:	24420010 	addiu	v0,v0,16
9d008bf4:	8e02000c 	lw	v0,12(s0)
9d008bf8:	8e050014 	lw	a1,20(s0)
9d008bfc:	0b4022c8 	j	9d008b20 <putget.2780+0x28>
9d008c00:	ae020008 	sw	v0,8(s0)

Disassembly of section .rodata:

9d008c04 <_ctype>:
9d008c04:	20202000 20202020 28282020 20282828     .         ((((( 
9d008c14:	20202020 20202020 20202020 20202020                     
9d008c24:	10108020 10101010 10101010 10101010      ...............
9d008c34:	04040410 04040404 10040404 10101010     ................
9d008c44:	41411010 41414141 01010101 01010101     ..AAAAAA........
9d008c54:	01010101 01010101 01010101 10101010     ................
9d008c64:	42421010 42424242 02020202 02020202     ..BBBBBB........
9d008c74:	02020202 02020202 02020202 10101010     ................
9d008c84:	00000020 00000000 00000000 00000000      ...............
	...

Disassembly of section .text.malloc_trim:

9d008d08 <malloc_trim>:
9d008d08:	27bdffe0 	addiu	sp,sp,-32
9d008d0c:	afbf001c 	sw	ra,28(sp)
9d008d10:	afb20018 	sw	s2,24(sp)
9d008d14:	afb10014 	sw	s1,20(sp)
9d008d18:	afb00010 	sw	s0,16(sp)
9d008d1c:	0f4029c5 	jal	9d00a714 <getpagesize>
9d008d20:	00809021 	move	s2,a0
9d008d24:	3c10a000 	lui	s0,0xa000
9d008d28:	2610160c 	addiu	s0,s0,5644
9d008d2c:	8e030008 	lw	v1,8(s0)
9d008d30:	8c710004 	lw	s1,4(v1)
9d008d34:	7c110804 	ins	s1,zero,0x0,0x2
9d008d38:	02322023 	subu	a0,s1,s2
9d008d3c:	2484ffef 	addiu	a0,a0,-17
9d008d40:	00822021 	addu	a0,a0,v0
9d008d44:	0082001b 	divu	zero,a0,v0
9d008d48:	004001f4 	teq	v0,zero,0x7
9d008d4c:	00009012 	mflo	s2
9d008d50:	2652ffff 	addiu	s2,s2,-1
9d008d54:	72429002 	mul	s2,s2,v0
9d008d58:	0242102a 	slt	v0,s2,v0
9d008d5c:	10400008 	beqz	v0,9d008d80 <malloc_trim+0x78>
9d008d60:	00000000 	nop
9d008d64:	00001021 	move	v0,zero
9d008d68:	8fbf001c 	lw	ra,28(sp)
9d008d6c:	8fb20018 	lw	s2,24(sp)
9d008d70:	8fb10014 	lw	s1,20(sp)
9d008d74:	8fb00010 	lw	s0,16(sp)
9d008d78:	03e00008 	jr	ra
9d008d7c:	27bd0020 	addiu	sp,sp,32
9d008d80:	0f402804 	jal	9d00a010 <sbrk>
9d008d84:	00002021 	move	a0,zero
9d008d88:	8e030008 	lw	v1,8(s0)
9d008d8c:	00711821 	addu	v1,v1,s1
9d008d90:	1443fff5 	bne	v0,v1,9d008d68 <malloc_trim+0x60>
9d008d94:	00001021 	move	v0,zero
9d008d98:	0f402804 	jal	9d00a010 <sbrk>
9d008d9c:	00122023 	negu	a0,s2
9d008da0:	2403ffff 	li	v1,-1
9d008da4:	1043000a 	beq	v0,v1,9d008dd0 <malloc_trim+0xc8>
9d008da8:	3c02a000 	lui	v0,0xa000
9d008dac:	8c441b70 	lw	a0,7024(v0)
9d008db0:	8e030008 	lw	v1,8(s0)
9d008db4:	02328823 	subu	s1,s1,s2
9d008db8:	36310001 	ori	s1,s1,0x1
9d008dbc:	00929023 	subu	s2,a0,s2
9d008dc0:	ac710004 	sw	s1,4(v1)
9d008dc4:	ac521b70 	sw	s2,7024(v0)
9d008dc8:	0b40235a 	j	9d008d68 <malloc_trim+0x60>
9d008dcc:	24020001 	li	v0,1
9d008dd0:	0f402804 	jal	9d00a010 <sbrk>
9d008dd4:	00002021 	move	a0,zero
9d008dd8:	8e030008 	lw	v1,8(s0)
9d008ddc:	00432023 	subu	a0,v0,v1
9d008de0:	28850010 	slti	a1,a0,16
9d008de4:	54a0ffe0 	bnezl	a1,9d008d68 <malloc_trim+0x60>
9d008de8:	00001021 	move	v0,zero
9d008dec:	3c05a000 	lui	a1,0xa000
9d008df0:	8ca51604 	lw	a1,5636(a1)
9d008df4:	34840001 	ori	a0,a0,0x1
9d008df8:	00451023 	subu	v0,v0,a1
9d008dfc:	3c05a000 	lui	a1,0xa000
9d008e00:	aca21b70 	sw	v0,7024(a1)
9d008e04:	0b402359 	j	9d008d64 <malloc_trim+0x5c>
9d008e08:	ac640004 	sw	a0,4(v1)

Disassembly of section .text.__ldexpf:

9d008e0c <__ldexpf>:
9d008e0c:	7c863dc0 	ext	a2,a0,0x17,0x8
9d008e10:	24c8ffff 	addiu	t0,a2,-1
9d008e14:	2d0800fe 	sltiu	t0,t0,254
9d008e18:	00044fc2 	srl	t1,a0,0x1f
9d008e1c:	1100002b 	beqz	t0,9d008ecc <__ldexpf+0xc0>
9d008e20:	7c87b000 	ext	a3,a0,0x0,0x17
9d008e24:	24c6ff81 	addiu	a2,a2,-127
9d008e28:	3c020080 	lui	v0,0x80
9d008e2c:	00e21025 	or	v0,a3,v0
9d008e30:	00c53021 	addu	a2,a2,a1
9d008e34:	24c3007f 	addiu	v1,a2,127
9d008e38:	18600018 	blez	v1,9d008e9c <__ldexpf+0x90>
9d008e3c:	000210c0 	sll	v0,v0,0x3
9d008e40:	30440007 	andi	a0,v0,0x7
9d008e44:	1480000d 	bnez	a0,9d008e7c <__ldexpf+0x70>
9d008e48:	7c4400c0 	ext	a0,v0,0x3,0x1
9d008e4c:	286400ff 	slti	a0,v1,255
9d008e50:	10800024 	beqz	a0,9d008ee4 <__ldexpf+0xd8>
9d008e54:	000210c2 	srl	v0,v0,0x3
9d008e58:	7c4405c0 	ext	a0,v0,0x17,0x1
9d008e5c:	50800002 	beqzl	a0,9d008e68 <__ldexpf+0x5c>
9d008e60:	00001821 	move	v1,zero
9d008e64:	7c42b000 	ext	v0,v0,0x0,0x17
9d008e68:	00094a00 	sll	t1,t1,0x8
9d008e6c:	00691825 	or	v1,v1,t1
9d008e70:	00031dc0 	sll	v1,v1,0x17
9d008e74:	03e00008 	jr	ra
9d008e78:	00621025 	or	v0,v1,v0
9d008e7c:	24420003 	addiu	v0,v0,3
9d008e80:	00441021 	addu	v0,v0,a0
9d008e84:	000226c2 	srl	a0,v0,0x1b
9d008e88:	1080fff1 	beqz	a0,9d008e50 <__ldexpf+0x44>
9d008e8c:	286400ff 	slti	a0,v1,255
9d008e90:	00021042 	srl	v0,v0,0x1
9d008e94:	0b402393 	j	9d008e4c <__ldexpf+0x40>
9d008e98:	24630001 	addiu	v1,v1,1
9d008e9c:	2403ff82 	li	v1,-126
9d008ea0:	00661823 	subu	v1,v1,a2
9d008ea4:	2864001b 	slti	a0,v1,27
9d008ea8:	50800012 	beqzl	a0,9d008ef4 <__ldexpf+0xe8>
9d008eac:	00001021 	move	v0,zero
9d008eb0:	24c4009e 	addiu	a0,a2,158
9d008eb4:	00822004 	sllv	a0,v0,a0
9d008eb8:	00621006 	srlv	v0,v0,v1
9d008ebc:	0004182b 	sltu	v1,zero,a0
9d008ec0:	00621025 	or	v0,v1,v0
9d008ec4:	0b402390 	j	9d008e40 <__ldexpf+0x34>
9d008ec8:	24030001 	li	v1,1
9d008ecc:	14c00003 	bnez	a2,9d008edc <__ldexpf+0xd0>
9d008ed0:	00000000 	nop
9d008ed4:	14e00009 	bnez	a3,9d008efc <__ldexpf+0xf0>
9d008ed8:	70e31820 	clz	v1,a3
9d008edc:	03e00008 	jr	ra
9d008ee0:	00801021 	move	v0,a0
9d008ee4:	00091200 	sll	v0,t1,0x8
9d008ee8:	344200ff 	ori	v0,v0,0xff
9d008eec:	03e00008 	jr	ra
9d008ef0:	000215c0 	sll	v0,v0,0x17
9d008ef4:	0b40239a 	j	9d008e68 <__ldexpf+0x5c>
9d008ef8:	00001821 	move	v1,zero
9d008efc:	2462fff8 	addiu	v0,v1,-8
9d008f00:	00471004 	sllv	v0,a3,v0
9d008f04:	2406ff8a 	li	a2,-118
9d008f08:	0b40238c 	j	9d008e30 <__ldexpf+0x24>
9d008f0c:	00c33023 	subu	a2,a2,v1

Disassembly of section .text.dptofp:

9d008f10 <__truncdfsf2>:
9d008f10:	00053ac0 00045d42 00eb3825 000432c0     .:..B]..%8...2..
9d008f20:	3c018000 00e13825 3c018000 00a14824     ...<%8.....<$H..
9d008f30:	00054040 00084542 2508fc80 250bffff     @@..BE.....%...%
9d008f40:	2d6100fe 10200012 00000000              ..a-.. .....

9d008f4c <Hlab1>:
9d008f4c:	10c00002 	beqz	a2,9d008f58 <i45>
9d008f50:	00000000 	nop
9d008f54:	34e70001 	ori	a3,a3,0x1

9d008f58 <i45>:
9d008f58:	24e70080 	addiu	a3,a3,128
9d008f5c:	2ceb0080 	sltiu	t3,a3,128
9d008f60:	010b4021 	addu	t0,t0,t3
9d008f64:	00075a02 	srl	t3,a3,0x8
9d008f68:	316b0001 	andi	t3,t3,0x1
9d008f6c:	00eb3823 	subu	a3,a3,t3
9d008f70:	00073840 	sll	a3,a3,0x1
9d008f74:	00073a42 	srl	a3,a3,0x9
9d008f78:	00085dc0 	sll	t3,t0,0x17
9d008f7c:	00eb3825 	or	a3,a3,t3
9d008f80:	00e91025 	or	v0,a3,t1

9d008f84 <H999>:
9d008f84:	03e00008 	jr	ra
9d008f88:	00000000 	nop
9d008f8c:	00000000 	nop

9d008f90 <Hspec>:
9d008f90:	2401047f 	li	at,1151
9d008f94:	15010007 	bne	t0,at,9d008fb4 <i46>
9d008f98:	00000000 	nop
9d008f9c:	00075840 	sll	t3,a3,0x1
9d008fa0:	01665825 	or	t3,t3,a2
9d008fa4:	11600003 	beqz	t3,9d008fb4 <i46>
9d008fa8:	00000000 	nop
9d008fac:	1000fff5 	b	9d008f84 <H999>
9d008fb0:	3c02ffc0 	lui	v0,0xffc0

9d008fb4 <i46>:
9d008fb4:	290100ff 	slti	at,t0,255
9d008fb8:	14200004 	bnez	at,9d008fcc <i48>
9d008fbc:	00000000 	nop
9d008fc0:	3c017f80 	lui	at,0x7f80
9d008fc4:	1000ffef 	b	9d008f84 <H999>
9d008fc8:	01211025 	or	v0,t1,at

9d008fcc <i48>:
9d008fcc:	240a0001 	li	t2,1
9d008fd0:	01485023 	subu	t2,t2,t0
9d008fd4:	2d410020 	sltiu	at,t2,32
9d008fd8:	14200003 	bnez	at,9d008fe8 <i49>
9d008fdc:	00000000 	nop
9d008fe0:	1000ffe8 	b	9d008f84 <H999>
9d008fe4:	00091025 	or	v0,zero,t1

9d008fe8 <i49>:
9d008fe8:	240c0020 	li	t4,32
9d008fec:	018a6023 	subu	t4,t4,t2
9d008ff0:	01875804 	sllv	t3,a3,t4
9d008ff4:	00cb3025 	or	a2,a2,t3
9d008ff8:	01473806 	srlv	a3,a3,t2
9d008ffc:	24080000 	li	t0,0
9d009000:	3c018000 	lui	at,0x8000
9d009004:	1000ffd1 	b	9d008f4c <Hlab1>
9d009008:	00e13825 	or	a3,a3,at
9d00900c:	00000000 	nop

Disassembly of section .text._flsbuf_simple:

9d009010 <_flsbuf_simple>:
9d009010:	27bdffd8 	addiu	sp,sp,-40
9d009014:	afbf0024 	sw	ra,36(sp)
9d009018:	afb10020 	sw	s1,32(sp)
9d00901c:	afb0001c 	sw	s0,28(sp)
9d009020:	00a08021 	move	s0,a1
9d009024:	8ca2000c 	lw	v0,12(a1)
9d009028:	1040002d 	beqz	v0,9d0090e0 <_flsbuf_simple+0xd0>
9d00902c:	00808821 	move	s1,a0
9d009030:	8ca20000 	lw	v0,0(a1)
9d009034:	24420001 	addiu	v0,v0,1
9d009038:	2403ffff 	li	v1,-1
9d00903c:	1043001e 	beq	v0,v1,9d0090b8 <_flsbuf_simple+0xa8>
9d009040:	aca20000 	sw	v0,0(a1)
9d009044:	0f4026bd 	jal	9d009af4 <_fflush_simple>
9d009048:	02002021 	move	a0,s0
9d00904c:	8e040000 	lw	a0,0(s0)
9d009050:	8e020004 	lw	v0,4(s0)
9d009054:	2484ffff 	addiu	a0,a0,-1
9d009058:	24430001 	addiu	v1,v0,1
9d00905c:	ae040000 	sw	a0,0(s0)
9d009060:	ae030004 	sw	v1,4(s0)
9d009064:	a0510000 	sb	s1,0(v0)
9d009068:	2402000a 	li	v0,10
9d00906c:	52220007 	beql	s1,v0,9d00908c <_flsbuf_simple+0x7c>
9d009070:	96020010 	lhu	v0,16(s0)
9d009074:	02201021 	move	v0,s1
9d009078:	8fbf0024 	lw	ra,36(sp)
9d00907c:	8fb10020 	lw	s1,32(sp)
9d009080:	8fb0001c 	lw	s0,28(sp)
9d009084:	03e00008 	jr	ra
9d009088:	27bd0028 	addiu	sp,sp,40
9d00908c:	30420008 	andi	v0,v0,0x8
9d009090:	1040fff9 	beqz	v0,9d009078 <_flsbuf_simple+0x68>
9d009094:	02201021 	move	v0,s1
9d009098:	0f4026bd 	jal	9d009af4 <_fflush_simple>
9d00909c:	02002021 	move	a0,s0
9d0090a0:	02201021 	move	v0,s1
9d0090a4:	8fbf0024 	lw	ra,36(sp)
9d0090a8:	8fb10020 	lw	s1,32(sp)
9d0090ac:	8fb0001c 	lw	s0,28(sp)
9d0090b0:	03e00008 	jr	ra
9d0090b4:	27bd0028 	addiu	sp,sp,40
9d0090b8:	8ca20008 	lw	v0,8(a1)
9d0090bc:	1440ffe1 	bnez	v0,9d009044 <_flsbuf_simple+0x34>
9d0090c0:	00000000 	nop
9d0090c4:	94a20010 	lhu	v0,16(a1)
9d0090c8:	aca00004 	sw	zero,4(a1)
9d0090cc:	aca0000c 	sw	zero,12(a1)
9d0090d0:	34420010 	ori	v0,v0,0x10
9d0090d4:	aca00000 	sw	zero,0(a1)
9d0090d8:	0b402411 	j	9d009044 <_flsbuf_simple+0x34>
9d0090dc:	a4a20010 	sh	v0,16(a1)
9d0090e0:	27a40010 	addiu	a0,sp,16
9d0090e4:	24050001 	li	a1,1
9d0090e8:	0f402818 	jal	9d00a060 <.LFE4>
9d0090ec:	a3b10010 	sb	s1,16(sp)
9d0090f0:	ae000000 	sw	zero,0(s0)
9d0090f4:	02201021 	move	v0,s1
9d0090f8:	8fbf0024 	lw	ra,36(sp)
9d0090fc:	8fb10020 	lw	s1,32(sp)
9d009100:	8fb0001c 	lw	s0,28(sp)
9d009104:	03e00008 	jr	ra
9d009108:	27bd0028 	addiu	sp,sp,40

Disassembly of section .text.strchr:

9d00910c <strchr>:
9d00910c:	30820003 	andi	v0,a0,0x3
9d009110:	14400034 	bnez	v0,9d0091e4 <strchr+0xd8>
9d009114:	30a600ff 	andi	a2,a1,0xff
9d009118:	30a500ff 	andi	a1,a1,0xff
9d00911c:	00054a00 	sll	t1,a1,0x8
9d009120:	8c820000 	lw	v0,0(a0)
9d009124:	01252825 	or	a1,t1,a1
9d009128:	00054c00 	sll	t1,a1,0x10
9d00912c:	01254825 	or	t1,t1,a1
9d009130:	01221826 	xor	v1,t1,v0
9d009134:	3c05fefe 	lui	a1,0xfefe
9d009138:	34a5feff 	ori	a1,a1,0xfeff
9d00913c:	00034027 	nor	t0,zero,v1
9d009140:	00651821 	addu	v1,v1,a1
9d009144:	00023827 	nor	a3,zero,v0
9d009148:	00451021 	addu	v0,v0,a1
9d00914c:	01031824 	and	v1,t0,v1
9d009150:	00e21024 	and	v0,a3,v0
9d009154:	00621025 	or	v0,v1,v0
9d009158:	3c0a8080 	lui	t2,0x8080
9d00915c:	354a8080 	ori	t2,t2,0x8080
9d009160:	004a1024 	and	v0,v0,t2
9d009164:	54400020 	bnezl	v0,9d0091e8 <strchr+0xdc>
9d009168:	90820000 	lbu	v0,0(a0)
9d00916c:	24840004 	addiu	a0,a0,4
9d009170:	8c820000 	lw	v0,0(a0)
9d009174:	01221826 	xor	v1,t1,v0
9d009178:	00034027 	nor	t0,zero,v1
9d00917c:	00651821 	addu	v1,v1,a1
9d009180:	00023827 	nor	a3,zero,v0
9d009184:	00451021 	addu	v0,v0,a1
9d009188:	01031824 	and	v1,t0,v1
9d00918c:	00e21024 	and	v0,a3,v0
9d009190:	00621025 	or	v0,v1,v0
9d009194:	004a1024 	and	v0,v0,t2
9d009198:	54400013 	bnezl	v0,9d0091e8 <strchr+0xdc>
9d00919c:	90820000 	lbu	v0,0(a0)
9d0091a0:	24840004 	addiu	a0,a0,4
9d0091a4:	8c820000 	lw	v0,0(a0)
9d0091a8:	01221826 	xor	v1,t1,v0
9d0091ac:	00034027 	nor	t0,zero,v1
9d0091b0:	00651821 	addu	v1,v1,a1
9d0091b4:	00023827 	nor	a3,zero,v0
9d0091b8:	00451021 	addu	v0,v0,a1
9d0091bc:	01031824 	and	v1,t0,v1
9d0091c0:	00e21024 	and	v0,a3,v0
9d0091c4:	00621025 	or	v0,v1,v0
9d0091c8:	004a1024 	and	v0,v0,t2
9d0091cc:	5040ffe8 	beqzl	v0,9d009170 <strchr+0x64>
9d0091d0:	24840004 	addiu	a0,a0,4
9d0091d4:	0b40247a 	j	9d0091e8 <strchr+0xdc>
9d0091d8:	90820000 	lbu	v0,0(a0)
9d0091dc:	10400006 	beqz	v0,9d0091f8 <strchr+0xec>
9d0091e0:	24840001 	addiu	a0,a0,1
9d0091e4:	90820000 	lbu	v0,0(a0)
9d0091e8:	1446fffc 	bne	v0,a2,9d0091dc <strchr+0xd0>
9d0091ec:	00000000 	nop
9d0091f0:	03e00008 	jr	ra
9d0091f4:	00801021 	move	v0,a0
9d0091f8:	03e00008 	jr	ra
9d0091fc:	00001021 	move	v0,zero

Disassembly of section .text._mon_getc:

9d009200 <_mon_getc>:
9d009200:	27bdffe8 	addiu	sp,sp,-24

9d009204 <.LCFI0>:
9d009204:	afbf0014 	sw	ra,20(sp)
9d009208:	3c02a000 	lui	v0,0xa000
9d00920c:	8c420004 	lw	v0,4(v0)
9d009210:	1440000a 	bnez	v0,9d00923c <.LCFI0+0x38>
9d009214:	24030002 	li	v1,2
9d009218:	3c020000 	lui	v0,0x0
9d00921c:	24420000 	addiu	v0,v0,0
9d009220:	10400029 	beqz	v0,9d0092c8 <.LCFI0+0xc4>
9d009224:	3c020000 	lui	v0,0x0
9d009228:	0c000000 	jal	90000000 <_bmxdudba_address+0x8ffe0000>
9d00922c:	00000000 	nop
9d009230:	8fbf0014 	lw	ra,20(sp)
9d009234:	03e00008 	jr	ra
9d009238:	27bd0018 	addiu	sp,sp,24
9d00923c:	1043001c 	beq	v0,v1,9d0092b0 <.LCFI0+0xac>
9d009240:	3c02bf80 	lui	v0,0xbf80
9d009244:	3c02bf80 	lui	v0,0xbf80
9d009248:	8c426000 	lw	v0,24576(v0)
9d00924c:	3c05bf80 	lui	a1,0xbf80
9d009250:	24a56030 	addiu	a1,a1,24624
9d009254:	3c04bf80 	lui	a0,0xbf80
9d009258:	24846010 	addiu	a0,a0,24592
9d00925c:	30428000 	andi	v0,v0,0x8000
9d009260:	14400003 	bnez	v0,9d009270 <.LCFI0+0x6c>
9d009264:	34038000 	li	v1,0x8000
9d009268:	3c02bf80 	lui	v0,0xbf80
9d00926c:	ac436008 	sw	v1,24584(v0)
9d009270:	8c820000 	lw	v0,0(a0)
9d009274:	30420001 	andi	v0,v0,0x1
9d009278:	14400009 	bnez	v0,9d0092a0 <.LCFI0+0x9c>
9d00927c:	240200a0 	li	v0,160
9d009280:	0b4024a4 	j	9d009290 <.LCFI0+0x8c>
9d009284:	00000000 	nop
9d009288:	10400005 	beqz	v0,9d0092a0 <.LCFI0+0x9c>
9d00928c:	00000000 	nop
9d009290:	8c830000 	lw	v1,0(a0)
9d009294:	30630001 	andi	v1,v1,0x1
9d009298:	1060fffb 	beqz	v1,9d009288 <.LCFI0+0x84>
9d00929c:	2442ffff 	addiu	v0,v0,-1
9d0092a0:	8ca20000 	lw	v0,0(a1)
9d0092a4:	8fbf0014 	lw	ra,20(sp)
9d0092a8:	03e00008 	jr	ra
9d0092ac:	27bd0018 	addiu	sp,sp,24
9d0092b0:	8c426800 	lw	v0,26624(v0)
9d0092b4:	3c05bf80 	lui	a1,0xbf80
9d0092b8:	24a56830 	addiu	a1,a1,26672
9d0092bc:	3c04bf80 	lui	a0,0xbf80
9d0092c0:	0b402497 	j	9d00925c <.LCFI0+0x58>
9d0092c4:	24846810 	addiu	a0,a0,26640
9d0092c8:	24420000 	addiu	v0,v0,0
9d0092cc:	5040ffde 	beqzl	v0,9d009248 <.LCFI0+0x44>
9d0092d0:	3c02bf80 	lui	v0,0xbf80
9d0092d4:	0c000000 	jal	90000000 <_bmxdudba_address+0x8ffe0000>
9d0092d8:	00000000 	nop
9d0092dc:	0b40248d 	j	9d009234 <.LCFI0+0x30>
9d0092e0:	8fbf0014 	lw	ra,20(sp)

Disassembly of section .text.general_exception:

9d0092e4 <_general_exception_context>:
9d0092e4:	27bdffa8 	addiu	sp,sp,-88
9d0092e8:	afa10004 	sw	at,4(sp)
9d0092ec:	afa20008 	sw	v0,8(sp)
9d0092f0:	afa3000c 	sw	v1,12(sp)
9d0092f4:	afa40010 	sw	a0,16(sp)
9d0092f8:	afa50014 	sw	a1,20(sp)
9d0092fc:	afa60018 	sw	a2,24(sp)
9d009300:	afa7001c 	sw	a3,28(sp)
9d009304:	afa80020 	sw	t0,32(sp)
9d009308:	afa90024 	sw	t1,36(sp)
9d00930c:	afaa0028 	sw	t2,40(sp)
9d009310:	afab002c 	sw	t3,44(sp)
9d009314:	afac0030 	sw	t4,48(sp)
9d009318:	afad0034 	sw	t5,52(sp)
9d00931c:	afae0038 	sw	t6,56(sp)
9d009320:	afaf003c 	sw	t7,60(sp)
9d009324:	afb80040 	sw	t8,64(sp)
9d009328:	afb90044 	sw	t9,68(sp)
9d00932c:	afbf0048 	sw	ra,72(sp)
9d009330:	00004012 	mflo	t0
9d009334:	afa8004c 	sw	t0,76(sp)
9d009338:	00004010 	mfhi	t0
9d00933c:	afa80050 	sw	t0,80(sp)
9d009340:	3c1a9d01 	lui	k0,0x9d01
9d009344:	275aa0f4 	addiu	k0,k0,-24332
9d009348:	00000000 	nop
9d00934c:	40046800 	mfc0	a0,c0_cause
9d009350:	40056000 	mfc0	a1,c0_status
9d009354:	0340f809 	jalr	k0
9d009358:	00000000 	nop
9d00935c:	8fa80050 	lw	t0,80(sp)
9d009360:	01000011 	mthi	t0
9d009364:	8fa8004c 	lw	t0,76(sp)
9d009368:	01000013 	mtlo	t0
9d00936c:	8fa10004 	lw	at,4(sp)
9d009370:	8fa20008 	lw	v0,8(sp)
9d009374:	8fa3000c 	lw	v1,12(sp)
9d009378:	8fa40010 	lw	a0,16(sp)
9d00937c:	8fa50014 	lw	a1,20(sp)
9d009380:	8fa60018 	lw	a2,24(sp)
9d009384:	8fa7001c 	lw	a3,28(sp)
9d009388:	8fa80020 	lw	t0,32(sp)
9d00938c:	8fa90024 	lw	t1,36(sp)
9d009390:	8faa0028 	lw	t2,40(sp)
9d009394:	8fab002c 	lw	t3,44(sp)
9d009398:	8fac0030 	lw	t4,48(sp)
9d00939c:	8fad0034 	lw	t5,52(sp)
9d0093a0:	8fae0038 	lw	t6,56(sp)
9d0093a4:	8faf003c 	lw	t7,60(sp)
9d0093a8:	8fb80040 	lw	t8,64(sp)
9d0093ac:	8fb90044 	lw	t9,68(sp)
9d0093b0:	8fbf0048 	lw	ra,72(sp)
9d0093b4:	27bd0058 	addiu	sp,sp,88
9d0093b8:	000000c0 	ehb
9d0093bc:	42000018 	eret

Disassembly of section .text._mon_putc:

9d0093c0 <_mon_putc>:
9d0093c0:	27bdffe8 	addiu	sp,sp,-24

9d0093c4 <.LCFI0>:
9d0093c4:	afbf0014 	sw	ra,20(sp)
9d0093c8:	3c02a000 	lui	v0,0xa000
9d0093cc:	8c420004 	lw	v0,4(v0)
9d0093d0:	1440000a 	bnez	v0,9d0093fc <.LCFI0+0x38>
9d0093d4:	00802821 	move	a1,a0
9d0093d8:	3c020000 	lui	v0,0x0
9d0093dc:	24420000 	addiu	v0,v0,0
9d0093e0:	10400025 	beqz	v0,9d009478 <.LCFI0+0xb4>
9d0093e4:	3c020000 	lui	v0,0x0
9d0093e8:	0c000000 	jal	90000000 <_bmxdudba_address+0x8ffe0000>
9d0093ec:	00000000 	nop
9d0093f0:	8fbf0014 	lw	ra,20(sp)
9d0093f4:	03e00008 	jr	ra
9d0093f8:	27bd0018 	addiu	sp,sp,24
9d0093fc:	24030001 	li	v1,1
9d009400:	10430015 	beq	v0,v1,9d009458 <.LCFI0+0x94>
9d009404:	3c04bf80 	lui	a0,0xbf80
9d009408:	3c04bf80 	lui	a0,0xbf80
9d00940c:	24846820 	addiu	a0,a0,26656
9d009410:	3c02bf80 	lui	v0,0xbf80
9d009414:	24426818 	addiu	v0,v0,26648
9d009418:	3c06bf80 	lui	a2,0xbf80
9d00941c:	24c66808 	addiu	a2,a2,26632
9d009420:	3c03bf80 	lui	v1,0xbf80
9d009424:	24636810 	addiu	v1,v1,26640
9d009428:	34078000 	li	a3,0x8000
9d00942c:	acc70000 	sw	a3,0(a2)
9d009430:	24060400 	li	a2,1024
9d009434:	ac460000 	sw	a2,0(v0)
9d009438:	8c620000 	lw	v0,0(v1)
9d00943c:	30420100 	andi	v0,v0,0x100
9d009440:	1040fffd 	beqz	v0,9d009438 <.LCFI0+0x74>
9d009444:	00000000 	nop
9d009448:	ac850000 	sw	a1,0(a0)
9d00944c:	8fbf0014 	lw	ra,20(sp)
9d009450:	03e00008 	jr	ra
9d009454:	27bd0018 	addiu	sp,sp,24
9d009458:	24846020 	addiu	a0,a0,24608
9d00945c:	3c02bf80 	lui	v0,0xbf80
9d009460:	24426018 	addiu	v0,v0,24600
9d009464:	3c06bf80 	lui	a2,0xbf80
9d009468:	24c66008 	addiu	a2,a2,24584
9d00946c:	3c03bf80 	lui	v1,0xbf80
9d009470:	0b40250a 	j	9d009428 <.LCFI0+0x64>
9d009474:	24636010 	addiu	v1,v1,24592
9d009478:	24420000 	addiu	v0,v0,0
9d00947c:	5040ffe3 	beqzl	v0,9d00940c <.LCFI0+0x48>
9d009480:	3c04bf80 	lui	a0,0xbf80
9d009484:	0c000000 	jal	90000000 <_bmxdudba_address+0x8ffe0000>
9d009488:	00000000 	nop
9d00948c:	0b4024fd 	j	9d0093f4 <.LCFI0+0x30>
9d009490:	8fbf0014 	lw	ra,20(sp)

Disassembly of section .text._sbrk:

9d009494 <_sbrk>:
9d009494:	27bdffe0 	addiu	sp,sp,-32

9d009498 <.LCFI2>:
9d009498:	afbf001c 	sw	ra,28(sp)
9d00949c:	afb00018 	sw	s0,24(sp)
9d0094a0:	3c10a000 	lui	s0,0xa000
9d0094a4:	8e021bbc 	lw	v0,7100(s0)
9d0094a8:	10400010 	beqz	v0,9d0094ec <.LCFI2+0x54>
9d0094ac:	00000000 	nop
9d0094b0:	1880001b 	blez	a0,9d009520 <.LCFI2+0x88>
9d0094b4:	00441821 	addu	v1,v0,a0
9d0094b8:	0062202b 	sltu	a0,v1,v0
9d0094bc:	54800011 	bnezl	a0,9d009504 <.LCFI2+0x6c>
9d0094c0:	2403000c 	li	v1,12
9d0094c4:	3c04a000 	lui	a0,0xa000
9d0094c8:	8c841bc0 	lw	a0,7104(a0)
9d0094cc:	0083202b 	sltu	a0,a0,v1
9d0094d0:	5480000c 	bnezl	a0,9d009504 <.LCFI2+0x6c>
9d0094d4:	2403000c 	li	v1,12
9d0094d8:	ae031bbc 	sw	v1,7100(s0)
9d0094dc:	8fbf001c 	lw	ra,28(sp)
9d0094e0:	8fb00018 	lw	s0,24(sp)
9d0094e4:	03e00008 	jr	ra
9d0094e8:	27bd0020 	addiu	sp,sp,32
9d0094ec:	0f4021bd 	jal	9d0086f4 <.LFE23>
9d0094f0:	afa40010 	sw	a0,16(sp)
9d0094f4:	8e021bbc 	lw	v0,7100(s0)
9d0094f8:	1440ffed 	bnez	v0,9d0094b0 <.LCFI2+0x18>
9d0094fc:	8fa40010 	lw	a0,16(sp)
9d009500:	2403000c 	li	v1,12
9d009504:	3c02a000 	lui	v0,0xa000
9d009508:	ac430020 	sw	v1,32(v0)
9d00950c:	2402ffff 	li	v0,-1
9d009510:	8fbf001c 	lw	ra,28(sp)
9d009514:	8fb00018 	lw	s0,24(sp)
9d009518:	03e00008 	jr	ra
9d00951c:	27bd0020 	addiu	sp,sp,32
9d009520:	0043202b 	sltu	a0,v0,v1
9d009524:	14800005 	bnez	a0,9d00953c <.LCFI2+0xa4>
9d009528:	3c04a000 	lui	a0,0xa000
9d00952c:	8c841bc4 	lw	a0,7108(a0)
9d009530:	0064202b 	sltu	a0,v1,a0
9d009534:	5080ffe9 	beqzl	a0,9d0094dc <.LCFI2+0x44>
9d009538:	ae031bbc 	sw	v1,7100(s0)
9d00953c:	24030016 	li	v1,22
9d009540:	3c02a000 	lui	v0,0xa000
9d009544:	ac430020 	sw	v1,32(v0)
9d009548:	2402ffff 	li	v0,-1
9d00954c:	8fbf001c 	lw	ra,28(sp)
9d009550:	8fb00018 	lw	s0,24(sp)
9d009554:	03e00008 	jr	ra
9d009558:	27bd0020 	addiu	sp,sp,32

Disassembly of section .text.repl.constprop.0:

9d00955c <repl.constprop.0>:
9d00955c:	27bdffd0 	addiu	sp,sp,-48
9d009560:	afbf002c 	sw	ra,44(sp)
9d009564:	afb60028 	sw	s6,40(sp)
9d009568:	afb50024 	sw	s5,36(sp)
9d00956c:	afb40020 	sw	s4,32(sp)
9d009570:	afb3001c 	sw	s3,28(sp)
9d009574:	afb20018 	sw	s2,24(sp)
9d009578:	afb10014 	sw	s1,20(sp)
9d00957c:	afb00010 	sw	s0,16(sp)
9d009580:	10a00016 	beqz	a1,9d0095dc <repl.constprop.0+0x80>
9d009584:	00a0a021 	move	s4,a1
9d009588:	00809021 	move	s2,a0
9d00958c:	3c159d01 	lui	s5,0x9d01
9d009590:	26b5a42c 	addiu	s5,s5,-23508
9d009594:	24160020 	li	s6,32
9d009598:	2413ffff 	li	s3,-1
9d00959c:	2e910021 	sltiu	s1,s4,33
9d0095a0:	02c01021 	move	v0,s6
9d0095a4:	0291100b 	movn	v0,s4,s1
9d0095a8:	0282a023 	subu	s4,s4,v0
9d0095ac:	02a28821 	addu	s1,s5,v0
9d0095b0:	0b402573 	j	9d0095cc <repl.constprop.0+0x70>
9d0095b4:	02a08021 	move	s0,s5
9d0095b8:	26100001 	addiu	s0,s0,1
9d0095bc:	0f402582 	jal	9d009608 <fputc>
9d0095c0:	8204ffff 	lb	a0,-1(s0)
9d0095c4:	10530007 	beq	v0,s3,9d0095e4 <repl.constprop.0+0x88>
9d0095c8:	8fbf002c 	lw	ra,44(sp)
9d0095cc:	1611fffa 	bne	s0,s1,9d0095b8 <repl.constprop.0+0x5c>
9d0095d0:	02402821 	move	a1,s2
9d0095d4:	1680fff2 	bnez	s4,9d0095a0 <repl.constprop.0+0x44>
9d0095d8:	2e910021 	sltiu	s1,s4,33
9d0095dc:	00001021 	move	v0,zero
9d0095e0:	8fbf002c 	lw	ra,44(sp)
9d0095e4:	8fb60028 	lw	s6,40(sp)
9d0095e8:	8fb50024 	lw	s5,36(sp)
9d0095ec:	8fb40020 	lw	s4,32(sp)
9d0095f0:	8fb3001c 	lw	s3,28(sp)
9d0095f4:	8fb20018 	lw	s2,24(sp)
9d0095f8:	8fb10014 	lw	s1,20(sp)
9d0095fc:	8fb00010 	lw	s0,16(sp)
9d009600:	03e00008 	jr	ra
9d009604:	27bd0030 	addiu	sp,sp,48

Disassembly of section .text.fputc:

9d009608 <fputc>:
9d009608:	27bdffe0 	addiu	sp,sp,-32
9d00960c:	afbf001c 	sw	ra,28(sp)
9d009610:	afb10018 	sw	s1,24(sp)
9d009614:	afb00014 	sw	s0,20(sp)
9d009618:	00a08021 	move	s0,a1
9d00961c:	8ca20018 	lw	v0,24(a1)
9d009620:	00808821 	move	s1,a0
9d009624:	24050001 	li	a1,1
9d009628:	8c420010 	lw	v0,16(v0)
9d00962c:	0040f809 	jalr	v0
9d009630:	02002021 	move	a0,s0
9d009634:	1040000e 	beqz	v0,9d009670 <fputc+0x68>
9d009638:	2402ffff 	li	v0,-1
9d00963c:	8e020000 	lw	v0,0(s0)
9d009640:	2442ffff 	addiu	v0,v0,-1
9d009644:	04400011 	bltz	v0,9d00968c <fputc+0x84>
9d009648:	ae020000 	sw	v0,0(s0)
9d00964c:	96020010 	lhu	v0,16(s0)
9d009650:	30420008 	andi	v0,v0,0x8
9d009654:	1440000b 	bnez	v0,9d009684 <fputc+0x7c>
9d009658:	2402000a 	li	v0,10
9d00965c:	8e030004 	lw	v1,4(s0)
9d009660:	02201021 	move	v0,s1
9d009664:	24640001 	addiu	a0,v1,1
9d009668:	ae040004 	sw	a0,4(s0)
9d00966c:	a0710000 	sb	s1,0(v1)
9d009670:	8fbf001c 	lw	ra,28(sp)
9d009674:	8fb10018 	lw	s1,24(sp)
9d009678:	8fb00014 	lw	s0,20(sp)
9d00967c:	03e00008 	jr	ra
9d009680:	27bd0020 	addiu	sp,sp,32
9d009684:	5622fff6 	bnel	s1,v0,9d009660 <fputc+0x58>
9d009688:	8e030004 	lw	v1,4(s0)
9d00968c:	8e020018 	lw	v0,24(s0)
9d009690:	02202021 	move	a0,s1
9d009694:	8c420004 	lw	v0,4(v0)
9d009698:	0040f809 	jalr	v0
9d00969c:	02002821 	move	a1,s0
9d0096a0:	8fbf001c 	lw	ra,28(sp)
9d0096a4:	8fb10018 	lw	s1,24(sp)
9d0096a8:	8fb00014 	lw	s0,20(sp)
9d0096ac:	03e00008 	jr	ra
9d0096b0:	27bd0020 	addiu	sp,sp,32

Disassembly of section .text.fptodp:

9d0096b4 <__extendsfdf2>:
9d0096b4:	00043dc2 30e700ff 3c018000 00813024     .=.....0...<$0..
9d0096c4:	24e9ffff 2d2100fe 1020000d 00000000     ...$..!-.. .....

9d0096d4 <Glab1>:
9d0096d4:	24e70380 	addiu	a3,a3,896
9d0096d8:	00044a40 	sll	t1,a0,0x9
9d0096dc:	00094b02 	srl	t1,t1,0xc
9d0096e0:	00c93025 	or	a2,a2,t1
9d0096e4:	00042f40 	sll	a1,a0,0x1d

9d0096e8 <Gret>:
9d0096e8:	00074d00 	sll	t1,a3,0x14
9d0096ec:	00c93025 	or	a2,a2,t1
9d0096f0:	00051025 	or	v0,zero,a1
9d0096f4:	00061825 	or	v1,zero,a2

9d0096f8 <G999>:
9d0096f8:	03e00008 	jr	ra
9d0096fc:	00000000 	nop
9d009700:	00000000 	nop

9d009704 <Gspec>:
9d009704:	24050000 	li	a1,0
9d009708:	00842021 	addu	a0,a0,a0
9d00970c:	1080fff6 	beqz	a0,9d0096e8 <Gret>
9d009710:	00000000 	nop
9d009714:	14e00009 	bnez	a3,9d00973c <i42>
9d009718:	00000000 	nop

9d00971c <b43>:
9d00971c:	24e7ffff 	addiu	a3,a3,-1
9d009720:	00842021 	addu	a0,a0,a0
9d009724:	3c010080 	lui	at,0x80
9d009728:	0081082b 	sltu	at,a0,at
9d00972c:	1420fffb 	bnez	at,9d00971c <b43>
9d009730:	00000000 	nop
9d009734:	1000ffe7 	b	9d0096d4 <Glab1>
9d009738:	00000000 	nop

9d00973c <i42>:
9d00973c:	240707ff 	li	a3,2047
9d009740:	3c01ff00 	lui	at,0xff00
9d009744:	34210001 	ori	at,at,0x1
9d009748:	0081082b 	sltu	at,a0,at
9d00974c:	1420ffe6 	bnez	at,9d0096e8 <Gret>
9d009750:	00000000 	nop
9d009754:	1000ffe4 	b	9d0096e8 <Gret>
9d009758:	3c06fff8 	lui	a2,0xfff8
9d00975c:	00000000 	nop

Disassembly of section .text._fullexit:

9d009760 <_fullexit>:
9d009760:	27bdffe0 	addiu	sp,sp,-32
9d009764:	afbf001c 	sw	ra,28(sp)
9d009768:	afb20018 	sw	s2,24(sp)
9d00976c:	afb10014 	sw	s1,20(sp)
9d009770:	afb00010 	sw	s0,16(sp)
9d009774:	3c10a000 	lui	s0,0xa000
9d009778:	3c11a000 	lui	s1,0xa000
9d00977c:	00809021 	move	s2,a0
9d009780:	0f40299f 	jal	9d00a67c <_weak_pthread_mutex_lock>
9d009784:	26041bc8 	addiu	a0,s0,7112
9d009788:	8e220000 	lw	v0,0(s1)
9d00978c:	26041bc8 	addiu	a0,s0,7112
9d009790:	24030001 	li	v1,1
9d009794:	0f4029a3 	jal	9d00a68c <_weak_pthread_mutex_unlock>
9d009798:	ac430038 	sw	v1,56(v0)
9d00979c:	8e220000 	lw	v0,0(s1)
9d0097a0:	8c500010 	lw	s0,16(v0)
9d0097a4:	5600000a 	bnezl	s0,9d0097d0 <_fullexit+0x70>
9d0097a8:	8e020004 	lw	v0,4(s0)
9d0097ac:	0b4025fb 	j	9d0097ec <_fullexit+0x8c>
9d0097b0:	8c420034 	lw	v0,52(v0)
9d0097b4:	00031880 	sll	v1,v1,0x2
9d0097b8:	02031821 	addu	v1,s0,v1
9d0097bc:	8c630000 	lw	v1,0(v1)
9d0097c0:	2442ffff 	addiu	v0,v0,-1
9d0097c4:	0060f809 	jalr	v1
9d0097c8:	ae020004 	sw	v0,4(s0)
9d0097cc:	8e020004 	lw	v0,4(s0)
9d0097d0:	1c40fff8 	bgtz	v0,9d0097b4 <_fullexit+0x54>
9d0097d4:	24430001 	addiu	v1,v0,1
9d0097d8:	8e100000 	lw	s0,0(s0)
9d0097dc:	5600fffc 	bnezl	s0,9d0097d0 <_fullexit+0x70>
9d0097e0:	8e020004 	lw	v0,4(s0)
9d0097e4:	8e220000 	lw	v0,0(s1)
9d0097e8:	8c420034 	lw	v0,52(v0)
9d0097ec:	10400003 	beqz	v0,9d0097fc <_fullexit+0x9c>
9d0097f0:	00000000 	nop
9d0097f4:	0040f809 	jalr	v0
9d0097f8:	00000000 	nop
9d0097fc:	0f4029c7 	jal	9d00a71c <.LFE0>
9d009800:	02402021 	move	a0,s2

Disassembly of section .text._o_init:

9d009804 <_o_init>:
9d009804:	27bdffe8 	addiu	sp,sp,-24
9d009808:	afbf0014 	sw	ra,20(sp)
9d00980c:	afb00010 	sw	s0,16(sp)
9d009810:	00808021 	move	s0,a0
9d009814:	3c02a000 	lui	v0,0xa000
9d009818:	8c430000 	lw	v1,0(v0)
9d00981c:	8c820008 	lw	v0,8(a0)
9d009820:	3c059d01 	lui	a1,0x9d01
9d009824:	24a5a39c 	addiu	a1,a1,-23652
9d009828:	1040001b 	beqz	v0,9d009898 <_o_init+0x94>
9d00982c:	ac650034 	sw	a1,52(v1)
9d009830:	8e03000c 	lw	v1,12(s0)
9d009834:	50600004 	beqzl	v1,9d009848 <_o_init+0x44>
9d009838:	96020010 	lhu	v0,16(s0)
9d00983c:	8e020008 	lw	v0,8(s0)
9d009840:	ae020004 	sw	v0,4(s0)
9d009844:	96020010 	lhu	v0,16(s0)
9d009848:	ae030000 	sw	v1,0(s0)
9d00984c:	34430002 	ori	v1,v0,0x2
9d009850:	30441000 	andi	a0,v0,0x1000
9d009854:	10800006 	beqz	a0,9d009870 <_o_init+0x6c>
9d009858:	a6030010 	sh	v1,16(s0)
9d00985c:	30420008 	andi	v0,v0,0x8
9d009860:	14400007 	bnez	v0,9d009880 <_o_init+0x7c>
9d009864:	00000000 	nop
9d009868:	7c036304 	ins	v1,zero,0xc,0x1
9d00986c:	a6030010 	sh	v1,16(s0)
9d009870:	8fbf0014 	lw	ra,20(sp)
9d009874:	8fb00010 	lw	s0,16(sp)
9d009878:	03e00008 	jr	ra
9d00987c:	27bd0018 	addiu	sp,sp,24
9d009880:	0f4029c9 	jal	9d00a724 <.LFE0>
9d009884:	86040012 	lh	a0,18(s0)
9d009888:	1440fff7 	bnez	v0,9d009868 <_o_init+0x64>
9d00988c:	96030010 	lhu	v1,16(s0)
9d009890:	0b40261a 	j	9d009868 <_o_init+0x64>
9d009894:	3063fff7 	andi	v1,v1,0xfff7
9d009898:	0f40278b 	jal	9d009e2c <_bufalloc>
9d00989c:	00000000 	nop
9d0098a0:	0b40260d 	j	9d009834 <_o_init+0x30>
9d0098a4:	8e03000c 	lw	v1,12(s0)

Disassembly of section .text._eat_white:

9d0098a8 <_eat_white>:
9d0098a8:	27bdffe0 	addiu	sp,sp,-32
9d0098ac:	afbf001c 	sw	ra,28(sp)
9d0098b0:	afb20018 	sw	s2,24(sp)
9d0098b4:	afb10014 	sw	s1,20(sp)
9d0098b8:	afb00010 	sw	s0,16(sp)
9d0098bc:	00808021 	move	s0,a0
9d0098c0:	2411ffff 	li	s1,-1
9d0098c4:	3c129d01 	lui	s2,0x9d01
9d0098c8:	0b402638 	j	9d0098e0 <_eat_white+0x38>
9d0098cc:	26528c05 	addiu	s2,s2,-29691
9d0098d0:	80630000 	lb	v1,0(v1)
9d0098d4:	30630088 	andi	v1,v1,0x88
9d0098d8:	50600010 	beqzl	v1,9d00991c <_eat_white+0x74>
9d0098dc:	8e030010 	lw	v1,16(s0)
9d0098e0:	0f4027a5 	jal	9d009e94 <gsgetc>
9d0098e4:	02002021 	move	a0,s0
9d0098e8:	1451fff9 	bne	v0,s1,9d0098d0 <_eat_white+0x28>
9d0098ec:	00521821 	addu	v1,v0,s2
9d0098f0:	8e030010 	lw	v1,16(s0)
9d0098f4:	ae110004 	sw	s1,4(s0)
9d0098f8:	2402ffff 	li	v0,-1
9d0098fc:	2463ffff 	addiu	v1,v1,-1
9d009900:	ae030010 	sw	v1,16(s0)
9d009904:	8fbf001c 	lw	ra,28(sp)
9d009908:	8fb20018 	lw	s2,24(sp)
9d00990c:	8fb10014 	lw	s1,20(sp)
9d009910:	8fb00010 	lw	s0,16(sp)
9d009914:	03e00008 	jr	ra
9d009918:	27bd0020 	addiu	sp,sp,32
9d00991c:	ae020004 	sw	v0,4(s0)
9d009920:	00001021 	move	v0,zero
9d009924:	2463ffff 	addiu	v1,v1,-1
9d009928:	ae030010 	sw	v1,16(s0)
9d00992c:	8fbf001c 	lw	ra,28(sp)
9d009930:	8fb20018 	lw	s2,24(sp)
9d009934:	8fb10014 	lw	s1,20(sp)
9d009938:	8fb00010 	lw	s0,16(sp)
9d00993c:	03e00008 	jr	ra
9d009940:	27bd0020 	addiu	sp,sp,32

Disassembly of section .text._i_init:

9d009944 <_i_init>:
9d009944:	27bdffe8 	addiu	sp,sp,-24
9d009948:	afbf0014 	sw	ra,20(sp)
9d00994c:	afb00010 	sw	s0,16(sp)
9d009950:	8c820008 	lw	v0,8(a0)
9d009954:	1040001d 	beqz	v0,9d0099cc <_i_init+0x88>
9d009958:	00808021 	move	s0,a0
9d00995c:	8e02000c 	lw	v0,12(s0)
9d009960:	54400012 	bnezl	v0,9d0099ac <_i_init+0x68>
9d009964:	8e020008 	lw	v0,8(s0)
9d009968:	2402ffff 	li	v0,-1
9d00996c:	ae020004 	sw	v0,4(s0)
9d009970:	96020010 	lhu	v0,16(s0)
9d009974:	ae000000 	sw	zero,0(s0)
9d009978:	34430001 	ori	v1,v0,0x1
9d00997c:	30441000 	andi	a0,v0,0x1000
9d009980:	10800006 	beqz	a0,9d00999c <_i_init+0x58>
9d009984:	a6030010 	sh	v1,16(s0)
9d009988:	30420008 	andi	v0,v0,0x8
9d00998c:	14400009 	bnez	v0,9d0099b4 <_i_init+0x70>
9d009990:	00000000 	nop
9d009994:	7c036304 	ins	v1,zero,0xc,0x1
9d009998:	a6030010 	sh	v1,16(s0)
9d00999c:	8fbf0014 	lw	ra,20(sp)
9d0099a0:	8fb00010 	lw	s0,16(sp)
9d0099a4:	03e00008 	jr	ra
9d0099a8:	27bd0018 	addiu	sp,sp,24
9d0099ac:	0b40265c 	j	9d009970 <_i_init+0x2c>
9d0099b0:	ae020004 	sw	v0,4(s0)
9d0099b4:	0f4029c9 	jal	9d00a724 <.LFE0>
9d0099b8:	86040012 	lh	a0,18(s0)
9d0099bc:	1440fff5 	bnez	v0,9d009994 <_i_init+0x50>
9d0099c0:	96030010 	lhu	v1,16(s0)
9d0099c4:	0b402665 	j	9d009994 <_i_init+0x50>
9d0099c8:	3063fff7 	andi	v1,v1,0xfff7
9d0099cc:	0f40278b 	jal	9d009e2c <_bufalloc>
9d0099d0:	00000000 	nop
9d0099d4:	0b402658 	j	9d009960 <_i_init+0x1c>
9d0099d8:	8e02000c 	lw	v0,12(s0)

Disassembly of section .text.strlen:

9d0099dc <strlen>:
9d0099dc:	30830003 	andi	v1,a0,0x3
9d0099e0:	1460001e 	bnez	v1,9d009a5c <strlen+0x80>
9d0099e4:	00801021 	move	v0,a0
9d0099e8:	8c820000 	lw	v0,0(a0)
9d0099ec:	3c07fefe 	lui	a3,0xfefe
9d0099f0:	34e7feff 	ori	a3,a3,0xfeff
9d0099f4:	00471821 	addu	v1,v0,a3
9d0099f8:	00021027 	nor	v0,zero,v0
9d0099fc:	3c068080 	lui	a2,0x8080
9d009a00:	34c68080 	ori	a2,a2,0x8080
9d009a04:	00621824 	and	v1,v1,v0
9d009a08:	00661824 	and	v1,v1,a2
9d009a0c:	14600013 	bnez	v1,9d009a5c <strlen+0x80>
9d009a10:	00801021 	move	v0,a0
9d009a14:	24420004 	addiu	v0,v0,4
9d009a18:	8c430000 	lw	v1,0(v0)
9d009a1c:	00672821 	addu	a1,v1,a3
9d009a20:	00031827 	nor	v1,zero,v1
9d009a24:	00a31824 	and	v1,a1,v1
9d009a28:	00661824 	and	v1,v1,a2
9d009a2c:	5460000c 	bnezl	v1,9d009a60 <strlen+0x84>
9d009a30:	80430000 	lb	v1,0(v0)
9d009a34:	24420004 	addiu	v0,v0,4
9d009a38:	8c430000 	lw	v1,0(v0)
9d009a3c:	00672821 	addu	a1,v1,a3
9d009a40:	00031827 	nor	v1,zero,v1
9d009a44:	00a31824 	and	v1,a1,v1
9d009a48:	00661824 	and	v1,v1,a2
9d009a4c:	5060fff2 	beqzl	v1,9d009a18 <strlen+0x3c>
9d009a50:	24420004 	addiu	v0,v0,4
9d009a54:	0b402698 	j	9d009a60 <strlen+0x84>
9d009a58:	80430000 	lb	v1,0(v0)
9d009a5c:	80430000 	lb	v1,0(v0)
9d009a60:	5460fffe 	bnezl	v1,9d009a5c <strlen+0x80>
9d009a64:	24420001 	addiu	v0,v0,1
9d009a68:	03e00008 	jr	ra
9d009a6c:	00441023 	subu	v0,v0,a0

Disassembly of section .text:

9d009a70 <__pic32_data_init>:
9d009a70:	03e01821 	move	v1,ra

9d009a74 <_dinit_init>:
9d009a74:	3c089d00 	lui	t0,0x9d00
9d009a78:	25083c88 	addiu	t0,t0,15496
9d009a7c:	8d090000 	lw	t1,0(t0)
9d009a80:	11200018 	beqz	t1,9d009ae4 <_dinit_end+0x18>
9d009a84:	25080004 	addiu	t0,t0,4
9d009a88:	8d0a0000 	lw	t2,0(t0)
9d009a8c:	25080004 	addiu	t0,t0,4
9d009a90:	8d0b0000 	lw	t3,0(t0)
9d009a94:	11600009 	beqz	t3,9d009abc <_dinit_clear>
9d009a98:	25080004 	addiu	t0,t0,4

9d009a9c <_dinit_copy>:
9d009a9c:	910c0000 	lbu	t4,0(t0)
9d009aa0:	254affff 	addiu	t2,t2,-1
9d009aa4:	25080001 	addiu	t0,t0,1
9d009aa8:	a12c0000 	sb	t4,0(t1)
9d009aac:	1540fffb 	bnez	t2,9d009a9c <_dinit_copy>
9d009ab0:	25290001 	addiu	t1,t1,1
9d009ab4:	10000005 	b	9d009acc <_dinit_end>
9d009ab8:	00000000 	nop

9d009abc <_dinit_clear>:
9d009abc:	a1200000 	sb	zero,0(t1)
9d009ac0:	254affff 	addiu	t2,t2,-1
9d009ac4:	1540fffd 	bnez	t2,9d009abc <_dinit_clear>
9d009ac8:	25290001 	addiu	t1,t1,1

9d009acc <_dinit_end>:
9d009acc:	25080003 	addiu	t0,t0,3
9d009ad0:	240afffc 	li	t2,-4
9d009ad4:	01484024 	and	t0,t2,t0
9d009ad8:	8d090000 	lw	t1,0(t0)
9d009adc:	1520ffe7 	bnez	t1,9d009a7c <_dinit_init+0x8>
9d009ae0:	00000000 	nop
9d009ae4:	0060f821 	move	ra,v1
9d009ae8:	03e00008 	jr	ra
9d009aec:	00000000 	nop
9d009af0:	00000000 	nop

Disassembly of section .text._fflush_simple:

9d009af4 <_fflush_simple>:
9d009af4:	27bdffe8 	addiu	sp,sp,-24
9d009af8:	afbf0014 	sw	ra,20(sp)
9d009afc:	afb00010 	sw	s0,16(sp)
9d009b00:	94820010 	lhu	v0,16(a0)
9d009b04:	30420002 	andi	v0,v0,0x2
9d009b08:	10400013 	beqz	v0,9d009b58 <_fflush_simple+0x64>
9d009b0c:	00808021 	move	s0,a0
9d009b10:	8c850000 	lw	a1,0(a0)
9d009b14:	04a0000c 	bltz	a1,9d009b48 <_fflush_simple+0x54>
9d009b18:	00001021 	move	v0,zero
9d009b1c:	8c82000c 	lw	v0,12(a0)
9d009b20:	50a20006 	beql	a1,v0,9d009b3c <_fflush_simple+0x48>
9d009b24:	8e030008 	lw	v1,8(s0)
9d009b28:	8c840008 	lw	a0,8(a0)
9d009b2c:	0f402818 	jal	9d00a060 <.LFE4>
9d009b30:	00452823 	subu	a1,v0,a1
9d009b34:	8e02000c 	lw	v0,12(s0)
9d009b38:	8e030008 	lw	v1,8(s0)
9d009b3c:	ae020000 	sw	v0,0(s0)
9d009b40:	ae030004 	sw	v1,4(s0)
9d009b44:	00001021 	move	v0,zero
9d009b48:	8fbf0014 	lw	ra,20(sp)
9d009b4c:	8fb00010 	lw	s0,16(sp)
9d009b50:	03e00008 	jr	ra
9d009b54:	27bd0018 	addiu	sp,sp,24
9d009b58:	2402ffff 	li	v0,-1
9d009b5c:	ac820004 	sw	v0,4(a0)
9d009b60:	00001021 	move	v0,zero
9d009b64:	8fbf0014 	lw	ra,20(sp)
9d009b68:	8fb00010 	lw	s0,16(sp)
9d009b6c:	03e00008 	jr	ra
9d009b70:	27bd0018 	addiu	sp,sp,24

Disassembly of section .text._fwrite_simple:

9d009b74 <_fwrite_simple>:
9d009b74:	27bdffd8 	addiu	sp,sp,-40
9d009b78:	afbf0024 	sw	ra,36(sp)
9d009b7c:	afb10020 	sw	s1,32(sp)
9d009b80:	afb0001c 	sw	s0,28(sp)
9d009b84:	70c58002 	mul	s0,a2,a1
9d009b88:	12000007 	beqz	s0,9d009ba8 <_fwrite_simple+0x34>
9d009b8c:	00001021 	move	v0,zero
9d009b90:	94e30010 	lhu	v1,16(a3)
9d009b94:	30630001 	andi	v1,v1,0x1
9d009b98:	10600008 	beqz	v1,9d009bbc <_fwrite_simple+0x48>
9d009b9c:	3c03a000 	lui	v1,0xa000
9d009ba0:	24040009 	li	a0,9
9d009ba4:	ac640020 	sw	a0,32(v1)
9d009ba8:	8fbf0024 	lw	ra,36(sp)
9d009bac:	8fb10020 	lw	s1,32(sp)
9d009bb0:	8fb0001c 	lw	s0,28(sp)
9d009bb4:	03e00008 	jr	ra
9d009bb8:	27bd0028 	addiu	sp,sp,40
9d009bbc:	00808821 	move	s1,a0
9d009bc0:	00e02021 	move	a0,a3
9d009bc4:	0f4026bd 	jal	9d009af4 <_fflush_simple>
9d009bc8:	afa60010 	sw	a2,16(sp)
9d009bcc:	02202021 	move	a0,s1
9d009bd0:	0f402818 	jal	9d00a060 <.LFE4>
9d009bd4:	02002821 	move	a1,s0
9d009bd8:	8fa60010 	lw	a2,16(sp)
9d009bdc:	00c01021 	move	v0,a2
9d009be0:	8fbf0024 	lw	ra,36(sp)
9d009be4:	8fb10020 	lw	s1,32(sp)
9d009be8:	8fb0001c 	lw	s0,28(sp)
9d009bec:	03e00008 	jr	ra
9d009bf0:	27bd0028 	addiu	sp,sp,40

Disassembly of section .text.fgetc:

9d009bf4 <fgetc>:
9d009bf4:	27bdffe8 	addiu	sp,sp,-24
9d009bf8:	afbf0014 	sw	ra,20(sp)
9d009bfc:	afb00010 	sw	s0,16(sp)
9d009c00:	00808021 	move	s0,a0
9d009c04:	8c820018 	lw	v0,24(a0)
9d009c08:	8c420010 	lw	v0,16(v0)
9d009c0c:	0040f809 	jalr	v0
9d009c10:	24050002 	li	a1,2
9d009c14:	10400009 	beqz	v0,9d009c3c <fgetc+0x48>
9d009c18:	2402ffff 	li	v0,-1
9d009c1c:	8e020000 	lw	v0,0(s0)
9d009c20:	2442ffff 	addiu	v0,v0,-1
9d009c24:	04400009 	bltz	v0,9d009c4c <fgetc+0x58>
9d009c28:	ae020000 	sw	v0,0(s0)
9d009c2c:	8e020004 	lw	v0,4(s0)
9d009c30:	24430001 	addiu	v1,v0,1
9d009c34:	ae030004 	sw	v1,4(s0)
9d009c38:	90420000 	lbu	v0,0(v0)
9d009c3c:	8fbf0014 	lw	ra,20(sp)
9d009c40:	8fb00010 	lw	s0,16(sp)
9d009c44:	03e00008 	jr	ra
9d009c48:	27bd0018 	addiu	sp,sp,24
9d009c4c:	8e020018 	lw	v0,24(s0)
9d009c50:	8c420000 	lw	v0,0(v0)
9d009c54:	0040f809 	jalr	v0
9d009c58:	02002021 	move	a0,s0
9d009c5c:	8fbf0014 	lw	ra,20(sp)
9d009c60:	8fb00010 	lw	s0,16(sp)
9d009c64:	03e00008 	jr	ra
9d009c68:	27bd0018 	addiu	sp,sp,24

Disassembly of section .text.litodp:

9d009c6c <__floatsidf>:
9d009c6c:	24050000 00054825 00053825 00043025     ...$%H..%8..%0..
9d009c7c:	10c0000c 00000000 04c10006 00000000     ................
9d009c8c:	3c098000 0005502b 00052823 00063023     ...<+P..#(..#0..
9d009c9c:	00ca3023                                #0..

9d009ca0 <i40>:
9d009ca0:	2407041e 	li	a3,1054
9d009ca4:	70c84020 	clz	t0,a2
9d009ca8:	00e83823 	subu	a3,a3,t0
9d009cac:	01063004 	sllv	a2,a2,t0

9d009cb0 <i39>:
9d009cb0:	000542c2 	srl	t0,a1,0xb
9d009cb4:	00065540 	sll	t2,a2,0x15
9d009cb8:	010a4025 	or	t0,t0,t2
9d009cbc:	00065040 	sll	t2,a2,0x1
9d009cc0:	000a5302 	srl	t2,t2,0xc
9d009cc4:	012a4825 	or	t1,t1,t2
9d009cc8:	00075500 	sll	t2,a3,0x14
9d009ccc:	012a4825 	or	t1,t1,t2
9d009cd0:	00081025 	or	v0,zero,t0
9d009cd4:	00091825 	or	v1,zero,t1

9d009cd8 <E999>:
9d009cd8:	03e00008 	jr	ra
9d009cdc:	00000000 	nop
9d009ce0:	00000000 	nop

Disassembly of section .text._sscanf_fF:

9d009ce4 <_sscanf_fF>:
9d009ce4:	27bdffc0 	addiu	sp,sp,-64
9d009ce8:	afbf003c 	sw	ra,60(sp)
9d009cec:	afb00038 	sw	s0,56(sp)
9d009cf0:	00808021 	move	s0,a0
9d009cf4:	afa60048 	sw	a2,72(sp)
9d009cf8:	afa7004c 	sw	a3,76(sp)
9d009cfc:	2402ffff 	li	v0,-1
9d009d00:	a7a20022 	sh	v0,34(sp)
9d009d04:	24020081 	li	v0,129
9d009d08:	a7a20020 	sh	v0,32(sp)
9d009d0c:	0f402677 	jal	9d0099dc <strlen>
9d009d10:	afa50030 	sw	a1,48(sp)
9d009d14:	27a30048 	addiu	v1,sp,72
9d009d18:	27a40010 	addiu	a0,sp,16
9d009d1c:	8fa50030 	lw	a1,48(sp)
9d009d20:	00603021 	move	a2,v1
9d009d24:	afa20010 	sw	v0,16(sp)
9d009d28:	afa2001c 	sw	v0,28(sp)
9d009d2c:	afb00018 	sw	s0,24(sp)
9d009d30:	afb00014 	sw	s0,20(sp)
9d009d34:	3c029d01 	lui	v0,0x9d01
9d009d38:	2442a60c 	addiu	v0,v0,-23028
9d009d3c:	afa20028 	sw	v0,40(sp)
9d009d40:	0f400780 	jal	9d001e00 <do_scan>
9d009d44:	afa3002c 	sw	v1,44(sp)
9d009d48:	8fbf003c 	lw	ra,60(sp)
9d009d4c:	8fb00038 	lw	s0,56(sp)
9d009d50:	03e00008 	jr	ra
9d009d54:	27bd0040 	addiu	sp,sp,64

Disassembly of section .text._sprintf_cdnopuxX:

9d009d58 <_sprintf_cdnopuxX>:
9d009d58:	27bdffc8 	addiu	sp,sp,-56
9d009d5c:	afbf0034 	sw	ra,52(sp)
9d009d60:	27a20040 	addiu	v0,sp,64
9d009d64:	00801821 	move	v1,a0
9d009d68:	afa60040 	sw	a2,64(sp)
9d009d6c:	27a40010 	addiu	a0,sp,16
9d009d70:	00403021 	move	a2,v0
9d009d74:	afa70044 	sw	a3,68(sp)
9d009d78:	2407ffff 	li	a3,-1
9d009d7c:	a7a70022 	sh	a3,34(sp)
9d009d80:	24070082 	li	a3,130
9d009d84:	a7a70020 	sh	a3,32(sp)
9d009d88:	3c077fff 	lui	a3,0x7fff
9d009d8c:	34e7fffe 	ori	a3,a3,0xfffe
9d009d90:	afa70010 	sw	a3,16(sp)
9d009d94:	afa30018 	sw	v1,24(sp)
9d009d98:	afa30014 	sw	v1,20(sp)
9d009d9c:	3c039d01 	lui	v1,0x9d01
9d009da0:	2463a60c 	addiu	v1,v1,-23028
9d009da4:	afa30028 	sw	v1,40(sp)
9d009da8:	0f400a86 	jal	9d002a18 <_do_print_cdnopuxX>
9d009dac:	afa2002c 	sw	v0,44(sp)
9d009db0:	8fa30014 	lw	v1,20(sp)
9d009db4:	a0600000 	sb	zero,0(v1)
9d009db8:	8fbf0034 	lw	ra,52(sp)
9d009dbc:	03e00008 	jr	ra
9d009dc0:	27bd0038 	addiu	sp,sp,56

Disassembly of section .text.memmove:

9d009dc4 <memmove>:
9d009dc4:	27bdffe8 	addiu	sp,sp,-24
9d009dc8:	0085102b 	sltu	v0,a0,a1
9d009dcc:	14400012 	bnez	v0,9d009e18 <memmove+0x54>
9d009dd0:	afbf0014 	sw	ra,20(sp)
9d009dd4:	00a61021 	addu	v0,a1,a2
9d009dd8:	0082102b 	sltu	v0,a0,v0
9d009ddc:	1040000e 	beqz	v0,9d009e18 <memmove+0x54>
9d009de0:	24c2ffff 	addiu	v0,a2,-1
9d009de4:	00821821 	addu	v1,a0,v0
9d009de8:	00a22821 	addu	a1,a1,v0
9d009dec:	10c00006 	beqz	a2,9d009e08 <memmove+0x44>
9d009df0:	00663823 	subu	a3,v1,a2
9d009df4:	24a5ffff 	addiu	a1,a1,-1
9d009df8:	90a60001 	lbu	a2,1(a1)
9d009dfc:	2463ffff 	addiu	v1,v1,-1
9d009e00:	1467fffc 	bne	v1,a3,9d009df4 <memmove+0x30>
9d009e04:	a0660001 	sb	a2,1(v1)
9d009e08:	00801021 	move	v0,a0
9d009e0c:	8fbf0014 	lw	ra,20(sp)
9d009e10:	03e00008 	jr	ra
9d009e14:	27bd0018 	addiu	sp,sp,24
9d009e18:	0f4028f3 	jal	9d00a3cc <memcpy>
9d009e1c:	00000000 	nop
9d009e20:	8fbf0014 	lw	ra,20(sp)
9d009e24:	03e00008 	jr	ra
9d009e28:	27bd0018 	addiu	sp,sp,24

Disassembly of section .text._bufalloc:

9d009e2c <_bufalloc>:
9d009e2c:	27bdffe8 	addiu	sp,sp,-24
9d009e30:	afbf0014 	sw	ra,20(sp)
9d009e34:	afb00010 	sw	s0,16(sp)
9d009e38:	00808021 	move	s0,a0
9d009e3c:	8c84000c 	lw	a0,12(a0)
9d009e40:	5880000e 	blezl	a0,9d009e7c <_bufalloc+0x50>
9d009e44:	ae00000c 	sw	zero,12(s0)
9d009e48:	0f400d22 	jal	9d003488 <malloc>
9d009e4c:	00000000 	nop
9d009e50:	10400009 	beqz	v0,9d009e78 <_bufalloc+0x4c>
9d009e54:	ae020008 	sw	v0,8(s0)
9d009e58:	96030010 	lhu	v1,16(s0)
9d009e5c:	ae020004 	sw	v0,4(s0)
9d009e60:	34620010 	ori	v0,v1,0x10
9d009e64:	a6020010 	sh	v0,16(s0)
9d009e68:	8fbf0014 	lw	ra,20(sp)
9d009e6c:	8fb00010 	lw	s0,16(sp)
9d009e70:	03e00008 	jr	ra
9d009e74:	27bd0018 	addiu	sp,sp,24
9d009e78:	ae00000c 	sw	zero,12(s0)
9d009e7c:	2402ffff 	li	v0,-1
9d009e80:	ae020004 	sw	v0,4(s0)
9d009e84:	8fbf0014 	lw	ra,20(sp)
9d009e88:	8fb00010 	lw	s0,16(sp)
9d009e8c:	03e00008 	jr	ra
9d009e90:	27bd0018 	addiu	sp,sp,24

Disassembly of section .text.gsgetc:

9d009e94 <gsgetc>:
9d009e94:	27bdffe0 	addiu	sp,sp,-32
9d009e98:	afbf001c 	sw	ra,28(sp)
9d009e9c:	afb10018 	sw	s1,24(sp)
9d009ea0:	afb00014 	sw	s0,20(sp)
9d009ea4:	8c820004 	lw	v0,4(a0)
9d009ea8:	2411ffff 	li	s1,-1
9d009eac:	1051000a 	beq	v0,s1,9d009ed8 <gsgetc+0x44>
9d009eb0:	00808021 	move	s0,a0
9d009eb4:	ac910004 	sw	s1,4(a0)
9d009eb8:	8e030010 	lw	v1,16(s0)
9d009ebc:	24630001 	addiu	v1,v1,1
9d009ec0:	ae030010 	sw	v1,16(s0)
9d009ec4:	8fbf001c 	lw	ra,28(sp)
9d009ec8:	8fb10018 	lw	s1,24(sp)
9d009ecc:	8fb00014 	lw	s0,20(sp)
9d009ed0:	03e00008 	jr	ra
9d009ed4:	27bd0020 	addiu	sp,sp,32
9d009ed8:	0f4026fd 	jal	9d009bf4 <fgetc>
9d009edc:	8c840000 	lw	a0,0(a0)
9d009ee0:	1451fff5 	bne	v0,s1,9d009eb8 <gsgetc+0x24>
9d009ee4:	8fbf001c 	lw	ra,28(sp)
9d009ee8:	8fb10018 	lw	s1,24(sp)
9d009eec:	8fb00014 	lw	s0,20(sp)
9d009ef0:	03e00008 	jr	ra
9d009ef4:	27bd0020 	addiu	sp,sp,32

Disassembly of section .text._buffree:

9d009ef8 <_buffree>:
9d009ef8:	27bdffe8 	addiu	sp,sp,-24
9d009efc:	afbf0014 	sw	ra,20(sp)
9d009f00:	afb00010 	sw	s0,16(sp)
9d009f04:	00808021 	move	s0,a0
9d009f08:	8c840008 	lw	a0,8(a0)
9d009f0c:	10800010 	beqz	a0,9d009f50 <_buffree+0x58>
9d009f10:	8fbf0014 	lw	ra,20(sp)
9d009f14:	96020010 	lhu	v0,16(s0)
9d009f18:	30420010 	andi	v0,v0,0x10
9d009f1c:	5040000d 	beqzl	v0,9d009f54 <_buffree+0x5c>
9d009f20:	8fb00010 	lw	s0,16(sp)
9d009f24:	0f401e0b 	jal	9d00782c <free>
9d009f28:	00000000 	nop
9d009f2c:	96020010 	lhu	v0,16(s0)
9d009f30:	ae000008 	sw	zero,8(s0)
9d009f34:	7c0220c4 	ins	v0,zero,0x3,0x2
9d009f38:	ae00000c 	sw	zero,12(s0)
9d009f3c:	ae000000 	sw	zero,0(s0)
9d009f40:	2403ffff 	li	v1,-1
9d009f44:	ae030004 	sw	v1,4(s0)
9d009f48:	a6020010 	sh	v0,16(s0)
9d009f4c:	8fbf0014 	lw	ra,20(sp)
9d009f50:	8fb00010 	lw	s0,16(sp)
9d009f54:	03e00008 	jr	ra
9d009f58:	27bd0018 	addiu	sp,sp,24

Disassembly of section .text.sitofp:

9d009f5c <__floatsisf>:
9d009f5c:	3c018000 10800012 00813024 04810002     ...<....$0......
9d009f6c:	00000000 00042023                       ....# ..

9d009f74 <i40>:
9d009f74:	2405009e 	li	a1,158
9d009f78:	70873820 	clz	a3,a0
9d009f7c:	00a72823 	subu	a1,a1,a3
9d009f80:	00e42004 	sllv	a0,a0,a3
9d009f84:	24840080 	addiu	a0,a0,128
9d009f88:	2c880080 	sltiu	t0,a0,128
9d009f8c:	00a82821 	addu	a1,a1,t0
9d009f90:	00044203 	sra	t0,a0,0x8
9d009f94:	31080001 	andi	t0,t0,0x1
9d009f98:	00882023 	subu	a0,a0,t0
9d009f9c:	00042040 	sll	a0,a0,0x1
9d009fa0:	00042242 	srl	a0,a0,0x9
9d009fa4:	000545c0 	sll	t0,a1,0x17
9d009fa8:	00882025 	or	a0,a0,t0

9d009fac <i39>:
9d009fac:	00861025 	or	v0,a0,a2

9d009fb0 <E999>:
9d009fb0:	03e00008 	jr	ra
9d009fb4:	00000000 	nop
9d009fb8:	00000000 	nop

Disassembly of section .text.main_entry:

9d009fbc <_main_entry>:
9d009fbc:	3c040000 	lui	a0,0x0
9d009fc0:	27bdffe8 	addiu	sp,sp,-24
9d009fc4:	24840000 	addiu	a0,a0,0
9d009fc8:	10800003 	beqz	a0,9d009fd8 <_main_entry+0x1c>
9d009fcc:	afbf0014 	sw	ra,20(sp)
9d009fd0:	0080f809 	jalr	a0
9d009fd4:	00000000 	nop
9d009fd8:	30840000 	andi	a0,a0,0x0
9d009fdc:	30a50000 	andi	a1,a1,0x0
9d009fe0:	3c089d00 	lui	t0,0x9d00
9d009fe4:	25086028 	addiu	t0,t0,24616
9d009fe8:	0100f809 	jalr	t0
9d009fec:	00000000 	nop

9d009ff0 <__crt0_exit>:
9d009ff0:	3c020000 24420000 10400003 00000000     ...<..B$..@.....
9d00a000:	0040f809 00000000 1000fff9 00000000     ..@.............

Disassembly of section .text.sbrk:

9d00a010 <sbrk>:
9d00a010:	27bdffe0 	addiu	sp,sp,-32

9d00a014 <.LCFI4>:
9d00a014:	afbf001c 	sw	ra,28(sp)
9d00a018:	afb10018 	sw	s1,24(sp)
9d00a01c:	afb00014 	sw	s0,20(sp)
9d00a020:	0f402525 	jal	9d009494 <.LFE0>
9d00a024:	00808821 	move	s1,a0
9d00a028:	1a200007 	blez	s1,9d00a048 <.LCFI4+0x34>
9d00a02c:	00408021 	move	s0,v0
9d00a030:	2402ffff 	li	v0,-1
9d00a034:	12020004 	beq	s0,v0,9d00a048 <.LCFI4+0x34>
9d00a038:	02002021 	move	a0,s0
9d00a03c:	00002821 	move	a1,zero
9d00a040:	0f402913 	jal	9d00a44c <memset>
9d00a044:	02203021 	move	a2,s1
9d00a048:	02001021 	move	v0,s0
9d00a04c:	8fbf001c 	lw	ra,28(sp)
9d00a050:	8fb10018 	lw	s1,24(sp)
9d00a054:	8fb00014 	lw	s0,20(sp)
9d00a058:	03e00008 	jr	ra
9d00a05c:	27bd0020 	addiu	sp,sp,32

Disassembly of section .text._mon_write:

9d00a060 <_mon_write>:
9d00a060:	27bdffe0 	addiu	sp,sp,-32

9d00a064 <.LCFI0>:
9d00a064:	afbf001c 	sw	ra,28(sp)
9d00a068:	afb10018 	sw	s1,24(sp)
9d00a06c:	afb00014 	sw	s0,20(sp)
9d00a070:	10800009 	beqz	a0,9d00a098 <.LCFI0+0x34>
9d00a074:	00808021 	move	s0,a0
9d00a078:	10a00007 	beqz	a1,9d00a098 <.LCFI0+0x34>
9d00a07c:	00a08821 	move	s1,a1
9d00a080:	82040000 	lb	a0,0(s0)
9d00a084:	2631ffff 	addiu	s1,s1,-1
9d00a088:	0f4024f0 	jal	9d0093c0 <_mon_putc>
9d00a08c:	26100001 	addiu	s0,s0,1
9d00a090:	5620fffc 	bnezl	s1,9d00a084 <.LCFI0+0x20>
9d00a094:	82040000 	lb	a0,0(s0)
9d00a098:	8fbf001c 	lw	ra,28(sp)
9d00a09c:	8fb10018 	lw	s1,24(sp)
9d00a0a0:	8fb00014 	lw	s0,20(sp)
9d00a0a4:	03e00008 	jr	ra
9d00a0a8:	27bd0020 	addiu	sp,sp,32

Disassembly of section .text._bootstrap_exception_handler:

9d00a0ac <_bootstrap_exception_handler>:
9d00a0ac:	3c020000 	lui	v0,0x0
9d00a0b0:	24420000 	addiu	v0,v0,0
9d00a0b4:	10400005 	beqz	v0,9d00a0cc <_bootstrap_exception_handler+0x20>
9d00a0b8:	3c020000 	lui	v0,0x0
9d00a0bc:	24420000 	addiu	v0,v0,0
9d00a0c0:	10400003 	beqz	v0,9d00a0d0 <_bootstrap_exception_handler+0x24>
9d00a0c4:	3c029d01 	lui	v0,0x9d01
9d00a0c8:	7000003f 	sdbbp
9d00a0cc:	3c029d01 	lui	v0,0x9d01
9d00a0d0:	2442a1cc 	addiu	v0,v0,-24116
9d00a0d4:	10400005 	beqz	v0,9d00a0ec <.LCFI2>
9d00a0d8:	00000000 	nop
9d00a0dc:	27bdffe8 	addiu	sp,sp,-24

9d00a0e0 <.LCFI0>:
9d00a0e0:	afbf0014 	sw	ra,20(sp)
9d00a0e4:	0040f809 	jalr	v0
9d00a0e8:	00000000 	nop

9d00a0ec <.LCFI2>:
9d00a0ec:	0b40283b 	j	9d00a0ec <.LCFI2>
9d00a0f0:	00000000 	nop

Disassembly of section .text._general_exception_handler:

9d00a0f4 <_general_exception_handler>:
9d00a0f4:	3c020000 	lui	v0,0x0
9d00a0f8:	24420000 	addiu	v0,v0,0
9d00a0fc:	10400005 	beqz	v0,9d00a114 <_general_exception_handler+0x20>
9d00a100:	3c020000 	lui	v0,0x0
9d00a104:	24420000 	addiu	v0,v0,0
9d00a108:	10400003 	beqz	v0,9d00a118 <_general_exception_handler+0x24>
9d00a10c:	3c029d01 	lui	v0,0x9d01
9d00a110:	7000003f 	sdbbp
9d00a114:	3c029d01 	lui	v0,0x9d01
9d00a118:	2442a1cc 	addiu	v0,v0,-24116
9d00a11c:	10400005 	beqz	v0,9d00a134 <.LCFI2>
9d00a120:	00000000 	nop
9d00a124:	27bdffe8 	addiu	sp,sp,-24

9d00a128 <.LCFI0>:
9d00a128:	afbf0014 	sw	ra,20(sp)
9d00a12c:	0040f809 	jalr	v0
9d00a130:	00000000 	nop

9d00a134 <.LCFI2>:
9d00a134:	0b40284d 	j	9d00a134 <.LCFI2>
9d00a138:	00000000 	nop

Disassembly of section .vector_default:

9d00a13c <_DefaultInterrupt>:
9d00a13c:	3c020000 	lui	v0,0x0
9d00a140:	24420000 	addiu	v0,v0,0
9d00a144:	10400007 	beqz	v0,9d00a164 <_DefaultInterrupt+0x28>
9d00a148:	3c020000 	lui	v0,0x0
9d00a14c:	24420000 	addiu	v0,v0,0
9d00a150:	50400005 	beqzl	v0,9d00a168 <_DefaultInterrupt+0x2c>
9d00a154:	3c029d01 	lui	v0,0x9d01
9d00a158:	7000003f 	sdbbp
9d00a15c:	03e00008 	jr	ra
9d00a160:	00000000 	nop
9d00a164:	3c029d01 	lui	v0,0x9d01
9d00a168:	2442a1cc 	addiu	v0,v0,-24116
9d00a16c:	10400003 	beqz	v0,9d00a17c <_DefaultInterrupt+0x40>
9d00a170:	00000000 	nop
9d00a174:	0040f809 	jalr	v0
9d00a178:	00000000 	nop
9d00a17c:	03e00008 	jr	ra
9d00a180:	00000000 	nop

Disassembly of section .rodata:

9d00a184 <f5pow>:
9d00a184:	00000000 40140000 00000000 40390000     .......@......9@
9d00a194:	00000000 40838800 00000000 4117d784     .......@.......A
9d00a1a4:	37e08000 4241c379 b5056e17 4493b8b5     ...7y.AB.n.....D
9d00a1b4:	e93ff9f5 49384f03 f9301d32 52827748     ..?..O8I2.0.Hw.R
9d00a1c4:	7f73bf3c 65154fdd                       <.s..O.e

Disassembly of section .text:

9d00a1cc <__pic32_software_reset>:
9d00a1cc:	41606000 	di
9d00a1d0:	000000c0 	ehb
9d00a1d4:	3c03aa99 	lui	v1,0xaa99
9d00a1d8:	3c02bf81 	lui	v0,0xbf81
9d00a1dc:	24636655 	addiu	v1,v1,26197
9d00a1e0:	ac40f230 	sw	zero,-3536(v0)
9d00a1e4:	ac43f230 	sw	v1,-3536(v0)
9d00a1e8:	3c035566 	lui	v1,0x5566
9d00a1ec:	346399aa 	ori	v1,v1,0x99aa
9d00a1f0:	ac43f230 	sw	v1,-3536(v0)
9d00a1f4:	3c02bf81 	lui	v0,0xbf81
9d00a1f8:	24030001 	li	v1,1
9d00a1fc:	ac43f618 	sw	v1,-2536(v0)
9d00a200:	3c02bf81 	lui	v0,0xbf81
9d00a204:	8c42f610 	lw	v0,-2544(v0)
9d00a208:	0b402875 	j	9d00a1d4 <__pic32_software_reset+0x8>
9d00a20c:	00000000 	nop

Disassembly of section .text._io_exit:

9d00a210 <.text._io_exit>:
9d00a210:	27bdffe8 	addiu	sp,sp,-24
9d00a214:	afbf0014 	sw	ra,20(sp)
9d00a218:	afb00010 	sw	s0,16(sp)
9d00a21c:	3c10a000 	lui	s0,0xa000
9d00a220:	0f40299f 	jal	9d00a67c <_weak_pthread_mutex_lock>
9d00a224:	26041bc8 	addiu	a0,s0,7112
9d00a228:	3c02a000 	lui	v0,0xa000
9d00a22c:	8c420000 	lw	v0,0(v0)
9d00a230:	26041bc8 	addiu	a0,s0,7112
9d00a234:	24030001 	li	v1,1
9d00a238:	0f4029a3 	jal	9d00a68c <_weak_pthread_mutex_unlock>
9d00a23c:	ac430038 	sw	v1,56(v0)
9d00a240:	8fbf0014 	lw	ra,20(sp)
9d00a244:	8fb00010 	lw	s0,16(sp)
9d00a248:	03e00008 	jr	ra
9d00a24c:	27bd0018 	addiu	sp,sp,24

Disassembly of section .text:

9d00a250 <__lshrdi3>:
9d00a250:	10c00009 	beqz	a2,9d00a278 <.LBE2+0x8>
9d00a254:	00801021 	move	v0,a0
9d00a258:	24020020 	li	v0,32
9d00a25c:	00461023 	subu	v0,v0,a2
9d00a260:	18400007 	blez	v0,9d00a280 <.LBE2+0x10>
9d00a264:	00c42006 	srlv	a0,a0,a2

9d00a268 <.LBB2>:
9d00a268:	00451004 	sllv	v0,a1,v0
9d00a26c:	00c51806 	srlv	v1,a1,a2

9d00a270 <.LBE2>:
9d00a270:	03e00008 	jr	ra
9d00a274:	00441025 	or	v0,v0,a0
9d00a278:	03e00008 	jr	ra
9d00a27c:	00a01821 	move	v1,a1
9d00a280:	00021023 	negu	v0,v0
9d00a284:	00001821 	move	v1,zero
9d00a288:	03e00008 	jr	ra
9d00a28c:	00451006 	srlv	v0,a1,v0

9d00a290 <__ashldi3>:
9d00a290:	10c00009 	beqz	a2,9d00a2b8 <.LBE2+0x8>
9d00a294:	00801021 	move	v0,a0
9d00a298:	24030020 	li	v1,32
9d00a29c:	00661823 	subu	v1,v1,a2
9d00a2a0:	18600007 	blez	v1,9d00a2c0 <.LBE2+0x10>
9d00a2a4:	00c52804 	sllv	a1,a1,a2

9d00a2a8 <.LBB2>:
9d00a2a8:	00641806 	srlv	v1,a0,v1
9d00a2ac:	00c41004 	sllv	v0,a0,a2

9d00a2b0 <.LBE2>:
9d00a2b0:	03e00008 	jr	ra
9d00a2b4:	00651825 	or	v1,v1,a1
9d00a2b8:	03e00008 	jr	ra
9d00a2bc:	00a01821 	move	v1,a1
9d00a2c0:	00031823 	negu	v1,v1
9d00a2c4:	00001021 	move	v0,zero
9d00a2c8:	03e00008 	jr	ra
9d00a2cc:	00641804 	sllv	v1,a0,v1

Disassembly of section .text._weak_pthread_once:

9d00a2d0 <_weak_pthread_once>:
9d00a2d0:	8c820000 	lw	v0,0(a0)
9d00a2d4:	10400003 	beqz	v0,9d00a2e4 <_weak_pthread_once+0x14>
9d00a2d8:	00001021 	move	v0,zero
9d00a2dc:	03e00008 	jr	ra
9d00a2e0:	00000000 	nop
9d00a2e4:	27bdffe8 	addiu	sp,sp,-24
9d00a2e8:	afbf0014 	sw	ra,20(sp)
9d00a2ec:	24020002 	li	v0,2
9d00a2f0:	00a0f809 	jalr	a1
9d00a2f4:	ac820000 	sw	v0,0(a0)
9d00a2f8:	00001021 	move	v0,zero
9d00a2fc:	8fbf0014 	lw	ra,20(sp)
9d00a300:	03e00008 	jr	ra
9d00a304:	27bd0018 	addiu	sp,sp,24

Disassembly of section .text._filbuf_simple:

9d00a308 <_filbuf_simple>:
9d00a308:	8c820004 	lw	v0,4(a0)
9d00a30c:	2403ffff 	li	v1,-1
9d00a310:	10430003 	beq	v0,v1,9d00a320 <_filbuf_simple+0x18>
9d00a314:	ac800000 	sw	zero,0(a0)
9d00a318:	03e00008 	jr	ra
9d00a31c:	ac830004 	sw	v1,4(a0)
9d00a320:	27bdffe8 	addiu	sp,sp,-24
9d00a324:	afbf0014 	sw	ra,20(sp)
9d00a328:	0f402480 	jal	9d009200 <_mon_getc>
9d00a32c:	24040001 	li	a0,1
9d00a330:	8fbf0014 	lw	ra,20(sp)
9d00a334:	03e00008 	jr	ra
9d00a338:	27bd0018 	addiu	sp,sp,24

Disassembly of section .text._fsync_simple:

9d00a33c <_fsync_simple>:
9d00a33c:	94830010 	lhu	v1,16(a0)
9d00a340:	00a32824 	and	a1,a1,v1
9d00a344:	10a00007 	beqz	a1,9d00a364 <_fsync_simple+0x28>
9d00a348:	24020001 	li	v0,1
9d00a34c:	34630040 	ori	v1,v1,0x40
9d00a350:	a4830010 	sh	v1,16(a0)
9d00a354:	24030009 	li	v1,9
9d00a358:	3c02a000 	lui	v0,0xa000
9d00a35c:	ac430020 	sw	v1,32(v0)
9d00a360:	00001021 	move	v0,zero
9d00a364:	03e00008 	jr	ra
9d00a368:	00000000 	nop

Disassembly of section .rodata:

9d00a36c <.rodata>:
9d00a36c:	33323130 	andi	s2,t9,0x3130
9d00a370:	37363534 	ori	s6,t9,0x3534
9d00a374:	00000000 	nop
9d00a378:	33323130 	andi	s2,t9,0x3130
9d00a37c:	37363534 	ori	s6,t9,0x3534
9d00a380:	42413938 	c0	0x413938
9d00a384:	46454443 	c1	0x454443
9d00a388:	64636261 	0x64636261
9d00a38c:	00006665 	0x6665
9d00a390:	33323130 	andi	s2,t9,0x3130
9d00a394:	37363534 	ori	s6,t9,0x3534
9d00a398:	00003938 	0x3938

Disassembly of section .text._cleanup:

9d00a39c <_cleanup>:
9d00a39c:	3c02a000 	lui	v0,0xa000
9d00a3a0:	8c421bec 	lw	v0,7148(v0)
9d00a3a4:	10400007 	beqz	v0,9d00a3c4 <_cleanup+0x28>
9d00a3a8:	00000000 	nop
9d00a3ac:	27bdffe8 	addiu	sp,sp,-24
9d00a3b0:	afbf0014 	sw	ra,20(sp)
9d00a3b4:	0040f809 	jalr	v0
9d00a3b8:	00000000 	nop
9d00a3bc:	8fbf0014 	lw	ra,20(sp)
9d00a3c0:	27bd0018 	addiu	sp,sp,24
9d00a3c4:	03e00008 	jr	ra
9d00a3c8:	00000000 	nop

Disassembly of section .text.memcpy:

9d00a3cc <memcpy>:
9d00a3cc:	00801021 	move	v0,a0
9d00a3d0:	00863821 	addu	a3,a0,a2
9d00a3d4:	10c00006 	beqz	a2,9d00a3f0 <memcpy+0x24>
9d00a3d8:	00801821 	move	v1,a0
9d00a3dc:	24a50001 	addiu	a1,a1,1
9d00a3e0:	90a6ffff 	lbu	a2,-1(a1)
9d00a3e4:	24630001 	addiu	v1,v1,1
9d00a3e8:	1467fffc 	bne	v1,a3,9d00a3dc <memcpy+0x10>
9d00a3ec:	a066ffff 	sb	a2,-1(v1)
9d00a3f0:	03e00008 	jr	ra
9d00a3f4:	00000000 	nop

Disassembly of section .text._stub_sbd_memlayout:

9d00a3f8 <_stub_sbd_memlayout>:
9d00a3f8:	3c03a000 	lui	v1,0xa000
9d00a3fc:	24621ba4 	addiu	v0,v1,7076
9d00a400:	24040001 	li	a0,1
9d00a404:	ac440008 	sw	a0,8(v0)
9d00a408:	3c04a000 	lui	a0,0xa000
9d00a40c:	24841bf8 	addiu	a0,a0,7160
9d00a410:	ac641ba4 	sw	a0,7076(v1)
9d00a414:	3c030000 	lui	v1,0x0
9d00a418:	24630000 	addiu	v1,v1,0
9d00a41c:	03e00008 	jr	ra
9d00a420:	ac430004 	sw	v1,4(v0)

Disassembly of section .rodata:

9d00a424 <spaceData-0x8>:
9d00a424:	6c756e28 	0x6c756e28
9d00a428:	0000296c 	0x296c

9d00a42c <spaceData>:
9d00a42c:	20202020 20202020 20202020 20202020                     
9d00a43c:	20202020 20202020 20202020 20202020                     

Disassembly of section .text.memset:

9d00a44c <memset>:
9d00a44c:	10c00007 	beqz	a2,9d00a46c <memset+0x20>
9d00a450:	00801021 	move	v0,a0
9d00a454:	30a500ff 	andi	a1,a1,0xff
9d00a458:	00863021 	addu	a2,a0,a2
9d00a45c:	00801821 	move	v1,a0
9d00a460:	24630001 	addiu	v1,v1,1
9d00a464:	1466fffe 	bne	v1,a2,9d00a460 <memset+0x14>
9d00a468:	a065ffff 	sb	a1,-1(v1)
9d00a46c:	03e00008 	jr	ra
9d00a470:	00000000 	nop

Disassembly of section .text.strtod:

9d00a474 <strtod>:
9d00a474:	27bdffe8 	addiu	sp,sp,-24
9d00a478:	afbf0014 	sw	ra,20(sp)
9d00a47c:	0f401890 	jal	9d006240 <.LBE2>
9d00a480:	00000000 	nop
9d00a484:	00402021 	move	a0,v0
9d00a488:	0f4023c4 	jal	9d008f10 <.LFE23>
9d00a48c:	00602821 	move	a1,v1
9d00a490:	8fbf0014 	lw	ra,20(sp)
9d00a494:	03e00008 	jr	ra
9d00a498:	27bd0018 	addiu	sp,sp,24

Disassembly of section .text.putchar:

9d00a49c <putchar>:
9d00a49c:	27bdffe8 	addiu	sp,sp,-24
9d00a4a0:	afbf0014 	sw	ra,20(sp)
9d00a4a4:	3c02a000 	lui	v0,0xa000
9d00a4a8:	8c420000 	lw	v0,0(v0)
9d00a4ac:	0f402582 	jal	9d009608 <fputc>
9d00a4b0:	8c450004 	lw	a1,4(v0)
9d00a4b4:	8fbf0014 	lw	ra,20(sp)
9d00a4b8:	03e00008 	jr	ra
9d00a4bc:	27bd0018 	addiu	sp,sp,24

Disassembly of section .text.getchar:

9d00a4c0 <getchar>:
9d00a4c0:	27bdffe8 	addiu	sp,sp,-24
9d00a4c4:	afbf0014 	sw	ra,20(sp)
9d00a4c8:	3c02a000 	lui	v0,0xa000
9d00a4cc:	8c420000 	lw	v0,0(v0)
9d00a4d0:	0f4026fd 	jal	9d009bf4 <fgetc>
9d00a4d4:	8c440000 	lw	a0,0(v0)
9d00a4d8:	8fbf0014 	lw	ra,20(sp)
9d00a4dc:	03e00008 	jr	ra
9d00a4e0:	27bd0018 	addiu	sp,sp,24

Disassembly of section .text._vfprintf_cdnopuxX:

9d00a4e4 <_vfprintf_cdnopuxX>:
9d00a4e4:	27bdffe8 	addiu	sp,sp,-24
9d00a4e8:	afbf0014 	sw	ra,20(sp)
9d00a4ec:	0f400a86 	jal	9d002a18 <_do_print_cdnopuxX>
9d00a4f0:	00000000 	nop
9d00a4f4:	8fbf0014 	lw	ra,20(sp)
9d00a4f8:	03e00008 	jr	ra
9d00a4fc:	27bd0018 	addiu	sp,sp,24

Disassembly of section .text.putc:

9d00a500 <putc>:
9d00a500:	27bdffe8 	addiu	sp,sp,-24
9d00a504:	afbf0014 	sw	ra,20(sp)
9d00a508:	0f402582 	jal	9d009608 <fputc>
9d00a50c:	00000000 	nop
9d00a510:	8fbf0014 	lw	ra,20(sp)
9d00a514:	03e00008 	jr	ra
9d00a518:	27bd0018 	addiu	sp,sp,24

Disassembly of section .text.vfscanf:

9d00a51c <vfscanf>:
9d00a51c:	27bdffe8 	addiu	sp,sp,-24
9d00a520:	afbf0014 	sw	ra,20(sp)
9d00a524:	0f400780 	jal	9d001e00 <do_scan>
9d00a528:	00000000 	nop
9d00a52c:	8fbf0014 	lw	ra,20(sp)
9d00a530:	03e00008 	jr	ra
9d00a534:	27bd0018 	addiu	sp,sp,24

Disassembly of section .text.strtof:

9d00a538 <strtof>:
9d00a538:	27bdffe8 	addiu	sp,sp,-24
9d00a53c:	afbf0014 	sw	ra,20(sp)
9d00a540:	0f401a66 	jal	9d006998 <__strtof>
9d00a544:	00000000 	nop
9d00a548:	8fbf0014 	lw	ra,20(sp)
9d00a54c:	03e00008 	jr	ra
9d00a550:	27bd0018 	addiu	sp,sp,24

Disassembly of section .text.getc:

9d00a554 <getc>:
9d00a554:	27bdffe8 	addiu	sp,sp,-24
9d00a558:	afbf0014 	sw	ra,20(sp)
9d00a55c:	0f4026fd 	jal	9d009bf4 <fgetc>
9d00a560:	00000000 	nop
9d00a564:	8fbf0014 	lw	ra,20(sp)
9d00a568:	03e00008 	jr	ra
9d00a56c:	27bd0018 	addiu	sp,sp,24

Disassembly of section .text.negdf2:

9d00a570 <__negdf2>:
9d00a570:	3c018000 00a12826 00041025 00051825     ...<&(..%...%...

9d00a580 <M999>:
9d00a580:	03e00008 	jr	ra
9d00a584:	00000000 	nop
9d00a588:	00000000 	nop

Disassembly of section .text:

9d00a58c <_nmi_handler>:
9d00a58c:	401a6000 	mfc0	k0,c0_status
9d00a590:	3c1bffbf 	lui	k1,0xffbf
9d00a594:	377bffff 	ori	k1,k1,0xffff
9d00a598:	035bd024 	and	k0,k0,k1
9d00a59c:	409a6000 	mtc0	k0,c0_status
9d00a5a0:	42000018 	eret

Disassembly of section .rodata:

9d00a5a4 <f5pow>:
9d00a5a4:	40a00000 41c80000 441c4000 48bebc20     ...@...A.@.D ..H
9d00a5b4:	520e1bca 649dc5ae 25206625 00000066     ...R...d%f %f...
9d00a5c4:	25206425 64252064 000a0d20              %d %d %d ...

Disassembly of section .text._io_exit:

9d00a5d0 <_io_exit>:
9d00a5d0:	3c02a000 	lui	v0,0xa000
9d00a5d4:	8c420000 	lw	v0,0(v0)
9d00a5d8:	24030001 	li	v1,1
9d00a5dc:	03e00008 	jr	ra
9d00a5e0:	ac430038 	sw	v1,56(v0)

Disassembly of section .rodata:

9d00a5e4 <_io_funcs>:
9d00a5e4:	9d00a308 9d009010 9d009af4 9d009b74     ............t...
9d00a5f4:	9d00a33c                                <...

Disassembly of section .text._io_exit:

9d00a5f8 <.text._io_exit>:
9d00a5f8:	3c02a000 	lui	v0,0xa000
9d00a5fc:	8c420000 	lw	v0,0(v0)
9d00a600:	24030001 	li	v1,1
9d00a604:	03e00008 	jr	ra
9d00a608:	ac430038 	sw	v1,56(v0)

Disassembly of section .rodata:

9d00a60c <_io_strfuncs>:
9d00a60c:	9d00a644 9d00a64c 9d00a654 9d00a65c     D...L...T...\...
9d00a61c:	9d00a664                                d...

Disassembly of section .text.negsf2:

9d00a620 <__negsf2>:
9d00a620:	3c018000 00811026                       ...<&...

9d00a628 <L999>:
9d00a628:	03e00008 	jr	ra
9d00a62c:	00000000 	nop
9d00a630:	00000000 	nop

Disassembly of section .text._on_reset:

9d00a634 <_on_reset>:
9d00a634:	03e00008 	jr	ra
9d00a638:	00000000 	nop

Disassembly of section .text._on_bootstrap:

9d00a63c <_on_bootstrap>:
9d00a63c:	03e00008 	jr	ra
9d00a640:	00000000 	nop

Disassembly of section .text._filbuf_string:

9d00a644 <_filbuf_string>:
9d00a644:	03e00008 	jr	ra
9d00a648:	2402ffff 	li	v0,-1

Disassembly of section .text._flsbuf_string:

9d00a64c <_flsbuf_string>:
9d00a64c:	03e00008 	jr	ra
9d00a650:	00801021 	move	v0,a0

Disassembly of section .text._fflush_string:

9d00a654 <_fflush_string>:
9d00a654:	03e00008 	jr	ra
9d00a658:	00001021 	move	v0,zero

Disassembly of section .text._fwrite_string:

9d00a65c <_fwrite_string>:
9d00a65c:	03e00008 	jr	ra
9d00a660:	00001021 	move	v0,zero

Disassembly of section .text._fsync_string:

9d00a664 <_fsync_string>:
9d00a664:	03e00008 	jr	ra
9d00a668:	24020001 	li	v0,1

Disassembly of section .text._weak_pthread_mutex_init:

9d00a66c <_weak_pthread_mutex_init>:
9d00a66c:	03e00008 	jr	ra
9d00a670:	00001021 	move	v0,zero

Disassembly of section .text._weak_pthread_mutex_destroy:

9d00a674 <_weak_pthread_mutex_destroy>:
9d00a674:	03e00008 	jr	ra
9d00a678:	00001021 	move	v0,zero

Disassembly of section .text._weak_pthread_mutex_lock:

9d00a67c <_weak_pthread_mutex_lock>:
9d00a67c:	03e00008 	jr	ra
9d00a680:	00001021 	move	v0,zero

Disassembly of section .text._weak_pthread_mutex_trylock:

9d00a684 <_weak_pthread_mutex_trylock>:
9d00a684:	03e00008 	jr	ra
9d00a688:	00001021 	move	v0,zero

Disassembly of section .text._weak_pthread_mutex_unlock:

9d00a68c <_weak_pthread_mutex_unlock>:
9d00a68c:	03e00008 	jr	ra
9d00a690:	00001021 	move	v0,zero

Disassembly of section .text._weak_pthread_mutex_setname_np:

9d00a694 <_weak_pthread_mutex_setname_np>:
9d00a694:	03e00008 	jr	ra
9d00a698:	00001021 	move	v0,zero

Disassembly of section .text._weak_pthread_mutexattr_init:

9d00a69c <_weak_pthread_mutexattr_init>:
9d00a69c:	03e00008 	jr	ra
9d00a6a0:	00001021 	move	v0,zero

Disassembly of section .text._weak_pthread_mutexattr_destroy:

9d00a6a4 <_weak_pthread_mutexattr_destroy>:
9d00a6a4:	03e00008 	jr	ra
9d00a6a8:	00001021 	move	v0,zero

Disassembly of section .text._weak_pthread_mutexattr_setname_np:

9d00a6ac <_weak_pthread_mutexattr_setname_np>:
9d00a6ac:	03e00008 	jr	ra
9d00a6b0:	00001021 	move	v0,zero

Disassembly of section .text._weak_pthread_mutexattr_settype_np:

9d00a6b4 <_weak_pthread_mutexattr_settype_np>:
9d00a6b4:	03e00008 	jr	ra
9d00a6b8:	00001021 	move	v0,zero

Disassembly of section .text._weak_pthread_sysconf_np:

9d00a6bc <_weak_pthread_sysconf_np>:
9d00a6bc:	03e00008 	jr	ra
9d00a6c0:	2402ffff 	li	v0,-1

Disassembly of section .text._weak_pthread_sigdisable_np:

9d00a6c4 <_weak_pthread_sigdisable_np>:
9d00a6c4:	03e00008 	jr	ra
9d00a6c8:	00000000 	nop

Disassembly of section .text._weak_pthread_sigrestore_np:

9d00a6cc <_weak_pthread_sigrestore_np>:
9d00a6cc:	03e00008 	jr	ra
9d00a6d0:	00000000 	nop

Disassembly of section .text._weak__pthread_cleanup_push:

9d00a6d4 <_weak__pthread_cleanup_push>:
9d00a6d4:	03e00008 	jr	ra
9d00a6d8:	00000000 	nop

Disassembly of section .text._weak__pthread_cleanup_pop:

9d00a6dc <_weak__pthread_cleanup_pop>:
9d00a6dc:	03e00008 	jr	ra
9d00a6e0:	00000000 	nop

Disassembly of section .text._weak__pthread_cleanup_push_defer:

9d00a6e4 <_weak__pthread_cleanup_push_defer>:
9d00a6e4:	03e00008 	jr	ra
9d00a6e8:	00000000 	nop

Disassembly of section .text._weak__pthread_cleanup_pop_restore:

9d00a6ec <_weak__pthread_cleanup_pop_restore>:
9d00a6ec:	03e00008 	jr	ra
9d00a6f0:	00000000 	nop

Disassembly of section .text._weak_pthread_key_create:

9d00a6f4 <_weak_pthread_key_create>:
9d00a6f4:	03e00008 	jr	ra
9d00a6f8:	2402ffff 	li	v0,-1

Disassembly of section .text._weak_pthread_setspecific:

9d00a6fc <_weak_pthread_setspecific>:
9d00a6fc:	03e00008 	jr	ra
9d00a700:	2402ffff 	li	v0,-1

Disassembly of section .text._weak_pthread_getspecific:

9d00a704 <_weak_pthread_getspecific>:
9d00a704:	03e00008 	jr	ra
9d00a708:	00001021 	move	v0,zero

Disassembly of section .text._weak__libc_private_storage:

9d00a70c <_weak__libc_private_storage>:
9d00a70c:	03e00008 	jr	ra
9d00a710:	00a01021 	move	v0,a1

Disassembly of section .text.getpagesize:

9d00a714 <getpagesize>:
9d00a714:	03e00008 	jr	ra
9d00a718:	24020080 	li	v0,128

Disassembly of section .text._exit:

9d00a71c <_exit>:
9d00a71c:	0b4029c7 	j	9d00a71c <_exit>
9d00a720:	00000000 	nop

Disassembly of section .text.isatty:

9d00a724 <isatty>:
9d00a724:	03e00008 	jr	ra
9d00a728:	00001021 	move	v0,zero
