
out.elf:     file format elf32-tradlittlemips


Disassembly of section .config_BFC02FF0:

bfc02ff0 <__config_BFC02FF0>:
bfc02ff0:	ff ff fe fa                                         ....

Disassembly of section .config_BFC02FF4:

bfc02ff4 <__config_BFC02FF4>:
bfc02ff4:	d9 79 f8 ff                                         .y..

Disassembly of section .config_BFC02FF8:

bfc02ff8 <__config_BFC02FF8>:
bfc02ff8:	db ce 6c ff                                         ..l.

Disassembly of section .config_BFC02FFC:

bfc02ffc <__config_BFC02FFC>:
bfc02ffc:	ff ff ff 7e                                         ...~

Disassembly of section .reset:

bd001970 <_reset>:
bd001970:	0f40065e 	jal	bd001978 <_startup>
bd001974:	00000000 	nop

bd001978 <_startup>:
bd001978:	401a6000 	mfc0	k0,c0_status
bd00197c:	7f5a04c0 	ext	k0,k0,0x13,0x1
bd001980:	13400005 	beqz	k0,bd001998 <_no_nmi>
bd001984:	00000000 	nop
bd001988:	3c1a9d00 	lui	k0,0x9d00
bd00198c:	275a5014 	addiu	k0,k0,20500
bd001990:	03400008 	jr	k0
bd001994:	00000000 	nop

bd001998 <_no_nmi>:
bd001998:	3c1da002 	lui	sp,0xa002
bd00199c:	27bdfff8 	addiu	sp,sp,-8
bd0019a0:	3c1ca000 	lui	gp,0xa000
bd0019a4:	279c7ff0 	addiu	gp,gp,32752
bd0019a8:	40096002 	mfc0	t1,c0_srsctl
bd0019ac:	01205820 	add	t3,t1,zero
bd0019b0:	7d2a1e80 	ext	t2,t1,0x1a,0x4
bd0019b4:	7d494984 	ins	t1,t2,0x6,0x4
bd0019b8:	40896002 	mtc0	t1,c0_srsctl
bd0019bc:	000000c0 	ehb
bd0019c0:	41dce000 	wrpgpr	gp,gp
bd0019c4:	408b6002 	mtc0	t3,c0_srsctl
bd0019c8:	000000c0 	ehb
bd0019cc:	3c089d00 	lui	t0,0x9d00
bd0019d0:	2508508c 	addiu	t0,t0,20620
bd0019d4:	0100f809 	jalr	t0
bd0019d8:	00000000 	nop

bd0019dc <_start_bss_init>:
bd0019dc:	3c08a000 	lui	t0,0xa000
bd0019e0:	25080008 	addiu	t0,t0,8
bd0019e4:	3c09a000 	lui	t1,0xa000
bd0019e8:	2529000c 	addiu	t1,t1,12
bd0019ec:	10000006 	b	bd001a08 <_bss_check>
bd0019f0:	00000000 	nop

bd0019f4 <_bss_init>:
bd0019f4:	ad000000 	sw	zero,0(t0)
bd0019f8:	ad000004 	sw	zero,4(t0)
bd0019fc:	ad000008 	sw	zero,8(t0)
bd001a00:	ad00000c 	sw	zero,12(t0)
bd001a04:	25080010 	addiu	t0,t0,16

bd001a08 <_bss_check>:
bd001a08:	0109082b 	sltu	at,t0,t1
bd001a0c:	1420fff9 	bnez	at,bd0019f4 <_bss_init>
bd001a10:	00000000 	nop
bd001a14:	3c089d00 	lui	t0,0x9d00
bd001a18:	250849ac 	addiu	t0,t0,18860
bd001a1c:	0100f809 	jalr	t0
bd001a20:	00000000 	nop
bd001a24:	3c090000 	lui	t1,0x0
bd001a28:	25290000 	addiu	t1,t1,0
bd001a2c:	11200010 	beqz	t1,bd001a70 <_ramfunc_done>
bd001a30:	00000000 	nop
bd001a34:	3c090002 	lui	t1,0x2
bd001a38:	25290000 	addiu	t1,t1,0
bd001a3c:	3c0abf88 	lui	t2,0xbf88
bd001a40:	254a2010 	addiu	t2,t2,8208
bd001a44:	ad490000 	sw	t1,0(t2)
bd001a48:	3c090002 	lui	t1,0x2
bd001a4c:	25290000 	addiu	t1,t1,0
bd001a50:	3c0abf88 	lui	t2,0xbf88
bd001a54:	254a2020 	addiu	t2,t2,8224
bd001a58:	ad490000 	sw	t1,0(t2)
bd001a5c:	3c090002 	lui	t1,0x2
bd001a60:	25290000 	addiu	t1,t1,0
bd001a64:	3c0abf88 	lui	t2,0xbf88
bd001a68:	254a2030 	addiu	t2,t2,8240
bd001a6c:	ad490000 	sw	t1,0(t2)

bd001a70 <_ramfunc_done>:
bd001a70:	40804800 	mtc0	zero,c0_count
bd001a74:	240affff 	li	t2,-1
bd001a78:	408a5800 	mtc0	t2,c0_compare
bd001a7c:	3c080040 	lui	t0,0x40
bd001a80:	400a6000 	mfc0	t2,c0_status
bd001a84:	010a5025 	or	t2,t0,t2
bd001a88:	408a6000 	mtc0	t2,c0_status
bd001a8c:	3c099d00 	lui	t1,0x9d00
bd001a90:	25290000 	addiu	t1,t1,0
bd001a94:	000000c0 	ehb
bd001a98:	40897801 	mtc0	t1,c0_ebase
bd001a9c:	3c090000 	lui	t1,0x0
bd001aa0:	25290001 	addiu	t1,t1,1
bd001aa4:	240a0000 	li	t2,0
bd001aa8:	7d2a4944 	ins	t2,t1,0x5,0x5
bd001aac:	408a6001 	mtc0	t2,c0_intctl
bd001ab0:	3c090080 	lui	t1,0x80
bd001ab4:	40896800 	mtc0	t1,c0_cause
bd001ab8:	40088000 	mfc0	t0,c0_config
bd001abc:	7d090580 	ext	t1,t0,0x16,0x1
bd001ac0:	00094c40 	sll	t1,t1,0x11
bd001ac4:	40086000 	mfc0	t0,c0_status
bd001ac8:	3c010058 	lui	at,0x58
bd001acc:	01014024 	and	t0,t0,at
bd001ad0:	01284025 	or	t0,t1,t0
bd001ad4:	40886000 	mtc0	t0,c0_status
bd001ad8:	000000c0 	ehb
bd001adc:	3c089d00 	lui	t0,0x9d00
bd001ae0:	25085094 	addiu	t0,t0,20628
bd001ae4:	0100f809 	jalr	t0
bd001ae8:	00000000 	nop
bd001aec:	40086000 	mfc0	t0,c0_status
bd001af0:	3c01ffbf 	lui	at,0xffbf
bd001af4:	3421ffff 	ori	at,at,0xffff
bd001af8:	01014024 	and	t0,t0,at
bd001afc:	40886000 	mtc0	t0,c0_status
bd001b00:	30840000 	andi	a0,a0,0x0
bd001b04:	30a50000 	andi	a1,a1,0x0
bd001b08:	3c089d00 	lui	t0,0x9d00
bd001b0c:	25084d4c 	addiu	t0,t0,19788
bd001b10:	01000008 	jr	t0
bd001b14:	00000000 	nop

Disassembly of section .bev_excpt:

bd001cf0 <_bev_exception>:
bd001cf0:	3c1a9d00 	lui	k0,0x9d00
bd001cf4:	275a4e38 	addiu	k0,k0,20024
bd001cf8:	03400008 	jr	k0
bd001cfc:	00000000 	nop

Disassembly of section .app_excpt:

9d000180 <_gen_exception>:
9d000180:	3c1a9d00 	lui	k0,0x9d00
9d000184:	275a44b0 	addiu	k0,k0,17584
9d000188:	03400008 	jr	k0
9d00018c:	00000000 	nop

Disassembly of section .vector_0:

9d000200 <__vector_dispatch_0>:
9d000200:	0b400e82 	j	9d003a08 <CoreTimerISR>
9d000204:	00000000 	nop

Disassembly of section .vector_1:

9d000220 <__vector_dispatch_1>:
9d000220:	0b4013b2 	j	9d004ec8 <.LFE0>
9d000224:	00000000 	nop

Disassembly of section .vector_2:

9d000240 <__vector_dispatch_2>:
9d000240:	0b4013b2 	j	9d004ec8 <.LFE0>
9d000244:	00000000 	nop

Disassembly of section .vector_3:

9d000260 <__vector_dispatch_3>:
9d000260:	0b4013b2 	j	9d004ec8 <.LFE0>
9d000264:	00000000 	nop

Disassembly of section .vector_4:

9d000280 <__vector_dispatch_4>:
9d000280:	0b4013b2 	j	9d004ec8 <.LFE0>
9d000284:	00000000 	nop

Disassembly of section .vector_5:

9d0002a0 <__vector_dispatch_5>:
9d0002a0:	0b4013b2 	j	9d004ec8 <.LFE0>
9d0002a4:	00000000 	nop

Disassembly of section .vector_6:

9d0002c0 <__vector_dispatch_6>:
9d0002c0:	0b4013b2 	j	9d004ec8 <.LFE0>
9d0002c4:	00000000 	nop

Disassembly of section .vector_7:

9d0002e0 <__vector_dispatch_7>:
9d0002e0:	0b4013b2 	j	9d004ec8 <.LFE0>
9d0002e4:	00000000 	nop

Disassembly of section .vector_8:

9d000300 <__vector_dispatch_8>:
9d000300:	0b4013b2 	j	9d004ec8 <.LFE0>
9d000304:	00000000 	nop

Disassembly of section .vector_9:

9d000320 <__vector_dispatch_9>:
9d000320:	0b4013b2 	j	9d004ec8 <.LFE0>
9d000324:	00000000 	nop

Disassembly of section .vector_10:

9d000340 <__vector_dispatch_10>:
9d000340:	0b4013b2 	j	9d004ec8 <.LFE0>
9d000344:	00000000 	nop

Disassembly of section .vector_11:

9d000360 <__vector_dispatch_11>:
9d000360:	0b4013b2 	j	9d004ec8 <.LFE0>
9d000364:	00000000 	nop

Disassembly of section .vector_12:

9d000380 <__vector_dispatch_12>:
9d000380:	0b4013b2 	j	9d004ec8 <.LFE0>
9d000384:	00000000 	nop

Disassembly of section .vector_13:

9d0003a0 <__vector_dispatch_13>:
9d0003a0:	0b4013b2 	j	9d004ec8 <.LFE0>
9d0003a4:	00000000 	nop

Disassembly of section .vector_14:

9d0003c0 <__vector_dispatch_14>:
9d0003c0:	0b4013b2 	j	9d004ec8 <.LFE0>
9d0003c4:	00000000 	nop

Disassembly of section .vector_15:

9d0003e0 <__vector_dispatch_15>:
9d0003e0:	0b4013b2 	j	9d004ec8 <.LFE0>
9d0003e4:	00000000 	nop

Disassembly of section .vector_16:

9d000400 <__vector_dispatch_16>:
9d000400:	0b4013b2 	j	9d004ec8 <.LFE0>
9d000404:	00000000 	nop

Disassembly of section .vector_17:

9d000420 <__vector_dispatch_17>:
9d000420:	0b4013b2 	j	9d004ec8 <.LFE0>
9d000424:	00000000 	nop

Disassembly of section .vector_18:

9d000440 <__vector_dispatch_18>:
9d000440:	0b4013b2 	j	9d004ec8 <.LFE0>
9d000444:	00000000 	nop

Disassembly of section .vector_19:

9d000460 <__vector_dispatch_19>:
9d000460:	0b4013b2 	j	9d004ec8 <.LFE0>
9d000464:	00000000 	nop

Disassembly of section .vector_20:

9d000480 <__vector_dispatch_20>:
9d000480:	0b4013b2 	j	9d004ec8 <.LFE0>
9d000484:	00000000 	nop

Disassembly of section .vector_21:

9d0004a0 <__vector_dispatch_21>:
9d0004a0:	0b4013b2 	j	9d004ec8 <.LFE0>
9d0004a4:	00000000 	nop

Disassembly of section .vector_22:

9d0004c0 <__vector_dispatch_22>:
9d0004c0:	0b4013b2 	j	9d004ec8 <.LFE0>
9d0004c4:	00000000 	nop

Disassembly of section .vector_23:

9d0004e0 <__vector_dispatch_23>:
9d0004e0:	0b4013b2 	j	9d004ec8 <.LFE0>
9d0004e4:	00000000 	nop

Disassembly of section .vector_24:

9d000500 <__vector_dispatch_24>:
9d000500:	0b4013b2 	j	9d004ec8 <.LFE0>
9d000504:	00000000 	nop

Disassembly of section .vector_25:

9d000520 <__vector_dispatch_25>:
9d000520:	0b4013b2 	j	9d004ec8 <.LFE0>
9d000524:	00000000 	nop

Disassembly of section .vector_26:

9d000540 <__vector_dispatch_26>:
9d000540:	0b4013b2 	j	9d004ec8 <.LFE0>
9d000544:	00000000 	nop

Disassembly of section .vector_27:

9d000560 <__vector_dispatch_27>:
9d000560:	0b4013b2 	j	9d004ec8 <.LFE0>
9d000564:	00000000 	nop

Disassembly of section .vector_28:

9d000580 <__vector_dispatch_28>:
9d000580:	0b4013b2 	j	9d004ec8 <.LFE0>
9d000584:	00000000 	nop

Disassembly of section .vector_29:

9d0005a0 <__vector_dispatch_29>:
9d0005a0:	0b4013b2 	j	9d004ec8 <.LFE0>
9d0005a4:	00000000 	nop

Disassembly of section .vector_30:

9d0005c0 <__vector_dispatch_30>:
9d0005c0:	0b4013b2 	j	9d004ec8 <.LFE0>
9d0005c4:	00000000 	nop

Disassembly of section .vector_31:

9d0005e0 <__vector_dispatch_31>:
9d0005e0:	0b4013b2 	j	9d004ec8 <.LFE0>
9d0005e4:	00000000 	nop

Disassembly of section .vector_32:

9d000600 <__vector_dispatch_32>:
9d000600:	0b4013b2 	j	9d004ec8 <.LFE0>
9d000604:	00000000 	nop

Disassembly of section .vector_33:

9d000620 <__vector_dispatch_33>:
9d000620:	0b4013b2 	j	9d004ec8 <.LFE0>
9d000624:	00000000 	nop

Disassembly of section .vector_34:

9d000640 <__vector_dispatch_34>:
9d000640:	0b4013b2 	j	9d004ec8 <.LFE0>
9d000644:	00000000 	nop

Disassembly of section .vector_35:

9d000660 <__vector_dispatch_35>:
9d000660:	0b4013b2 	j	9d004ec8 <.LFE0>
9d000664:	00000000 	nop

Disassembly of section .vector_36:

9d000680 <__vector_dispatch_36>:
9d000680:	0b4013b2 	j	9d004ec8 <.LFE0>
9d000684:	00000000 	nop

Disassembly of section .vector_37:

9d0006a0 <__vector_dispatch_37>:
9d0006a0:	0b4013b2 	j	9d004ec8 <.LFE0>
9d0006a4:	00000000 	nop

Disassembly of section .vector_38:

9d0006c0 <__vector_dispatch_38>:
9d0006c0:	0b4013b2 	j	9d004ec8 <.LFE0>
9d0006c4:	00000000 	nop

Disassembly of section .vector_39:

9d0006e0 <__vector_dispatch_39>:
9d0006e0:	0b4013b2 	j	9d004ec8 <.LFE0>
9d0006e4:	00000000 	nop

Disassembly of section .vector_40:

9d000700 <__vector_dispatch_40>:
9d000700:	0b4013b2 	j	9d004ec8 <.LFE0>
9d000704:	00000000 	nop

Disassembly of section .vector_41:

9d000720 <__vector_dispatch_41>:
9d000720:	0b4013b2 	j	9d004ec8 <.LFE0>
9d000724:	00000000 	nop

Disassembly of section .vector_42:

9d000740 <__vector_dispatch_42>:
9d000740:	0b4013b2 	j	9d004ec8 <.LFE0>
9d000744:	00000000 	nop

Disassembly of section .vector_43:

9d000760 <__vector_dispatch_43>:
9d000760:	0b4013b2 	j	9d004ec8 <.LFE0>
9d000764:	00000000 	nop

Disassembly of section .vector_44:

9d000780 <__vector_dispatch_44>:
9d000780:	0b4013b2 	j	9d004ec8 <.LFE0>
9d000784:	00000000 	nop

Disassembly of section .vector_45:

9d0007a0 <__vector_dispatch_45>:
9d0007a0:	0b4013b2 	j	9d004ec8 <.LFE0>
9d0007a4:	00000000 	nop

Disassembly of section .vector_46:

9d0007c0 <__vector_dispatch_46>:
9d0007c0:	0b4013b2 	j	9d004ec8 <.LFE0>
9d0007c4:	00000000 	nop

Disassembly of section .vector_47:

9d0007e0 <__vector_dispatch_47>:
9d0007e0:	0b4013b2 	j	9d004ec8 <.LFE0>
9d0007e4:	00000000 	nop

Disassembly of section .vector_48:

9d000800 <__vector_dispatch_48>:
9d000800:	0b4013b2 	j	9d004ec8 <.LFE0>
9d000804:	00000000 	nop

Disassembly of section .vector_49:

9d000820 <__vector_dispatch_49>:
9d000820:	0b4013b2 	j	9d004ec8 <.LFE0>
9d000824:	00000000 	nop

Disassembly of section .vector_50:

9d000840 <__vector_dispatch_50>:
9d000840:	0b4013b2 	j	9d004ec8 <.LFE0>
9d000844:	00000000 	nop

Disassembly of section .vector_51:

9d000860 <__vector_dispatch_51>:
9d000860:	0b4013b2 	j	9d004ec8 <.LFE0>
9d000864:	00000000 	nop

Disassembly of section ._debug_exception:

bfc00480 <__DbgExecReturn>:
bfc00480:	409bf800 	mtc0	k1,c0_desave
bfc00484:	000000c0 	ehb
bfc00488:	3c1b9d00 	lui	k1,0x9d00
bfc0048c:	277b4f10 	addiu	k1,k1,20240
bfc00490:	13600002 	beqz	k1,bfc0049c <__DbgExecReturn+0x1c>
bfc00494:	00000000 	nop
bfc00498:	409bc000 	mtc0	k1,c0_depc
bfc0049c:	401bf800 	mfc0	k1,c0_desave
bfc004a0:	000000c0 	ehb
bfc004a4:	4200001f 	deret
bfc004a8:	00000000 	nop

Disassembly of section .text._do_print_fF:

9d001e00 <_do_print_fF>:
9d001e00:	27bdff60 	addiu	sp,sp,-160
9d001e04:	afbf009c 	sw	ra,156(sp)
9d001e08:	afbe0098 	sw	s8,152(sp)
9d001e0c:	afb70094 	sw	s7,148(sp)
9d001e10:	afb60090 	sw	s6,144(sp)
9d001e14:	afb5008c 	sw	s5,140(sp)
9d001e18:	afb40088 	sw	s4,136(sp)
9d001e1c:	afb30084 	sw	s3,132(sp)
9d001e20:	afb20080 	sw	s2,128(sp)
9d001e24:	afb1007c 	sw	s1,124(sp)
9d001e28:	afb00078 	sw	s0,120(sp)
9d001e2c:	00809021 	move	s2,a0
9d001e30:	8c820018 	lw	v0,24(a0)
9d001e34:	00a0f021 	move	s8,a1
9d001e38:	24050001 	li	a1,1
9d001e3c:	8c420010 	lw	v0,16(v0)
9d001e40:	0040f809 	jalr	v0
9d001e44:	00c08821 	move	s1,a2
9d001e48:	10400158 	beqz	v0,9d0023ac <_do_print_fF+0x5ac>
9d001e4c:	00008021 	move	s0,zero
9d001e50:	83c40000 	lb	a0,0(s8)
9d001e54:	1080000b 	beqz	a0,9d001e84 <_do_print_fF+0x84>
9d001e58:	27d40001 	addiu	s4,s8,1
9d001e5c:	24020025 	li	v0,37
9d001e60:	50820019 	beql	a0,v0,9d001ec8 <_do_print_fF+0xc8>
9d001e64:	83c60001 	lb	a2,1(s8)
9d001e68:	0f4011cd 	jal	9d004734 <.LFE0>
9d001e6c:	02402821 	move	a1,s2
9d001e70:	26100001 	addiu	s0,s0,1
9d001e74:	0280f021 	move	s8,s4
9d001e78:	83c40000 	lb	a0,0(s8)
9d001e7c:	1480fff7 	bnez	a0,9d001e5c <_do_print_fF+0x5c>
9d001e80:	27d40001 	addiu	s4,s8,1
9d001e84:	96420010 	lhu	v0,16(s2)
9d001e88:	30420040 	andi	v0,v0,0x40
9d001e8c:	14400148 	bnez	v0,9d0023b0 <_do_print_fF+0x5b0>
9d001e90:	2402ffff 	li	v0,-1
9d001e94:	02001021 	move	v0,s0
9d001e98:	8fbf009c 	lw	ra,156(sp)
9d001e9c:	8fbe0098 	lw	s8,152(sp)
9d001ea0:	8fb70094 	lw	s7,148(sp)
9d001ea4:	8fb60090 	lw	s6,144(sp)
9d001ea8:	8fb5008c 	lw	s5,140(sp)
9d001eac:	8fb40088 	lw	s4,136(sp)
9d001eb0:	8fb30084 	lw	s3,132(sp)
9d001eb4:	8fb20080 	lw	s2,128(sp)
9d001eb8:	8fb1007c 	lw	s1,124(sp)
9d001ebc:	8fb00078 	lw	s0,120(sp)
9d001ec0:	03e00008 	jr	ra
9d001ec4:	27bd00a0 	addiu	sp,sp,160
9d001ec8:	10c4012e 	beq	a2,a0,9d002384 <_do_print_fF+0x584>
9d001ecc:	00009821 	move	s3,zero
9d001ed0:	2402002d 	li	v0,45
9d001ed4:	2403002b 	li	v1,43
9d001ed8:	24040020 	li	a0,32
9d001edc:	24050023 	li	a1,35
9d001ee0:	10c2000e 	beq	a2,v0,9d001f1c <_do_print_fF+0x11c>
9d001ee4:	24070030 	li	a3,48
9d001ee8:	50c30010 	beql	a2,v1,9d001f2c <_do_print_fF+0x12c>
9d001eec:	36730002 	ori	s3,s3,0x2
9d001ef0:	50c40011 	beql	a2,a0,9d001f38 <_do_print_fF+0x138>
9d001ef4:	36730001 	ori	s3,s3,0x1
9d001ef8:	50c50012 	beql	a2,a1,9d001f44 <_do_print_fF+0x144>
9d001efc:	36730800 	ori	s3,s3,0x800
9d001f00:	54c70013 	bnel	a2,a3,9d001f50 <_do_print_fF+0x150>
9d001f04:	2402002a 	li	v0,42
9d001f08:	36730004 	ori	s3,s3,0x4
9d001f0c:	26940001 	addiu	s4,s4,1
9d001f10:	82860000 	lb	a2,0(s4)
9d001f14:	14c2fff4 	bne	a2,v0,9d001ee8 <_do_print_fF+0xe8>
9d001f18:	00000000 	nop
9d001f1c:	36730008 	ori	s3,s3,0x8
9d001f20:	26940001 	addiu	s4,s4,1
9d001f24:	0b4007c5 	j	9d001f14 <_do_print_fF+0x114>
9d001f28:	82860000 	lb	a2,0(s4)
9d001f2c:	26940001 	addiu	s4,s4,1
9d001f30:	0b4007c5 	j	9d001f14 <_do_print_fF+0x114>
9d001f34:	82860000 	lb	a2,0(s4)
9d001f38:	26940001 	addiu	s4,s4,1
9d001f3c:	0b4007c5 	j	9d001f14 <_do_print_fF+0x114>
9d001f40:	82860000 	lb	a2,0(s4)
9d001f44:	26940001 	addiu	s4,s4,1
9d001f48:	0b4007c5 	j	9d001f14 <_do_print_fF+0x114>
9d001f4c:	82860000 	lb	a2,0(s4)
9d001f50:	10c200f4 	beq	a2,v0,9d002324 <_do_print_fF+0x524>
9d001f54:	02801821 	move	v1,s4
9d001f58:	24c2ffd0 	addiu	v0,a2,-48
9d001f5c:	2c42000a 	sltiu	v0,v0,10
9d001f60:	1040000b 	beqz	v0,9d001f90 <_do_print_fF+0x190>
9d001f64:	0000a821 	move	s5,zero
9d001f68:	00151040 	sll	v0,s5,0x1
9d001f6c:	001540c0 	sll	t0,s5,0x3
9d001f70:	00484021 	addu	t0,v0,t0
9d001f74:	26940001 	addiu	s4,s4,1
9d001f78:	01064021 	addu	t0,t0,a2
9d001f7c:	82860000 	lb	a2,0(s4)
9d001f80:	24c2ffd0 	addiu	v0,a2,-48
9d001f84:	2c42000a 	sltiu	v0,v0,10
9d001f88:	1440fff7 	bnez	v0,9d001f68 <_do_print_fF+0x168>
9d001f8c:	2515ffd0 	addiu	s5,t0,-48
9d001f90:	2402002e 	li	v0,46
9d001f94:	10c200cf 	beq	a2,v0,9d0022d4 <_do_print_fF+0x4d4>
9d001f98:	2417ffff 	li	s7,-1
9d001f9c:	24020068 	li	v0,104
9d001fa0:	10c200b9 	beq	a2,v0,9d002288 <_do_print_fF+0x488>
9d001fa4:	2402006c 	li	v0,108
9d001fa8:	10c200e6 	beq	a2,v0,9d002344 <_do_print_fF+0x544>
9d001fac:	24020071 	li	v0,113
9d001fb0:	10c200fa 	beq	a2,v0,9d00239c <_do_print_fF+0x59c>
9d001fb4:	2402004c 	li	v0,76
9d001fb8:	50c20169 	beql	a2,v0,9d002560 <_do_print_fF+0x760>
9d001fbc:	82860001 	lb	a2,1(s4)
9d001fc0:	32630002 	andi	v1,s3,0x2
9d001fc4:	3262fffe 	andi	v0,s3,0xfffe
9d001fc8:	0043980b 	movn	s3,v0,v1
9d001fcc:	24c2ffbc 	addiu	v0,a2,-68
9d001fd0:	32650008 	andi	a1,s3,0x8
9d001fd4:	3264fffb 	andi	a0,s3,0xfffb
9d001fd8:	2c430032 	sltiu	v1,v0,50
9d001fdc:	269e0001 	addiu	s8,s4,1
9d001fe0:	106000b9 	beqz	v1,9d0022c8 <_do_print_fF+0x4c8>
9d001fe4:	0085980b 	movn	s3,a0,a1
9d001fe8:	00021080 	sll	v0,v0,0x2
9d001fec:	3c039d00 	lui	v1,0x9d00
9d001ff0:	24632004 	addiu	v1,v1,8196
9d001ff4:	00621021 	addu	v0,v1,v0
9d001ff8:	8c420000 	lw	v0,0(v0)
9d001ffc:	00400008 	jr	v0
9d002000:	00000000 	nop
9d002004:	9d0020cc 	0x9d0020cc
9d002008:	9d0022c8 	0x9d0022c8
9d00200c:	9d00224c 	0x9d00224c
9d002010:	9d0022c8 	0x9d0022c8
9d002014:	9d0022c8 	0x9d0022c8
9d002018:	9d0022c8 	0x9d0022c8
9d00201c:	9d0022c8 	0x9d0022c8
9d002020:	9d0022c8 	0x9d0022c8
9d002024:	9d0022c8 	0x9d0022c8
9d002028:	9d0022c8 	0x9d0022c8
9d00202c:	9d0022c8 	0x9d0022c8
9d002030:	9d0022c8 	0x9d0022c8
9d002034:	9d0022c8 	0x9d0022c8
9d002038:	9d0022c8 	0x9d0022c8
9d00203c:	9d0022c8 	0x9d0022c8
9d002040:	9d0022c8 	0x9d0022c8
9d002044:	9d0022c8 	0x9d0022c8
9d002048:	9d0020d0 	0x9d0020d0
9d00204c:	9d0022c8 	0x9d0022c8
9d002050:	9d0022c8 	0x9d0022c8
9d002054:	9d0022c8 	0x9d0022c8
9d002058:	9d0022c8 	0x9d0022c8
9d00205c:	9d0022c8 	0x9d0022c8
9d002060:	9d0022c8 	0x9d0022c8
9d002064:	9d0022c8 	0x9d0022c8
9d002068:	9d0022c8 	0x9d0022c8
9d00206c:	9d0022c8 	0x9d0022c8
9d002070:	9d0022c8 	0x9d0022c8
9d002074:	9d0022c8 	0x9d0022c8
9d002078:	9d0022c8 	0x9d0022c8
9d00207c:	9d0022c8 	0x9d0022c8
9d002080:	9d0024a8 	0x9d0024a8
9d002084:	9d0022c8 	0x9d0022c8
9d002088:	9d0022c8 	0x9d0022c8
9d00208c:	9d002250 	0x9d002250
9d002090:	9d0022c8 	0x9d0022c8
9d002094:	9d0022c8 	0x9d0022c8
9d002098:	9d0022c8 	0x9d0022c8
9d00209c:	9d0022c8 	0x9d0022c8
9d0020a0:	9d0022c8 	0x9d0022c8
9d0020a4:	9d0022c8 	0x9d0022c8
9d0020a8:	9d0022c8 	0x9d0022c8
9d0020ac:	9d002470 	0x9d002470
9d0020b0:	9d0022c8 	0x9d0022c8
9d0020b4:	9d0022c8 	0x9d0022c8
9d0020b8:	9d0022c8 	0x9d0022c8
9d0020bc:	9d0022c8 	0x9d0022c8
9d0020c0:	9d002408 	0x9d002408
9d0020c4:	9d0022c8 	0x9d0022c8
9d0020c8:	9d0020d4 	0x9d0020d4
9d0020cc:	36730010 	ori	s3,s3,0x10
9d0020d0:	36730010 	ori	s3,s3,0x10
9d0020d4:	2402ffff 	li	v0,-1
9d0020d8:	52e20124 	beql	s7,v0,9d00256c <_do_print_fF+0x76c>
9d0020dc:	3273f7ff 	andi	s3,s3,0xf7ff
9d0020e0:	3273f7fb 	andi	s3,s3,0xf7fb
9d0020e4:	afb30060 	sw	s3,96(sp)
9d0020e8:	26e5ffff 	addiu	a1,s7,-1
9d0020ec:	8fa40060 	lw	a0,96(sp)
9d0020f0:	308400c0 	andi	a0,a0,0xc0
9d0020f4:	1080009a 	beqz	a0,9d002360 <_do_print_fF+0x560>
9d0020f8:	afa40064 	sw	a0,100(sp)
9d0020fc:	8fa30060 	lw	v1,96(sp)
9d002100:	7c031620 	seh	v0,v1
9d002104:	0442013a 	bltzl	v0,9d0025f0 <_do_print_fF+0x7f0>
9d002108:	26220007 	addiu	v0,s1,7
9d00210c:	8e360000 	lw	s6,0(s1)
9d002110:	0016a7c3 	sra	s4,s6,0x1f
9d002114:	068000f4 	bltz	s4,9d0024e8 <_do_print_fF+0x6e8>
9d002118:	26310004 	addiu	s1,s1,4
9d00211c:	afa0006c 	sw	zero,108(sp)
9d002120:	128000f9 	beqz	s4,9d002508 <_do_print_fF+0x708>
9d002124:	00000000 	nop
9d002128:	27a30057 	addiu	v1,sp,87
9d00212c:	afa30068 	sw	v1,104(sp)
9d002130:	02d41025 	or	v0,s6,s4
9d002134:	10400014 	beqz	v0,9d002188 <_do_print_fF+0x388>
9d002138:	00609821 	move	s3,v1
9d00213c:	02c02021 	move	a0,s6
9d002140:	02802821 	move	a1,s4
9d002144:	2406000a 	li	a2,10
9d002148:	0f400b29 	jal	9d002ca4 <__umoddi3>
9d00214c:	00003821 	move	a3,zero
9d002150:	24420030 	addiu	v0,v0,48
9d002154:	2673ffff 	addiu	s3,s3,-1
9d002158:	02c02021 	move	a0,s6
9d00215c:	02802821 	move	a1,s4
9d002160:	a2620001 	sb	v0,1(s3)
9d002164:	2406000a 	li	a2,10
9d002168:	0f400c42 	jal	9d003108 <__udivdi3>
9d00216c:	00003821 	move	a3,zero
9d002170:	00622025 	or	a0,v1,v0
9d002174:	0040b021 	move	s6,v0
9d002178:	0060a021 	move	s4,v1
9d00217c:	1480ffef 	bnez	a0,9d00213c <_do_print_fF+0x33c>
9d002180:	26f7ffff 	addiu	s7,s7,-1
9d002184:	26e5ffff 	addiu	a1,s7,-1
9d002188:	04a0000a 	bltz	a1,9d0021b4 <_do_print_fF+0x3b4>
9d00218c:	2664ffff 	addiu	a0,s3,-1
9d002190:	02601021 	move	v0,s3
9d002194:	00852023 	subu	a0,a0,a1
9d002198:	24030030 	li	v1,48
9d00219c:	a0430000 	sb	v1,0(v0)
9d0021a0:	2442ffff 	addiu	v0,v0,-1
9d0021a4:	5444fffe 	bnel	v0,a0,9d0021a0 <_do_print_fF+0x3a0>
9d0021a8:	a0430000 	sb	v1,0(v0)
9d0021ac:	00052827 	nor	a1,zero,a1
9d0021b0:	02659821 	addu	s3,s3,a1
9d0021b4:	8fa40060 	lw	a0,96(sp)
9d0021b8:	30820004 	andi	v0,a0,0x4
9d0021bc:	10400010 	beqz	v0,9d002200 <_do_print_fF+0x400>
9d0021c0:	8fa20064 	lw	v0,100(sp)
9d0021c4:	8fa20068 	lw	v0,104(sp)
9d0021c8:	02621823 	subu	v1,s3,v0
9d0021cc:	8fa40064 	lw	a0,100(sp)
9d0021d0:	148000c0 	bnez	a0,9d0024d4 <_do_print_fF+0x6d4>
9d0021d4:	02a31821 	addu	v1,s5,v1
9d0021d8:	18600008 	blez	v1,9d0021fc <_do_print_fF+0x3fc>
9d0021dc:	02601021 	move	v0,s3
9d0021e0:	02635023 	subu	t2,s3,v1
9d0021e4:	24030030 	li	v1,48
9d0021e8:	a0430000 	sb	v1,0(v0)
9d0021ec:	2442ffff 	addiu	v0,v0,-1
9d0021f0:	5542fffe 	bnel	t2,v0,9d0021ec <_do_print_fF+0x3ec>
9d0021f4:	a0430000 	sb	v1,0(v0)
9d0021f8:	01409821 	move	s3,t2
9d0021fc:	8fa20064 	lw	v0,100(sp)
9d002200:	10400008 	beqz	v0,9d002224 <_do_print_fF+0x424>
9d002204:	8fa3006c 	lw	v1,108(sp)
9d002208:	146000dc 	bnez	v1,9d00257c <_do_print_fF+0x77c>
9d00220c:	8fa40060 	lw	a0,96(sp)
9d002210:	30820002 	andi	v0,a0,0x2
9d002214:	10400003 	beqz	v0,9d002224 <_do_print_fF+0x424>
9d002218:	2402002b 	li	v0,43
9d00221c:	a2620000 	sb	v0,0(s3)
9d002220:	2673ffff 	addiu	s3,s3,-1
9d002224:	26650001 	addiu	a1,s3,1
9d002228:	8fa20060 	lw	v0,96(sp)
9d00222c:	afa20010 	sw	v0,16(sp)
9d002230:	02402021 	move	a0,s2
9d002234:	27a60058 	addiu	a2,sp,88
9d002238:	00c53023 	subu	a2,a2,a1
9d00223c:	0f400fdd 	jal	9d003f74 <_outcnvrt>
9d002240:	02a03821 	move	a3,s5
9d002244:	0b400794 	j	9d001e50 <_do_print_fF+0x50>
9d002248:	02028021 	addu	s0,s0,v0
9d00224c:	36730020 	ori	s3,s3,0x20
9d002250:	32620080 	andi	v0,s3,0x80
9d002254:	14400062 	bnez	v0,9d0023e0 <_do_print_fF+0x5e0>
9d002258:	36730400 	ori	s3,s3,0x400
9d00225c:	8e220000 	lw	v0,0(s1)
9d002260:	26310004 	addiu	s1,s1,4
9d002264:	afa20058 	sw	v0,88(sp)
9d002268:	8fa50058 	lw	a1,88(sp)
9d00226c:	afb70010 	sw	s7,16(sp)
9d002270:	afb30014 	sw	s3,20(sp)
9d002274:	02402021 	move	a0,s2
9d002278:	0f4009b1 	jal	9d0026c4 <_fconvert>
9d00227c:	02a03821 	move	a3,s5
9d002280:	0b400794 	j	9d001e50 <_do_print_fF+0x50>
9d002284:	02028021 	addu	s0,s0,v0
9d002288:	82820001 	lb	v0,1(s4)
9d00228c:	504600d0 	beql	v0,a2,9d0025d0 <_do_print_fF+0x7d0>
9d002290:	82860002 	lb	a2,2(s4)
9d002294:	36730040 	ori	s3,s3,0x40
9d002298:	00403021 	move	a2,v0
9d00229c:	26940001 	addiu	s4,s4,1
9d0022a0:	32630002 	andi	v1,s3,0x2
9d0022a4:	3262fffe 	andi	v0,s3,0xfffe
9d0022a8:	0043980b 	movn	s3,v0,v1
9d0022ac:	24c2ffbc 	addiu	v0,a2,-68
9d0022b0:	32650008 	andi	a1,s3,0x8
9d0022b4:	3264fffb 	andi	a0,s3,0xfffb
9d0022b8:	2c430032 	sltiu	v1,v0,50
9d0022bc:	269e0001 	addiu	s8,s4,1
9d0022c0:	1460ff49 	bnez	v1,9d001fe8 <_do_print_fF+0x1e8>
9d0022c4:	0085980b 	movn	s3,a0,a1
9d0022c8:	00001021 	move	v0,zero
9d0022cc:	0b400794 	j	9d001e50 <_do_print_fF+0x50>
9d0022d0:	02028021 	addu	s0,s0,v0
9d0022d4:	82860001 	lb	a2,1(s4)
9d0022d8:	2402002a 	li	v0,42
9d0022dc:	10c200b4 	beq	a2,v0,9d0025b0 <_do_print_fF+0x7b0>
9d0022e0:	24c2ffd0 	addiu	v0,a2,-48
9d0022e4:	2c42000a 	sltiu	v0,v0,10
9d0022e8:	26940001 	addiu	s4,s4,1
9d0022ec:	1040ff2b 	beqz	v0,9d001f9c <_do_print_fF+0x19c>
9d0022f0:	0000b821 	move	s7,zero
9d0022f4:	00171040 	sll	v0,s7,0x1
9d0022f8:	001748c0 	sll	t1,s7,0x3
9d0022fc:	00494821 	addu	t1,v0,t1
9d002300:	26940001 	addiu	s4,s4,1
9d002304:	01264821 	addu	t1,t1,a2
9d002308:	82860000 	lb	a2,0(s4)
9d00230c:	24c2ffd0 	addiu	v0,a2,-48
9d002310:	2c42000a 	sltiu	v0,v0,10
9d002314:	1440fff7 	bnez	v0,9d0022f4 <_do_print_fF+0x4f4>
9d002318:	2537ffd0 	addiu	s7,t1,-48
9d00231c:	0b4007e8 	j	9d001fa0 <_do_print_fF+0x1a0>
9d002320:	24020068 	li	v0,104
9d002324:	8e350000 	lw	s5,0(s1)
9d002328:	26310004 	addiu	s1,s1,4
9d00232c:	26940001 	addiu	s4,s4,1
9d002330:	06a1ff17 	bgez	s5,9d001f90 <_do_print_fF+0x190>
9d002334:	80660001 	lb	a2,1(v1)
9d002338:	36730008 	ori	s3,s3,0x8
9d00233c:	0b4007e4 	j	9d001f90 <_do_print_fF+0x190>
9d002340:	0015a823 	negu	s5,s5
9d002344:	82820001 	lb	v0,1(s4)
9d002348:	504600a5 	beql	v0,a2,9d0025e0 <_do_print_fF+0x7e0>
9d00234c:	82860002 	lb	a2,2(s4)
9d002350:	36730010 	ori	s3,s3,0x10
9d002354:	00403021 	move	a2,v0
9d002358:	0b4008a8 	j	9d0022a0 <_do_print_fF+0x4a0>
9d00235c:	26940001 	addiu	s4,s4,1
9d002360:	8fa40060 	lw	a0,96(sp)
9d002364:	7c041620 	seh	v0,a0
9d002368:	044000a8 	bltz	v0,9d00260c <_do_print_fF+0x80c>
9d00236c:	26220007 	addiu	v0,s1,7
9d002370:	8e360000 	lw	s6,0(s1)
9d002374:	0000a021 	move	s4,zero
9d002378:	26310004 	addiu	s1,s1,4
9d00237c:	0b400848 	j	9d002120 <_do_print_fF+0x320>
9d002380:	afa0006c 	sw	zero,108(sp)
9d002384:	24040025 	li	a0,37
9d002388:	0f4011cd 	jal	9d004734 <.LFE0>
9d00238c:	02402821 	move	a1,s2
9d002390:	27de0002 	addiu	s8,s8,2
9d002394:	0b400794 	j	9d001e50 <_do_print_fF+0x50>
9d002398:	26100001 	addiu	s0,s0,1
9d00239c:	82860001 	lb	a2,1(s4)
9d0023a0:	36738000 	ori	s3,s3,0x8000
9d0023a4:	0b4007f0 	j	9d001fc0 <_do_print_fF+0x1c0>
9d0023a8:	26940001 	addiu	s4,s4,1
9d0023ac:	2402ffff 	li	v0,-1
9d0023b0:	8fbf009c 	lw	ra,156(sp)
9d0023b4:	8fbe0098 	lw	s8,152(sp)
9d0023b8:	8fb70094 	lw	s7,148(sp)
9d0023bc:	8fb60090 	lw	s6,144(sp)
9d0023c0:	8fb5008c 	lw	s5,140(sp)
9d0023c4:	8fb40088 	lw	s4,136(sp)
9d0023c8:	8fb30084 	lw	s3,132(sp)
9d0023cc:	8fb20080 	lw	s2,128(sp)
9d0023d0:	8fb1007c 	lw	s1,124(sp)
9d0023d4:	8fb00078 	lw	s0,120(sp)
9d0023d8:	03e00008 	jr	ra
9d0023dc:	27bd00a0 	addiu	sp,sp,160
9d0023e0:	26310007 	addiu	s1,s1,7
9d0023e4:	7c111004 	ins	s1,zero,0x0,0x3
9d0023e8:	8e240000 	lw	a0,0(s1)
9d0023ec:	8e250004 	lw	a1,4(s1)
9d0023f0:	26310008 	addiu	s1,s1,8
9d0023f4:	0f401074 	jal	9d0041d0 <__truncdfsf2>
9d0023f8:	afa60070 	sw	a2,112(sp)
9d0023fc:	afa20058 	sw	v0,88(sp)
9d002400:	0b40089a 	j	9d002268 <_do_print_fF+0x468>
9d002404:	8fa60070 	lw	a2,112(sp)
9d002408:	8e250000 	lw	a1,0(s1)
9d00240c:	3c039d00 	lui	v1,0x9d00
9d002410:	24624c98 	addiu	v0,v1,19608
9d002414:	0045280a 	movz	a1,v0,a1
9d002418:	2402ffff 	li	v0,-1
9d00241c:	12e2008b 	beq	s7,v0,9d00264c <_do_print_fF+0x84c>
9d002420:	26310004 	addiu	s1,s1,4
9d002424:	1ae0009e 	blez	s7,9d0026a0 <_do_print_fF+0x8a0>
9d002428:	00b74821 	addu	t1,a1,s7
9d00242c:	80a30000 	lb	v1,0(a1)
9d002430:	14600005 	bnez	v1,9d002448 <_do_print_fF+0x648>
9d002434:	00a01021 	move	v0,a1
9d002438:	0b400916 	j	9d002458 <_do_print_fF+0x658>
9d00243c:	00003021 	move	a2,zero
9d002440:	10600005 	beqz	v1,9d002458 <_do_print_fF+0x658>
9d002444:	00453023 	subu	a2,v0,a1
9d002448:	24420001 	addiu	v0,v0,1
9d00244c:	5449fffc 	bnel	v0,t1,9d002440 <_do_print_fF+0x640>
9d002450:	80430000 	lb	v1,0(v0)
9d002454:	00453023 	subu	a2,v0,a1
9d002458:	afb30010 	sw	s3,16(sp)
9d00245c:	02402021 	move	a0,s2
9d002460:	0f400fdd 	jal	9d003f74 <_outcnvrt>
9d002464:	02a03821 	move	a3,s5
9d002468:	0b400794 	j	9d001e50 <_do_print_fF+0x50>
9d00246c:	02028021 	addu	s0,s0,v0
9d002470:	7c131620 	seh	v0,s3
9d002474:	0440007b 	bltz	v0,9d002664 <_do_print_fF+0x864>
9d002478:	32620010 	andi	v0,s3,0x10
9d00247c:	5440006e 	bnezl	v0,9d002638 <_do_print_fF+0x838>
9d002480:	8e230000 	lw	v1,0(s1)
9d002484:	32620040 	andi	v0,s3,0x40
9d002488:	5040007e 	beqzl	v0,9d002684 <_do_print_fF+0x884>
9d00248c:	32730001 	andi	s3,s3,0x1
9d002490:	8e230000 	lw	v1,0(s1)
9d002494:	00001021 	move	v0,zero
9d002498:	26310004 	addiu	s1,s1,4
9d00249c:	a4700000 	sh	s0,0(v1)
9d0024a0:	0b400794 	j	9d001e50 <_do_print_fF+0x50>
9d0024a4:	02028021 	addu	s0,s0,v0
9d0024a8:	8e220000 	lw	v0,0(s1)
9d0024ac:	26310004 	addiu	s1,s1,4
9d0024b0:	afb30010 	sw	s3,16(sp)
9d0024b4:	02402021 	move	a0,s2
9d0024b8:	27a50018 	addiu	a1,sp,24
9d0024bc:	24060001 	li	a2,1
9d0024c0:	02a03821 	move	a3,s5
9d0024c4:	0f400fdd 	jal	9d003f74 <_outcnvrt>
9d0024c8:	a3a20018 	sb	v0,24(sp)
9d0024cc:	0b400794 	j	9d001e50 <_do_print_fF+0x50>
9d0024d0:	02028021 	addu	s0,s0,v0
9d0024d4:	8fa2006c 	lw	v0,108(sp)
9d0024d8:	10400052 	beqz	v0,9d002624 <_do_print_fF+0x824>
9d0024dc:	8fa40060 	lw	a0,96(sp)
9d0024e0:	0b400876 	j	9d0021d8 <_do_print_fF+0x3d8>
9d0024e4:	2463ffff 	addiu	v1,v1,-1
9d0024e8:	00166823 	negu	t5,s6
9d0024ec:	000d102b 	sltu	v0,zero,t5
9d0024f0:	00146023 	negu	t4,s4
9d0024f4:	01a0b021 	move	s6,t5
9d0024f8:	0182a023 	subu	s4,t4,v0
9d0024fc:	24020001 	li	v0,1
9d002500:	1680ff09 	bnez	s4,9d002128 <_do_print_fF+0x328>
9d002504:	afa2006c 	sw	v0,108(sp)
9d002508:	12c00067 	beqz	s6,9d0026a8 <_do_print_fF+0x8a8>
9d00250c:	02c06821 	move	t5,s6
9d002510:	27a40057 	addiu	a0,sp,87
9d002514:	afa40068 	sw	a0,104(sp)
9d002518:	00809821 	move	s3,a0
9d00251c:	3c02cccc 	lui	v0,0xcccc
9d002520:	3442cccd 	ori	v0,v0,0xcccd
9d002524:	01a20019 	multu	t5,v0
9d002528:	00001810 	mfhi	v1
9d00252c:	2673ffff 	addiu	s3,s3,-1
9d002530:	26f7ffff 	addiu	s7,s7,-1
9d002534:	000310c2 	srl	v0,v1,0x3
9d002538:	00022040 	sll	a0,v0,0x1
9d00253c:	000210c0 	sll	v0,v0,0x3
9d002540:	00821021 	addu	v0,a0,v0
9d002544:	01a21023 	subu	v0,t5,v0
9d002548:	24420030 	addiu	v0,v0,48
9d00254c:	000368c2 	srl	t5,v1,0x3
9d002550:	15a0fff2 	bnez	t5,9d00251c <_do_print_fF+0x71c>
9d002554:	a2620001 	sb	v0,1(s3)
9d002558:	0b400862 	j	9d002188 <_do_print_fF+0x388>
9d00255c:	26e5ffff 	addiu	a1,s7,-1
9d002560:	36730080 	ori	s3,s3,0x80
9d002564:	0b4008a8 	j	9d0022a0 <_do_print_fF+0x4a0>
9d002568:	26940001 	addiu	s4,s4,1
9d00256c:	afb30060 	sw	s3,96(sp)
9d002570:	00002821 	move	a1,zero
9d002574:	0b40083b 	j	9d0020ec <_do_print_fF+0x2ec>
9d002578:	24170001 	li	s7,1
9d00257c:	2402002d 	li	v0,45
9d002580:	a2620000 	sb	v0,0(s3)
9d002584:	2673ffff 	addiu	s3,s3,-1
9d002588:	26650001 	addiu	a1,s3,1
9d00258c:	8fa20060 	lw	v0,96(sp)
9d002590:	afa20010 	sw	v0,16(sp)
9d002594:	02402021 	move	a0,s2
9d002598:	27a60058 	addiu	a2,sp,88
9d00259c:	00c53023 	subu	a2,a2,a1
9d0025a0:	0f400fdd 	jal	9d003f74 <_outcnvrt>
9d0025a4:	02a03821 	move	a3,s5
9d0025a8:	0b400794 	j	9d001e50 <_do_print_fF+0x50>
9d0025ac:	02028021 	addu	s0,s0,v0
9d0025b0:	8e370000 	lw	s7,0(s1)
9d0025b4:	26310004 	addiu	s1,s1,4
9d0025b8:	26820002 	addiu	v0,s4,2
9d0025bc:	82860002 	lb	a2,2(s4)
9d0025c0:	06e1fe76 	bgez	s7,9d001f9c <_do_print_fF+0x19c>
9d0025c4:	0040a021 	move	s4,v0
9d0025c8:	0b4007e7 	j	9d001f9c <_do_print_fF+0x19c>
9d0025cc:	2417ffff 	li	s7,-1
9d0025d0:	36730001 	ori	s3,s3,0x1
9d0025d4:	26940001 	addiu	s4,s4,1
9d0025d8:	0b4008a8 	j	9d0022a0 <_do_print_fF+0x4a0>
9d0025dc:	26940001 	addiu	s4,s4,1
9d0025e0:	36738000 	ori	s3,s3,0x8000
9d0025e4:	26940001 	addiu	s4,s4,1
9d0025e8:	0b4008a8 	j	9d0022a0 <_do_print_fF+0x4a0>
9d0025ec:	26940001 	addiu	s4,s4,1
9d0025f0:	7c021004 	ins	v0,zero,0x0,0x3
9d0025f4:	24510008 	addiu	s1,v0,8
9d0025f8:	8c540004 	lw	s4,4(v0)
9d0025fc:	0681fec7 	bgez	s4,9d00211c <_do_print_fF+0x31c>
9d002600:	8c560000 	lw	s6,0(v0)
9d002604:	0b40093b 	j	9d0024ec <_do_print_fF+0x6ec>
9d002608:	00166823 	negu	t5,s6
9d00260c:	7c021004 	ins	v0,zero,0x0,0x3
9d002610:	24510008 	addiu	s1,v0,8
9d002614:	8c560000 	lw	s6,0(v0)
9d002618:	8c540004 	lw	s4,4(v0)
9d00261c:	0b400848 	j	9d002120 <_do_print_fF+0x320>
9d002620:	afa0006c 	sw	zero,108(sp)
9d002624:	30820003 	andi	v0,a0,0x3
9d002628:	5440feeb 	bnezl	v0,9d0021d8 <_do_print_fF+0x3d8>
9d00262c:	2463ffff 	addiu	v1,v1,-1
9d002630:	0b400876 	j	9d0021d8 <_do_print_fF+0x3d8>
9d002634:	00000000 	nop
9d002638:	00001021 	move	v0,zero
9d00263c:	26310004 	addiu	s1,s1,4
9d002640:	ac700000 	sw	s0,0(v1)
9d002644:	0b400794 	j	9d001e50 <_do_print_fF+0x50>
9d002648:	02028021 	addu	s0,s0,v0
9d00264c:	00a02021 	move	a0,a1
9d002650:	0f401246 	jal	9d004918 <strlen>
9d002654:	afa50070 	sw	a1,112(sp)
9d002658:	00403021 	move	a2,v0
9d00265c:	0b400916 	j	9d002458 <_do_print_fF+0x658>
9d002660:	8fa50070 	lw	a1,112(sp)
9d002664:	8e220000 	lw	v0,0(s1)
9d002668:	00101fc3 	sra	v1,s0,0x1f
9d00266c:	26310004 	addiu	s1,s1,4
9d002670:	ac500000 	sw	s0,0(v0)
9d002674:	ac430004 	sw	v1,4(v0)
9d002678:	00001021 	move	v0,zero
9d00267c:	0b400794 	j	9d001e50 <_do_print_fF+0x50>
9d002680:	02028021 	addu	s0,s0,v0
9d002684:	8e230000 	lw	v1,0(s1)
9d002688:	00001021 	move	v0,zero
9d00268c:	1260000a 	beqz	s3,9d0026b8 <_do_print_fF+0x8b8>
9d002690:	26310004 	addiu	s1,s1,4
9d002694:	a0700000 	sb	s0,0(v1)
9d002698:	0b400794 	j	9d001e50 <_do_print_fF+0x50>
9d00269c:	02028021 	addu	s0,s0,v0
9d0026a0:	0b400916 	j	9d002458 <_do_print_fF+0x658>
9d0026a4:	00003021 	move	a2,zero
9d0026a8:	27a30057 	addiu	v1,sp,87
9d0026ac:	afa30068 	sw	v1,104(sp)
9d0026b0:	0b400862 	j	9d002188 <_do_print_fF+0x388>
9d0026b4:	00609821 	move	s3,v1
9d0026b8:	ac700000 	sw	s0,0(v1)
9d0026bc:	0b400794 	j	9d001e50 <_do_print_fF+0x50>
9d0026c0:	02028021 	addu	s0,s0,v0

Disassembly of section .text._fconvert:

9d0026c4 <_fconvert>:
9d0026c4:	27bdfda0 	addiu	sp,sp,-608
9d0026c8:	afbf025c 	sw	ra,604(sp)
9d0026cc:	afbe0258 	sw	s8,600(sp)
9d0026d0:	afb70254 	sw	s7,596(sp)
9d0026d4:	afb60250 	sw	s6,592(sp)
9d0026d8:	afb5024c 	sw	s5,588(sp)
9d0026dc:	afb40248 	sw	s4,584(sp)
9d0026e0:	afb30244 	sw	s3,580(sp)
9d0026e4:	afb20240 	sw	s2,576(sp)
9d0026e8:	afb1023c 	sw	s1,572(sp)
9d0026ec:	afb00238 	sw	s0,568(sp)
9d0026f0:	00a08021 	move	s0,a1
9d0026f4:	3c027f80 	lui	v0,0x7f80
9d0026f8:	00451824 	and	v1,v0,a1
9d0026fc:	afa40260 	sw	a0,608(sp)
9d002700:	afa60268 	sw	a2,616(sp)
9d002704:	00e0b821 	move	s7,a3
9d002708:	8fb50270 	lw	s5,624(sp)
9d00270c:	97a40274 	lhu	a0,628(sp)
9d002710:	106200d3 	beq	v1,v0,9d002a60 <_fconvert+0x39c>
9d002714:	afa40228 	sw	a0,552(sp)
9d002718:	2402ffff 	li	v0,-1
9d00271c:	12a2011e 	beq	s5,v0,9d002b98 <_fconvert+0x4d4>
9d002720:	2aa20028 	slti	v0,s5,40
9d002724:	14400009 	bnez	v0,9d00274c <_fconvert+0x88>
9d002728:	afa0022c 	sw	zero,556(sp)
9d00272c:	8fa30268 	lw	v1,616(sp)
9d002730:	7c032944 	ins	v1,zero,0x5,0x1
9d002734:	24020047 	li	v0,71
9d002738:	10620134 	beq	v1,v0,9d002c0c <_fconvert+0x548>
9d00273c:	8fa30228 	lw	v1,552(sp)
9d002740:	26b5ffd9 	addiu	s5,s5,-39
9d002744:	afb5022c 	sw	s5,556(sp)
9d002748:	24150027 	li	s5,39
9d00274c:	a3a00019 	sb	zero,25(sp)
9d002750:	06000069 	bltz	s0,9d0028f8 <_fconvert+0x234>
9d002754:	afa00230 	sw	zero,560(sp)
9d002758:	02002021 	move	a0,s0
9d00275c:	0f401163 	jal	9d00458c <fpmodf>
9d002760:	27a50224 	addiu	a1,sp,548
9d002764:	0040b021 	move	s6,v0
9d002768:	8fbe0224 	lw	s8,548(sp)
9d00276c:	00002821 	move	a1,zero
9d002770:	0f40121f 	jal	9d00487c <__eqsf2>
9d002774:	03c02021 	move	a0,s8
9d002778:	1040012e 	beqz	v0,9d002c34 <_fconvert+0x570>
9d00277c:	3c029d00 	lui	v0,0x9d00
9d002780:	3c109d00 	lui	s0,0x9d00
9d002784:	8e124ce0 	lw	s2,19680(s0)
9d002788:	8c544ce4 	lw	s4,19684(v0)
9d00278c:	00008821 	move	s1,zero
9d002790:	27b00218 	addiu	s0,sp,536
9d002794:	02409821 	move	s3,s2
9d002798:	03c02021 	move	a0,s8
9d00279c:	0f400df6 	jal	9d0037d8 <__divsf3>
9d0027a0:	02402821 	move	a1,s2
9d0027a4:	00402021 	move	a0,v0
9d0027a8:	0f401163 	jal	9d00458c <fpmodf>
9d0027ac:	27a50224 	addiu	a1,sp,548
9d0027b0:	00402021 	move	a0,v0
9d0027b4:	02802821 	move	a1,s4
9d0027b8:	0f400d5a 	jal	9d003568 <__addsf3>
9d0027bc:	afa20220 	sw	v0,544(sp)
9d0027c0:	00402021 	move	a0,v0
9d0027c4:	0f400f6e 	jal	9d003db8 <.LFE9>
9d0027c8:	02602821 	move	a1,s3
9d0027cc:	0f4012cc 	jal	9d004b30 <__fixsfsi>
9d0027d0:	00402021 	move	a0,v0
9d0027d4:	8fbe0224 	lw	s8,548(sp)
9d0027d8:	2610ffff 	addiu	s0,s0,-1
9d0027dc:	24420030 	addiu	v0,v0,48
9d0027e0:	03c02021 	move	a0,s8
9d0027e4:	00002821 	move	a1,zero
9d0027e8:	a2020001 	sb	v0,1(s0)
9d0027ec:	0f40121f 	jal	9d00487c <__eqsf2>
9d0027f0:	26310001 	addiu	s1,s1,1
9d0027f4:	1440ffe9 	bnez	v0,9d00279c <_fconvert+0xd8>
9d0027f8:	03c02021 	move	a0,s8
9d0027fc:	24020046 	li	v0,70
9d002800:	8fa30268 	lw	v1,616(sp)
9d002804:	10620041 	beq	v1,v0,9d00290c <_fconvert+0x248>
9d002808:	24020066 	li	v0,102
9d00280c:	1062003f 	beq	v1,v0,9d00290c <_fconvert+0x248>
9d002810:	00009821 	move	s3,zero
9d002814:	83a40019 	lb	a0,25(sp)
9d002818:	27a20019 	addiu	v0,sp,25
9d00281c:	27a3001a 	addiu	v1,sp,26
9d002820:	0064100a 	movz	v0,v1,a0
9d002824:	8fa30230 	lw	v1,560(sp)
9d002828:	10600027 	beqz	v1,9d0028c8 <_fconvert+0x204>
9d00282c:	8fa40228 	lw	a0,552(sp)
9d002830:	2452ffff 	addiu	s2,v0,-1
9d002834:	a043ffff 	sb	v1,-1(v0)
9d002838:	26730001 	addiu	s3,s3,1
9d00283c:	8fa30228 	lw	v1,552(sp)
9d002840:	30710008 	andi	s1,v1,0x8
9d002844:	3231ffff 	andi	s1,s1,0xffff
9d002848:	8fa3022c 	lw	v1,556(sp)
9d00284c:	1620006f 	bnez	s1,9d002a0c <_fconvert+0x348>
9d002850:	02638021 	addu	s0,s3,v1
9d002854:	0217102a 	slt	v0,s0,s7
9d002858:	1040006d 	beqz	v0,9d002a10 <_fconvert+0x34c>
9d00285c:	02402021 	move	a0,s2
9d002860:	8fa30228 	lw	v1,552(sp)
9d002864:	30620004 	andi	v0,v1,0x4
9d002868:	8fa40260 	lw	a0,608(sp)
9d00286c:	104000ec 	beqz	v0,9d002c20 <_fconvert+0x55c>
9d002870:	02f02823 	subu	a1,s7,s0
9d002874:	3c069d00 	lui	a2,0x9d00
9d002878:	0f4011f8 	jal	9d0047e0 <repl>
9d00287c:	24c64ca0 	addiu	a2,a2,19616
9d002880:	2403ffff 	li	v1,-1
9d002884:	14430062 	bne	v0,v1,9d002a10 <_fconvert+0x34c>
9d002888:	02402021 	move	a0,s2
9d00288c:	0217102a 	slt	v0,s0,s7
9d002890:	0202b80a 	movz	s7,s0,v0
9d002894:	02e01021 	move	v0,s7
9d002898:	8fbf025c 	lw	ra,604(sp)
9d00289c:	8fbe0258 	lw	s8,600(sp)
9d0028a0:	8fb70254 	lw	s7,596(sp)
9d0028a4:	8fb60250 	lw	s6,592(sp)
9d0028a8:	8fb5024c 	lw	s5,588(sp)
9d0028ac:	8fb40248 	lw	s4,584(sp)
9d0028b0:	8fb30244 	lw	s3,580(sp)
9d0028b4:	8fb20240 	lw	s2,576(sp)
9d0028b8:	8fb1023c 	lw	s1,572(sp)
9d0028bc:	8fb00238 	lw	s0,568(sp)
9d0028c0:	03e00008 	jr	ra
9d0028c4:	27bd0260 	addiu	sp,sp,608
9d0028c8:	30830002 	andi	v1,a0,0x2
9d0028cc:	546000b9 	bnezl	v1,9d002bb4 <_fconvert+0x4f0>
9d0028d0:	2452ffff 	addiu	s2,v0,-1
9d0028d4:	8fa40228 	lw	a0,552(sp)
9d0028d8:	30830001 	andi	v1,a0,0x1
9d0028dc:	1060ffd7 	beqz	v1,9d00283c <_fconvert+0x178>
9d0028e0:	00409021 	move	s2,v0
9d0028e4:	2452ffff 	addiu	s2,v0,-1
9d0028e8:	24030020 	li	v1,32
9d0028ec:	a043ffff 	sb	v1,-1(v0)
9d0028f0:	0b400a0f 	j	9d00283c <_fconvert+0x178>
9d0028f4:	26730001 	addiu	s3,s3,1
9d0028f8:	3c028000 	lui	v0,0x8000
9d0028fc:	00508026 	xor	s0,v0,s0
9d002900:	2403002d 	li	v1,45
9d002904:	0b4009d6 	j	9d002758 <_fconvert+0x94>
9d002908:	afa30230 	sw	v1,560(sp)
9d00290c:	1220006f 	beqz	s1,9d002acc <_fconvert+0x408>
9d002910:	24020030 	li	v0,48
9d002914:	26020001 	addiu	v0,s0,1
9d002918:	27a50219 	addiu	a1,sp,537
9d00291c:	0045182b 	sltu	v1,v0,a1
9d002920:	106000d9 	beqz	v1,9d002c88 <_fconvert+0x5c4>
9d002924:	27b2001a 	addiu	s2,sp,26
9d002928:	02401821 	move	v1,s2
9d00292c:	80440000 	lb	a0,0(v0)
9d002930:	24630001 	addiu	v1,v1,1
9d002934:	24420001 	addiu	v0,v0,1
9d002938:	1445fffc 	bne	v0,a1,9d00292c <_fconvert+0x268>
9d00293c:	a064ffff 	sb	a0,-1(v1)
9d002940:	03b08023 	subu	s0,sp,s0
9d002944:	26100218 	addiu	s0,s0,536
9d002948:	02508021 	addu	s0,s2,s0
9d00294c:	12a00064 	beqz	s5,9d002ae0 <_fconvert+0x41c>
9d002950:	8fa30228 	lw	v1,552(sp)
9d002954:	02c02021 	move	a0,s6
9d002958:	00002821 	move	a1,zero
9d00295c:	26130001 	addiu	s3,s0,1
9d002960:	2402002e 	li	v0,46
9d002964:	0f40121f 	jal	9d00487c <__eqsf2>
9d002968:	a2020000 	sb	v0,0(s0)
9d00296c:	10400082 	beqz	v0,9d002b78 <_fconvert+0x4b4>
9d002970:	26a3ffff 	addiu	v1,s5,-1
9d002974:	3c109d00 	lui	s0,0x9d00
9d002978:	0b400a64 	j	9d002990 <_fconvert+0x2cc>
9d00297c:	8e114ce0 	lw	s1,19680(s0)
9d002980:	0f40121f 	jal	9d00487c <__eqsf2>
9d002984:	00000000 	nop
9d002988:	1040007b 	beqz	v0,9d002b78 <_fconvert+0x4b4>
9d00298c:	26a3ffff 	addiu	v1,s5,-1
9d002990:	02c02021 	move	a0,s6
9d002994:	0f400f6e 	jal	9d003db8 <.LFE9>
9d002998:	02202821 	move	a1,s1
9d00299c:	00402021 	move	a0,v0
9d0029a0:	0f401163 	jal	9d00458c <fpmodf>
9d0029a4:	27a50220 	addiu	a1,sp,544
9d0029a8:	0040b021 	move	s6,v0
9d0029ac:	8fa40220 	lw	a0,544(sp)
9d0029b0:	26730001 	addiu	s3,s3,1
9d0029b4:	0f4012cc 	jal	9d004b30 <__fixsfsi>
9d0029b8:	26b5ffff 	addiu	s5,s5,-1
9d0029bc:	02c02021 	move	a0,s6
9d0029c0:	00002821 	move	a1,zero
9d0029c4:	24420030 	addiu	v0,v0,48
9d0029c8:	16a0ffed 	bnez	s5,9d002980 <_fconvert+0x2bc>
9d0029cc:	a262ffff 	sb	v0,-1(s3)
9d0029d0:	02c02021 	move	a0,s6
9d0029d4:	0f40121f 	jal	9d00487c <__eqsf2>
9d0029d8:	00002821 	move	a1,zero
9d0029dc:	54400049 	bnezl	v0,9d002b04 <_fconvert+0x440>
9d0029e0:	8e054ce0 	lw	a1,19680(s0)
9d0029e4:	02729823 	subu	s3,s3,s2
9d0029e8:	83a40019 	lb	a0,25(sp)
9d0029ec:	27a20019 	addiu	v0,sp,25
9d0029f0:	27a3001a 	addiu	v1,sp,26
9d0029f4:	0064100a 	movz	v0,v1,a0
9d0029f8:	8fa30230 	lw	v1,560(sp)
9d0029fc:	1060ffb2 	beqz	v1,9d0028c8 <_fconvert+0x204>
9d002a00:	8fa40228 	lw	a0,552(sp)
9d002a04:	0b400a0d 	j	9d002834 <_fconvert+0x170>
9d002a08:	2452ffff 	addiu	s2,v0,-1
9d002a0c:	02402021 	move	a0,s2
9d002a10:	02602821 	move	a1,s3
9d002a14:	0f401307 	jal	9d004c1c <__sputn>
9d002a18:	8fa60260 	lw	a2,608(sp)
9d002a1c:	2412ffff 	li	s2,-1
9d002a20:	1052ff9a 	beq	v0,s2,9d00288c <_fconvert+0x1c8>
9d002a24:	8fa3022c 	lw	v1,556(sp)
9d002a28:	14600066 	bnez	v1,9d002bc4 <_fconvert+0x500>
9d002a2c:	8fa40260 	lw	a0,608(sp)
9d002a30:	1220ff97 	beqz	s1,9d002890 <_fconvert+0x1cc>
9d002a34:	0217102a 	slt	v0,s0,s7
9d002a38:	0217102a 	slt	v0,s0,s7
9d002a3c:	5040ff94 	beqzl	v0,9d002890 <_fconvert+0x1cc>
9d002a40:	0217102a 	slt	v0,s0,s7
9d002a44:	8fa40260 	lw	a0,608(sp)
9d002a48:	02f02823 	subu	a1,s7,s0
9d002a4c:	3c069d00 	lui	a2,0x9d00
9d002a50:	0f4011f8 	jal	9d0047e0 <repl>
9d002a54:	24c64cc0 	addiu	a2,a2,19648
9d002a58:	0b400a24 	j	9d002890 <_fconvert+0x1cc>
9d002a5c:	0217102a 	slt	v0,s0,s7
9d002a60:	0f40121f 	jal	9d00487c <__eqsf2>
9d002a64:	00a02021 	move	a0,a1
9d002a68:	1440005e 	bnez	v0,9d002be4 <_fconvert+0x520>
9d002a6c:	02002021 	move	a0,s0
9d002a70:	0f40121f 	jal	9d00487c <__eqsf2>
9d002a74:	00002821 	move	a1,zero
9d002a78:	8fa30228 	lw	v1,552(sp)
9d002a7c:	afa30010 	sw	v1,16(sp)
9d002a80:	0440006f 	bltz	v0,9d002c40 <_fconvert+0x57c>
9d002a84:	8fa40260 	lw	a0,608(sp)
9d002a88:	3c059d00 	lui	a1,0x9d00
9d002a8c:	24a54c90 	addiu	a1,a1,19600
9d002a90:	24060004 	li	a2,4
9d002a94:	0f400fdd 	jal	9d003f74 <_outcnvrt>
9d002a98:	02e03821 	move	a3,s7
9d002a9c:	8fbf025c 	lw	ra,604(sp)
9d002aa0:	8fbe0258 	lw	s8,600(sp)
9d002aa4:	8fb70254 	lw	s7,596(sp)
9d002aa8:	8fb60250 	lw	s6,592(sp)
9d002aac:	8fb5024c 	lw	s5,588(sp)
9d002ab0:	8fb40248 	lw	s4,584(sp)
9d002ab4:	8fb30244 	lw	s3,580(sp)
9d002ab8:	8fb20240 	lw	s2,576(sp)
9d002abc:	8fb1023c 	lw	s1,572(sp)
9d002ac0:	8fb00238 	lw	s0,568(sp)
9d002ac4:	03e00008 	jr	ra
9d002ac8:	27bd0260 	addiu	sp,sp,608
9d002acc:	a3a2001a 	sb	v0,26(sp)
9d002ad0:	27b0001b 	addiu	s0,sp,27
9d002ad4:	16a0ff9f 	bnez	s5,9d002954 <_fconvert+0x290>
9d002ad8:	27b2001a 	addiu	s2,sp,26
9d002adc:	8fa30228 	lw	v1,552(sp)
9d002ae0:	30620800 	andi	v0,v1,0x800
9d002ae4:	1440005d 	bnez	v0,9d002c5c <_fconvert+0x598>
9d002ae8:	02c02021 	move	a0,s6
9d002aec:	0f40121f 	jal	9d00487c <__eqsf2>
9d002af0:	00002821 	move	a1,zero
9d002af4:	1040ffbb 	beqz	v0,9d0029e4 <_fconvert+0x320>
9d002af8:	02009821 	move	s3,s0
9d002afc:	3c109d00 	lui	s0,0x9d00
9d002b00:	8e054ce0 	lw	a1,19680(s0)
9d002b04:	02c02021 	move	a0,s6
9d002b08:	0f400f6e 	jal	9d003db8 <.LFE9>
9d002b0c:	2670ffff 	addiu	s0,s3,-1
9d002b10:	00402021 	move	a0,v0
9d002b14:	0f401163 	jal	9d00458c <fpmodf>
9d002b18:	27a5021c 	addiu	a1,sp,540
9d002b1c:	3c029d00 	lui	v0,0x9d00
9d002b20:	8c444ce8 	lw	a0,19688(v0)
9d002b24:	0f40121f 	jal	9d00487c <__eqsf2>
9d002b28:	8fa5021c 	lw	a1,540(sp)
9d002b2c:	2404002e 	li	a0,46
9d002b30:	0440000b 	bltz	v0,9d002b60 <_fconvert+0x49c>
9d002b34:	24050030 	li	a1,48
9d002b38:	0b400a7a 	j	9d0029e8 <_fconvert+0x324>
9d002b3c:	02729823 	subu	s3,s3,s2
9d002b40:	24420001 	addiu	v0,v0,1
9d002b44:	7c021420 	seb	v0,v0
9d002b48:	2843003a 	slti	v1,v0,58
9d002b4c:	5460004c 	bnezl	v1,9d002c80 <_fconvert+0x5bc>
9d002b50:	a2020000 	sb	v0,0(s0)
9d002b54:	1212004e 	beq	s0,s2,9d002c90 <_fconvert+0x5cc>
9d002b58:	a2050000 	sb	a1,0(s0)
9d002b5c:	2610ffff 	addiu	s0,s0,-1
9d002b60:	82020000 	lb	v0,0(s0)
9d002b64:	5444fff7 	bnel	v0,a0,9d002b44 <_fconvert+0x480>
9d002b68:	24420001 	addiu	v0,v0,1
9d002b6c:	8202ffff 	lb	v0,-1(s0)
9d002b70:	0b400ad0 	j	9d002b40 <_fconvert+0x47c>
9d002b74:	2610ffff 	addiu	s0,s0,-1
9d002b78:	24630001 	addiu	v1,v1,1
9d002b7c:	02631821 	addu	v1,s3,v1
9d002b80:	24020030 	li	v0,48
9d002b84:	26730001 	addiu	s3,s3,1
9d002b88:	1663fffe 	bne	s3,v1,9d002b84 <_fconvert+0x4c0>
9d002b8c:	a262ffff 	sb	v0,-1(s3)
9d002b90:	0b400a7a 	j	9d0029e8 <_fconvert+0x324>
9d002b94:	02729823 	subu	s3,s3,s2
9d002b98:	afa0022c 	sw	zero,556(sp)
9d002b9c:	24150006 	li	s5,6
9d002ba0:	a3a00019 	sb	zero,25(sp)
9d002ba4:	0601feec 	bgez	s0,9d002758 <_fconvert+0x94>
9d002ba8:	afa00230 	sw	zero,560(sp)
9d002bac:	0b400a3f 	j	9d0028fc <_fconvert+0x238>
9d002bb0:	3c028000 	lui	v0,0x8000
9d002bb4:	2403002b 	li	v1,43
9d002bb8:	a043ffff 	sb	v1,-1(v0)
9d002bbc:	0b400a0f 	j	9d00283c <_fconvert+0x178>
9d002bc0:	26730001 	addiu	s3,s3,1
9d002bc4:	8fa5022c 	lw	a1,556(sp)
9d002bc8:	3c069d00 	lui	a2,0x9d00
9d002bcc:	0f4011f8 	jal	9d0047e0 <repl>
9d002bd0:	24c64ca0 	addiu	a2,a2,19616
9d002bd4:	1452ff96 	bne	v0,s2,9d002a30 <_fconvert+0x36c>
9d002bd8:	0217102a 	slt	v0,s0,s7
9d002bdc:	0b400a25 	j	9d002894 <_fconvert+0x1d0>
9d002be0:	0202b80a 	movz	s7,s0,v0
9d002be4:	8fa30228 	lw	v1,552(sp)
9d002be8:	afa30010 	sw	v1,16(sp)
9d002bec:	8fa40260 	lw	a0,608(sp)
9d002bf0:	3c059d00 	lui	a1,0x9d00
9d002bf4:	24a54c84 	addiu	a1,a1,19588
9d002bf8:	24060003 	li	a2,3
9d002bfc:	0f400fdd 	jal	9d003f74 <_outcnvrt>
9d002c00:	02e03821 	move	a3,s7
9d002c04:	0b400a27 	j	9d00289c <_fconvert+0x1d8>
9d002c08:	8fbf025c 	lw	ra,604(sp)
9d002c0c:	30620800 	andi	v0,v1,0x800
9d002c10:	5440fecc 	bnezl	v0,9d002744 <_fconvert+0x80>
9d002c14:	26b5ffd9 	addiu	s5,s5,-39
9d002c18:	0b4009d3 	j	9d00274c <_fconvert+0x88>
9d002c1c:	24150027 	li	s5,39
9d002c20:	3c069d00 	lui	a2,0x9d00
9d002c24:	0f4011f8 	jal	9d0047e0 <repl>
9d002c28:	24c64cc0 	addiu	a2,a2,19648
9d002c2c:	0b400a21 	j	9d002884 <_fconvert+0x1c0>
9d002c30:	2403ffff 	li	v1,-1
9d002c34:	00008821 	move	s1,zero
9d002c38:	0b4009ff 	j	9d0027fc <_fconvert+0x138>
9d002c3c:	27b00218 	addiu	s0,sp,536
9d002c40:	3c059d00 	lui	a1,0x9d00
9d002c44:	24a54c88 	addiu	a1,a1,19592
9d002c48:	24060004 	li	a2,4
9d002c4c:	0f400fdd 	jal	9d003f74 <_outcnvrt>
9d002c50:	02e03821 	move	a3,s7
9d002c54:	0b400a27 	j	9d00289c <_fconvert+0x1d8>
9d002c58:	8fbf025c 	lw	ra,604(sp)
9d002c5c:	00002821 	move	a1,zero
9d002c60:	26130001 	addiu	s3,s0,1
9d002c64:	2402002e 	li	v0,46
9d002c68:	0f40121f 	jal	9d00487c <__eqsf2>
9d002c6c:	a2020000 	sb	v0,0(s0)
9d002c70:	5440ffa3 	bnezl	v0,9d002b00 <_fconvert+0x43c>
9d002c74:	3c109d00 	lui	s0,0x9d00
9d002c78:	0b400a7a 	j	9d0029e8 <_fconvert+0x324>
9d002c7c:	02729823 	subu	s3,s3,s2
9d002c80:	0b400a7a 	j	9d0029e8 <_fconvert+0x324>
9d002c84:	02729823 	subu	s3,s3,s2
9d002c88:	0b400a53 	j	9d00294c <_fconvert+0x288>
9d002c8c:	02408021 	move	s0,s2
9d002c90:	24020031 	li	v0,49
9d002c94:	a3a20019 	sb	v0,25(sp)
9d002c98:	27b20019 	addiu	s2,sp,25
9d002c9c:	0b400a7a 	j	9d0029e8 <_fconvert+0x324>
9d002ca0:	02729823 	subu	s3,s3,s2

Disassembly of section .text:

9d002ca4 <__umoddi3>:
9d002ca4:	00c04021 	move	t0,a2
9d002ca8:	00804821 	move	t1,a0
9d002cac:	14e0003b 	bnez	a3,9d002d9c <.LBE15+0xc>
9d002cb0:	00a01821 	move	v1,a1
9d002cb4:	00a6102b 	sltu	v0,a1,a2
9d002cb8:	10400048 	beqz	v0,9d002ddc <.LBE16+0x8>
9d002cbc:	70c21020 	clz	v0,a2
9d002cc0:	50400008 	beqzl	v0,9d002ce4 <.LBB15+0x4>
9d002cc4:	00083402 	srl	a2,t0,0x10
9d002cc8:	00021823 	negu	v1,v0
9d002ccc:	00452804 	sllv	a1,a1,v0
9d002cd0:	00641806 	srlv	v1,a0,v1
9d002cd4:	00464004 	sllv	t0,a2,v0
9d002cd8:	00651825 	or	v1,v1,a1
9d002cdc:	00444804 	sllv	t1,a0,v0

9d002ce0 <.LBB15>:
9d002ce0:	00083402 	srl	a2,t0,0x10
9d002ce4:	0066001b 	divu	zero,v1,a2
9d002ce8:	00c001f4 	teq	a2,zero,0x7
9d002cec:	00002010 	mfhi	a0
9d002cf0:	00005812 	mflo	t3
9d002cf4:	310cffff 	andi	t4,t0,0xffff
9d002cf8:	00095402 	srl	t2,t1,0x10
9d002cfc:	716c5802 	mul	t3,t3,t4
9d002d00:	00042400 	sll	a0,a0,0x10
9d002d04:	008a5025 	or	t2,a0,t2
9d002d08:	014b682b 	sltu	t5,t2,t3
9d002d0c:	0066001b 	divu	zero,v1,a2
9d002d10:	00c001f4 	teq	a2,zero,0x7
9d002d14:	51a00009 	beqzl	t5,9d002d3c <.LBB15+0x5c>
9d002d18:	014b5023 	subu	t2,t2,t3
9d002d1c:	01485021 	addu	t2,t2,t0
9d002d20:	0148182b 	sltu	v1,t2,t0
9d002d24:	54600005 	bnezl	v1,9d002d3c <.LBB15+0x5c>
9d002d28:	014b5023 	subu	t2,t2,t3
9d002d2c:	014b202b 	sltu	a0,t2,t3
9d002d30:	01481821 	addu	v1,t2,t0
9d002d34:	0064500b 	movn	t2,v1,a0
9d002d38:	014b5023 	subu	t2,t2,t3
9d002d3c:	3123ffff 	andi	v1,t1,0xffff
9d002d40:	0146001b 	divu	zero,t2,a2
9d002d44:	00c001f4 	teq	a2,zero,0x7
9d002d48:	00004810 	mfhi	t1
9d002d4c:	00002012 	mflo	a0
9d002d50:	708c2002 	mul	a0,a0,t4
9d002d54:	00094c00 	sll	t1,t1,0x10
9d002d58:	01234825 	or	t1,t1,v1
9d002d5c:	0124182b 	sltu	v1,t1,a0
9d002d60:	0146001b 	divu	zero,t2,a2
9d002d64:	00c001f4 	teq	a2,zero,0x7
9d002d68:	50600009 	beqzl	v1,9d002d90 <.LBE15>
9d002d6c:	01244823 	subu	t1,t1,a0
9d002d70:	01284821 	addu	t1,t1,t0
9d002d74:	0128182b 	sltu	v1,t1,t0
9d002d78:	54600005 	bnezl	v1,9d002d90 <.LBE15>
9d002d7c:	01244823 	subu	t1,t1,a0
9d002d80:	0124182b 	sltu	v1,t1,a0
9d002d84:	01284021 	addu	t0,t1,t0
9d002d88:	0103480b 	movn	t1,t0,v1
9d002d8c:	01244823 	subu	t1,t1,a0

9d002d90 <.LBE15>:
9d002d90:	00491006 	srlv	v0,t1,v0
9d002d94:	03e00008 	jr	ra
9d002d98:	00001821 	move	v1,zero
9d002d9c:	00a7102b 	sltu	v0,a1,a3
9d002da0:	14400047 	bnez	v0,9d002ec0 <.LBE17+0xc>
9d002da4:	70ea5020 	clz	t2,a3
9d002da8:	15400048 	bnez	t2,9d002ecc <.LBE17+0x18>
9d002dac:	240b0020 	li	t3,32
9d002db0:	00e5102b 	sltu	v0,a3,a1
9d002db4:	14400005 	bnez	v0,9d002dcc <.LBB16+0x4>
9d002db8:	00861023 	subu	v0,a0,a2
9d002dbc:	0086402b 	sltu	t0,a0,a2
9d002dc0:	15000089 	bnez	t0,9d002fe8 <.LBE24+0x10>
9d002dc4:	00801021 	move	v0,a0

9d002dc8 <.LBB16>:
9d002dc8:	00861023 	subu	v0,a0,a2
9d002dcc:	00a72823 	subu	a1,a1,a3
9d002dd0:	0082202b 	sltu	a0,a0,v0

9d002dd4 <.LBE16>:
9d002dd4:	03e00008 	jr	ra
9d002dd8:	00a41823 	subu	v1,a1,a0
9d002ddc:	14c00006 	bnez	a2,9d002df8 <.LBE16+0x24>
9d002de0:	71021020 	clz	v0,t0
9d002de4:	24020001 	li	v0,1
9d002de8:	0046001b 	divu	zero,v0,a2
9d002dec:	00c001f4 	teq	a2,zero,0x7
9d002df0:	00004012 	mflo	t0
9d002df4:	71021020 	clz	v0,t0
9d002df8:	5440007d 	bnezl	v0,9d002ff0 <.LBE24+0x18>
9d002dfc:	00484004 	sllv	t0,t0,v0
9d002e00:	00a82823 	subu	a1,a1,t0
9d002e04:	00081c02 	srl	v1,t0,0x10
9d002e08:	3107ffff 	andi	a3,t0,0xffff

9d002e0c <.LBB17>:
9d002e0c:	00092402 	srl	a0,t1,0x10
9d002e10:	00a3001b 	divu	zero,a1,v1
9d002e14:	006001f4 	teq	v1,zero,0x7
9d002e18:	00005010 	mfhi	t2
9d002e1c:	00003012 	mflo	a2
9d002e20:	70c73002 	mul	a2,a2,a3
9d002e24:	000a5400 	sll	t2,t2,0x10
9d002e28:	01442025 	or	a0,t2,a0
9d002e2c:	0086502b 	sltu	t2,a0,a2
9d002e30:	00a3001b 	divu	zero,a1,v1
9d002e34:	006001f4 	teq	v1,zero,0x7
9d002e38:	51400009 	beqzl	t2,9d002e60 <.LBB17+0x54>
9d002e3c:	00862023 	subu	a0,a0,a2
9d002e40:	00882021 	addu	a0,a0,t0
9d002e44:	0088282b 	sltu	a1,a0,t0
9d002e48:	54a00005 	bnezl	a1,9d002e60 <.LBB17+0x54>
9d002e4c:	00862023 	subu	a0,a0,a2
9d002e50:	0086502b 	sltu	t2,a0,a2
9d002e54:	00882821 	addu	a1,a0,t0
9d002e58:	00aa200b 	movn	a0,a1,t2
9d002e5c:	00862023 	subu	a0,a0,a2
9d002e60:	3126ffff 	andi	a2,t1,0xffff
9d002e64:	0083001b 	divu	zero,a0,v1
9d002e68:	006001f4 	teq	v1,zero,0x7
9d002e6c:	00004810 	mfhi	t1
9d002e70:	00002812 	mflo	a1
9d002e74:	70a72802 	mul	a1,a1,a3
9d002e78:	00094c00 	sll	t1,t1,0x10
9d002e7c:	01264825 	or	t1,t1,a2
9d002e80:	0125302b 	sltu	a2,t1,a1
9d002e84:	0083001b 	divu	zero,a0,v1
9d002e88:	006001f4 	teq	v1,zero,0x7
9d002e8c:	50c00009 	beqzl	a2,9d002eb4 <.LBE17>
9d002e90:	01254823 	subu	t1,t1,a1
9d002e94:	01284821 	addu	t1,t1,t0
9d002e98:	0128182b 	sltu	v1,t1,t0
9d002e9c:	54600005 	bnezl	v1,9d002eb4 <.LBE17>
9d002ea0:	01254823 	subu	t1,t1,a1
9d002ea4:	0125182b 	sltu	v1,t1,a1
9d002ea8:	01284021 	addu	t0,t1,t0
9d002eac:	0103480b 	movn	t1,t0,v1
9d002eb0:	01254823 	subu	t1,t1,a1

9d002eb4 <.LBE17>:
9d002eb4:	00491006 	srlv	v0,t1,v0
9d002eb8:	03e00008 	jr	ra
9d002ebc:	00001821 	move	v1,zero
9d002ec0:	00801021 	move	v0,a0
9d002ec4:	03e00008 	jr	ra
9d002ec8:	00a01821 	move	v1,a1
9d002ecc:	016a5823 	subu	t3,t3,t2
9d002ed0:	01473804 	sllv	a3,a3,t2
9d002ed4:	01661006 	srlv	v0,a2,t3
9d002ed8:	00473825 	or	a3,v0,a3
9d002edc:	01656806 	srlv	t5,a1,t3
9d002ee0:	00074c02 	srl	t1,a3,0x10
9d002ee4:	01a9001b 	divu	zero,t5,t1
9d002ee8:	012001f4 	teq	t1,zero,0x7
9d002eec:	00006010 	mfhi	t4
9d002ef0:	00001812 	mflo	v1
9d002ef4:	30eeffff 	andi	t6,a3,0xffff
9d002ef8:	01452804 	sllv	a1,a1,t2
9d002efc:	01641006 	srlv	v0,a0,t3
9d002f00:	00451025 	or	v0,v0,a1
9d002f04:	00022c02 	srl	a1,v0,0x10
9d002f08:	01463004 	sllv	a2,a2,t2
9d002f0c:	00004012 	mflo	t0
9d002f10:	706e7802 	mul	t7,v1,t6
9d002f14:	000c6400 	sll	t4,t4,0x10
9d002f18:	01856025 	or	t4,t4,a1
9d002f1c:	018f282b 	sltu	a1,t4,t7
9d002f20:	01a9001b 	divu	zero,t5,t1
9d002f24:	012001f4 	teq	t1,zero,0x7
9d002f28:	10a0000a 	beqz	a1,9d002f54 <.LBE17+0xa0>
9d002f2c:	01442004 	sllv	a0,a0,t2
9d002f30:	01876021 	addu	t4,t4,a3
9d002f34:	0187282b 	sltu	a1,t4,a3
9d002f38:	14a00006 	bnez	a1,9d002f54 <.LBE17+0xa0>
9d002f3c:	2468ffff 	addiu	t0,v1,-1
9d002f40:	018f282b 	sltu	a1,t4,t7
9d002f44:	50a00004 	beqzl	a1,9d002f58 <.LBE17+0xa4>
9d002f48:	018f6023 	subu	t4,t4,t7
9d002f4c:	2468fffe 	addiu	t0,v1,-2
9d002f50:	01876021 	addu	t4,t4,a3
9d002f54:	018f6023 	subu	t4,t4,t7
9d002f58:	3042ffff 	andi	v0,v0,0xffff
9d002f5c:	0189001b 	divu	zero,t4,t1
9d002f60:	012001f4 	teq	t1,zero,0x7
9d002f64:	00002810 	mfhi	a1
9d002f68:	00001812 	mflo	v1
9d002f6c:	00006812 	mflo	t5
9d002f70:	706e7002 	mul	t6,v1,t6
9d002f74:	00052c00 	sll	a1,a1,0x10
9d002f78:	00a21025 	or	v0,a1,v0
9d002f7c:	004e282b 	sltu	a1,v0,t6
9d002f80:	0189001b 	divu	zero,t4,t1
9d002f84:	012001f4 	teq	t1,zero,0x7
9d002f88:	50a00006 	beqzl	a1,9d002fa4 <.LBE17+0xf0>
9d002f8c:	00084400 	sll	t0,t0,0x10
9d002f90:	00471021 	addu	v0,v0,a3
9d002f94:	0047282b 	sltu	a1,v0,a3
9d002f98:	10a0004c 	beqz	a1,9d0030cc <.LBE25>
9d002f9c:	246dffff 	addiu	t5,v1,-1
9d002fa0:	00084400 	sll	t0,t0,0x10
9d002fa4:	01a84025 	or	t0,t5,t0
9d002fa8:	004e1023 	subu	v0,v0,t6
9d002fac:	01060019 	multu	t0,a2
9d002fb0:	00004810 	mfhi	t1
9d002fb4:	0049182b 	sltu	v1,v0,t1
9d002fb8:	1460003e 	bnez	v1,9d0030b4 <.LBB25>
9d002fbc:	00004012 	mflo	t0
9d002fc0:	1049004b 	beq	v0,t1,9d0030f0 <.LBE25+0x24>
9d002fc4:	00491823 	subu	v1,v0,t1
9d002fc8:	00003012 	mflo	a2

9d002fcc <.LBB24>:
9d002fcc:	00863023 	subu	a2,a0,a2
9d002fd0:	0086202b 	sltu	a0,a0,a2
9d002fd4:	00641823 	subu	v1,v1,a0

9d002fd8 <.LBE24>:
9d002fd8:	01631004 	sllv	v0,v1,t3
9d002fdc:	01463006 	srlv	a2,a2,t2
9d002fe0:	00461025 	or	v0,v0,a2
9d002fe4:	01431806 	srlv	v1,v1,t2
9d002fe8:	03e00008 	jr	ra
9d002fec:	00000000 	nop
9d002ff0:	24090020 	li	t1,32
9d002ff4:	01224823 	subu	t1,t1,v0
9d002ff8:	01255006 	srlv	t2,a1,t1
9d002ffc:	00081c02 	srl	v1,t0,0x10
9d003000:	0143001b 	divu	zero,t2,v1
9d003004:	006001f4 	teq	v1,zero,0x7
9d003008:	00003010 	mfhi	a2
9d00300c:	00005812 	mflo	t3
9d003010:	3107ffff 	andi	a3,t0,0xffff
9d003014:	00452804 	sllv	a1,a1,v0
9d003018:	01244806 	srlv	t1,a0,t1
9d00301c:	01252825 	or	a1,t1,a1
9d003020:	00056402 	srl	t4,a1,0x10
9d003024:	00444804 	sllv	t1,a0,v0
9d003028:	71675802 	mul	t3,t3,a3
9d00302c:	00063400 	sll	a2,a2,0x10
9d003030:	01863025 	or	a2,t4,a2
9d003034:	00cb202b 	sltu	a0,a2,t3
9d003038:	0143001b 	divu	zero,t2,v1
9d00303c:	006001f4 	teq	v1,zero,0x7
9d003040:	50800006 	beqzl	a0,9d00305c <.LBE24+0x84>
9d003044:	00cb3023 	subu	a2,a2,t3
9d003048:	00c83021 	addu	a2,a2,t0
9d00304c:	00c8202b 	sltu	a0,a2,t0
9d003050:	10800024 	beqz	a0,9d0030e4 <.LBE25+0x18>
9d003054:	00cb502b 	sltu	t2,a2,t3
9d003058:	00cb3023 	subu	a2,a2,t3
9d00305c:	30aaffff 	andi	t2,a1,0xffff
9d003060:	00c3001b 	divu	zero,a2,v1
9d003064:	006001f4 	teq	v1,zero,0x7
9d003068:	00002010 	mfhi	a0
9d00306c:	00002812 	mflo	a1
9d003070:	70a72802 	mul	a1,a1,a3
9d003074:	00042400 	sll	a0,a0,0x10
9d003078:	008a2025 	or	a0,a0,t2
9d00307c:	0085502b 	sltu	t2,a0,a1
9d003080:	00c3001b 	divu	zero,a2,v1
9d003084:	006001f4 	teq	v1,zero,0x7
9d003088:	5140ff60 	beqzl	t2,9d002e0c <.LBB17>
9d00308c:	00852823 	subu	a1,a0,a1
9d003090:	00882021 	addu	a0,a0,t0
9d003094:	0088302b 	sltu	a2,a0,t0
9d003098:	54c0ff5c 	bnezl	a2,9d002e0c <.LBB17>
9d00309c:	00852823 	subu	a1,a0,a1
9d0030a0:	0085502b 	sltu	t2,a0,a1
9d0030a4:	00883021 	addu	a2,a0,t0
9d0030a8:	00ca200b 	movn	a0,a2,t2
9d0030ac:	0b400b83 	j	9d002e0c <.LBB17>
9d0030b0:	00852823 	subu	a1,a0,a1

9d0030b4 <.LBB25>:
9d0030b4:	01063023 	subu	a2,t0,a2
9d0030b8:	01271823 	subu	v1,t1,a3
9d0030bc:	0106402b 	sltu	t0,t0,a2
9d0030c0:	00681823 	subu	v1,v1,t0
9d0030c4:	0b400bf3 	j	9d002fcc <.LBB24>
9d0030c8:	00431823 	subu	v1,v0,v1

9d0030cc <.LBE25>:
9d0030cc:	004e282b 	sltu	a1,v0,t6
9d0030d0:	50a0ffb4 	beqzl	a1,9d002fa4 <.LBE17+0xf0>
9d0030d4:	00084400 	sll	t0,t0,0x10
9d0030d8:	246dfffe 	addiu	t5,v1,-2
9d0030dc:	0b400be8 	j	9d002fa0 <.LBE17+0xec>
9d0030e0:	00471021 	addu	v0,v0,a3
9d0030e4:	00c82021 	addu	a0,a2,t0
9d0030e8:	0b400c16 	j	9d003058 <.LBE24+0x80>
9d0030ec:	008a300b 	movn	a2,a0,t2
9d0030f0:	0088182b 	sltu	v1,a0,t0
9d0030f4:	5460fff0 	bnezl	v1,9d0030b8 <.LBB25+0x4>
9d0030f8:	01063023 	subu	a2,t0,a2
9d0030fc:	00003012 	mflo	a2
9d003100:	0b400bf3 	j	9d002fcc <.LBB24>
9d003104:	00001821 	move	v1,zero

9d003108 <__udivdi3>:
9d003108:	00c04021 	move	t0,a2
9d00310c:	00801021 	move	v0,a0
9d003110:	14e0003f 	bnez	a3,9d003210 <.LBE15+0x8>
9d003114:	00a04821 	move	t1,a1
9d003118:	00a6182b 	sltu	v1,a1,a2
9d00311c:	10600047 	beqz	v1,9d00323c <.LBE15+0x34>
9d003120:	70c31820 	clz	v1,a2
9d003124:	50600008 	beqzl	v1,9d003148 <.LBB15+0x4>
9d003128:	00081c02 	srl	v1,t0,0x10
9d00312c:	00034823 	negu	t1,v1
9d003130:	00652804 	sllv	a1,a1,v1
9d003134:	01244806 	srlv	t1,a0,t1
9d003138:	00664004 	sllv	t0,a2,v1
9d00313c:	01254825 	or	t1,t1,a1
9d003140:	00641004 	sllv	v0,a0,v1

9d003144 <.LBB15>:
9d003144:	00081c02 	srl	v1,t0,0x10
9d003148:	0123001b 	divu	zero,t1,v1
9d00314c:	006001f4 	teq	v1,zero,0x7
9d003150:	00006010 	mfhi	t4
9d003154:	00005812 	mflo	t3
9d003158:	310affff 	andi	t2,t0,0xffff
9d00315c:	00022402 	srl	a0,v0,0x10
9d003160:	00003012 	mflo	a2
9d003164:	716a3802 	mul	a3,t3,t2
9d003168:	000c6400 	sll	t4,t4,0x10
9d00316c:	01842025 	or	a0,t4,a0
9d003170:	0087602b 	sltu	t4,a0,a3
9d003174:	0123001b 	divu	zero,t1,v1
9d003178:	006001f4 	teq	v1,zero,0x7
9d00317c:	1180000b 	beqz	t4,9d0031ac <.LBB15+0x68>
9d003180:	00872823 	subu	a1,a0,a3
9d003184:	00882021 	addu	a0,a0,t0
9d003188:	0088282b 	sltu	a1,a0,t0
9d00318c:	14a00006 	bnez	a1,9d0031a8 <.LBB15+0x64>
9d003190:	2566ffff 	addiu	a2,t3,-1
9d003194:	0087282b 	sltu	a1,a0,a3
9d003198:	10a00004 	beqz	a1,9d0031ac <.LBB15+0x68>
9d00319c:	00872823 	subu	a1,a0,a3
9d0031a0:	2566fffe 	addiu	a2,t3,-2
9d0031a4:	00882021 	addu	a0,a0,t0
9d0031a8:	00872823 	subu	a1,a0,a3
9d0031ac:	3042ffff 	andi	v0,v0,0xffff
9d0031b0:	00a3001b 	divu	zero,a1,v1
9d0031b4:	006001f4 	teq	v1,zero,0x7
9d0031b8:	00004810 	mfhi	t1
9d0031bc:	00003812 	mflo	a3
9d0031c0:	00002012 	mflo	a0
9d0031c4:	70ea5002 	mul	t2,a3,t2
9d0031c8:	00094c00 	sll	t1,t1,0x10
9d0031cc:	01221025 	or	v0,t1,v0
9d0031d0:	004a482b 	sltu	t1,v0,t2
9d0031d4:	00a3001b 	divu	zero,a1,v1
9d0031d8:	006001f4 	teq	v1,zero,0x7
9d0031dc:	51200009 	beqzl	t1,9d003204 <.LBB15+0xc0>
9d0031e0:	00061400 	sll	v0,a2,0x10
9d0031e4:	00481021 	addu	v0,v0,t0
9d0031e8:	0048402b 	sltu	t0,v0,t0
9d0031ec:	15000004 	bnez	t0,9d003200 <.LBB15+0xbc>
9d0031f0:	24e4ffff 	addiu	a0,a3,-1
9d0031f4:	004a502b 	sltu	t2,v0,t2
9d0031f8:	24e7fffe 	addiu	a3,a3,-2
9d0031fc:	00ea200b 	movn	a0,a3,t2
9d003200:	00061400 	sll	v0,a2,0x10
9d003204:	00821025 	or	v0,a0,v0

9d003208 <.LBE15>:
9d003208:	03e00008 	jr	ra
9d00320c:	00001821 	move	v1,zero
9d003210:	00a7102b 	sltu	v0,a1,a3
9d003214:	14400044 	bnez	v0,9d003328 <.LBE16+0x8>
9d003218:	70e84020 	clz	t0,a3
9d00321c:	55000045 	bnezl	t0,9d003334 <.LBE16+0x14>
9d003220:	24020020 	li	v0,32
9d003224:	00e5282b 	sltu	a1,a3,a1
9d003228:	14a000c8 	bnez	a1,9d00354c <.LBE20+0x120>
9d00322c:	0086302b 	sltu	a2,a0,a2
9d003230:	38c20001 	xori	v0,a2,0x1
9d003234:	03e00008 	jr	ra
9d003238:	00001821 	move	v1,zero
9d00323c:	14c00006 	bnez	a2,9d003258 <.LBE15+0x50>
9d003240:	71031820 	clz	v1,t0
9d003244:	24030001 	li	v1,1
9d003248:	0066001b 	divu	zero,v1,a2
9d00324c:	00c001f4 	teq	a2,zero,0x7
9d003250:	00004012 	mflo	t0
9d003254:	71031820 	clz	v1,t0
9d003258:	5460007b 	bnezl	v1,9d003448 <.LBE20+0x1c>
9d00325c:	00684004 	sllv	t0,t0,v1
9d003260:	00a82023 	subu	a0,a1,t0
9d003264:	00083c02 	srl	a3,t0,0x10
9d003268:	310bffff 	andi	t3,t0,0xffff
9d00326c:	24030001 	li	v1,1

9d003270 <.LBB16>:
9d003270:	00023402 	srl	a2,v0,0x10
9d003274:	0087001b 	divu	zero,a0,a3
9d003278:	00e001f4 	teq	a3,zero,0x7
9d00327c:	00006810 	mfhi	t5
9d003280:	00006012 	mflo	t4
9d003284:	00004812 	mflo	t1
9d003288:	718b5002 	mul	t2,t4,t3
9d00328c:	000d6c00 	sll	t5,t5,0x10
9d003290:	01a63025 	or	a2,t5,a2
9d003294:	00ca682b 	sltu	t5,a2,t2
9d003298:	0087001b 	divu	zero,a0,a3
9d00329c:	00e001f4 	teq	a3,zero,0x7
9d0032a0:	11a00009 	beqz	t5,9d0032c8 <.LBB16+0x58>
9d0032a4:	00ca2823 	subu	a1,a2,t2
9d0032a8:	00c83021 	addu	a2,a2,t0
9d0032ac:	00c8202b 	sltu	a0,a2,t0
9d0032b0:	14800004 	bnez	a0,9d0032c4 <.LBB16+0x54>
9d0032b4:	2589ffff 	addiu	t1,t4,-1
9d0032b8:	00ca202b 	sltu	a0,a2,t2
9d0032bc:	548000a6 	bnezl	a0,9d003558 <.LBE20+0x12c>
9d0032c0:	2589fffe 	addiu	t1,t4,-2
9d0032c4:	00ca2823 	subu	a1,a2,t2
9d0032c8:	3042ffff 	andi	v0,v0,0xffff
9d0032cc:	00a7001b 	divu	zero,a1,a3
9d0032d0:	00e001f4 	teq	a3,zero,0x7
9d0032d4:	00005010 	mfhi	t2
9d0032d8:	00003012 	mflo	a2
9d0032dc:	00002012 	mflo	a0
9d0032e0:	70cb5802 	mul	t3,a2,t3
9d0032e4:	000a5400 	sll	t2,t2,0x10
9d0032e8:	01421025 	or	v0,t2,v0
9d0032ec:	004b502b 	sltu	t2,v0,t3
9d0032f0:	00a7001b 	divu	zero,a1,a3
9d0032f4:	00e001f4 	teq	a3,zero,0x7
9d0032f8:	51400009 	beqzl	t2,9d003320 <.LBE16>
9d0032fc:	00091400 	sll	v0,t1,0x10
9d003300:	00481021 	addu	v0,v0,t0
9d003304:	0048402b 	sltu	t0,v0,t0
9d003308:	15000004 	bnez	t0,9d00331c <.LBB16+0xac>
9d00330c:	24c4ffff 	addiu	a0,a2,-1
9d003310:	004b582b 	sltu	t3,v0,t3
9d003314:	24c6fffe 	addiu	a2,a2,-2
9d003318:	00cb200b 	movn	a0,a2,t3
9d00331c:	00091400 	sll	v0,t1,0x10

9d003320 <.LBE16>:
9d003320:	03e00008 	jr	ra
9d003324:	00821025 	or	v0,a0,v0
9d003328:	00001821 	move	v1,zero
9d00332c:	03e00008 	jr	ra
9d003330:	00001021 	move	v0,zero
9d003334:	00481023 	subu	v0,v0,t0
9d003338:	01073804 	sllv	a3,a3,t0
9d00333c:	00461806 	srlv	v1,a2,v0
9d003340:	00673825 	or	a3,v1,a3
9d003344:	00455006 	srlv	t2,a1,v0
9d003348:	00071c02 	srl	v1,a3,0x10
9d00334c:	0143001b 	divu	zero,t2,v1
9d003350:	006001f4 	teq	v1,zero,0x7
9d003354:	00004810 	mfhi	t1
9d003358:	00006812 	mflo	t5
9d00335c:	30ebffff 	andi	t3,a3,0xffff
9d003360:	01052804 	sllv	a1,a1,t0
9d003364:	00441006 	srlv	v0,a0,v0
9d003368:	00452825 	or	a1,v0,a1
9d00336c:	00057402 	srl	t6,a1,0x10
9d003370:	00001012 	mflo	v0
9d003374:	71ab6002 	mul	t4,t5,t3
9d003378:	00094c00 	sll	t1,t1,0x10
9d00337c:	012e4825 	or	t1,t1,t6
9d003380:	012c702b 	sltu	t6,t1,t4
9d003384:	0143001b 	divu	zero,t2,v1
9d003388:	006001f4 	teq	v1,zero,0x7
9d00338c:	11c0000a 	beqz	t6,9d0033b8 <.LBE16+0x98>
9d003390:	01063004 	sllv	a2,a2,t0
9d003394:	01274821 	addu	t1,t1,a3
9d003398:	0127502b 	sltu	t2,t1,a3
9d00339c:	15400006 	bnez	t2,9d0033b8 <.LBE16+0x98>
9d0033a0:	25a2ffff 	addiu	v0,t5,-1
9d0033a4:	012c502b 	sltu	t2,t1,t4
9d0033a8:	51400004 	beqzl	t2,9d0033bc <.LBE16+0x9c>
9d0033ac:	012c4823 	subu	t1,t1,t4
9d0033b0:	25a2fffe 	addiu	v0,t5,-2
9d0033b4:	01274821 	addu	t1,t1,a3
9d0033b8:	012c4823 	subu	t1,t1,t4
9d0033bc:	30a5ffff 	andi	a1,a1,0xffff
9d0033c0:	0123001b 	divu	zero,t1,v1
9d0033c4:	006001f4 	teq	v1,zero,0x7
9d0033c8:	00006810 	mfhi	t5
9d0033cc:	00006012 	mflo	t4
9d0033d0:	00005012 	mflo	t2
9d0033d4:	718b5802 	mul	t3,t4,t3
9d0033d8:	000d6c00 	sll	t5,t5,0x10
9d0033dc:	01a52825 	or	a1,t5,a1
9d0033e0:	00ab682b 	sltu	t5,a1,t3
9d0033e4:	0123001b 	divu	zero,t1,v1
9d0033e8:	006001f4 	teq	v1,zero,0x7
9d0033ec:	51a0000b 	beqzl	t5,9d00341c <.LBE16+0xfc>
9d0033f0:	00021400 	sll	v0,v0,0x10
9d0033f4:	00a72821 	addu	a1,a1,a3
9d0033f8:	00a7182b 	sltu	v1,a1,a3
9d0033fc:	14600006 	bnez	v1,9d003418 <.LBE16+0xf8>
9d003400:	258affff 	addiu	t2,t4,-1
9d003404:	00ab182b 	sltu	v1,a1,t3
9d003408:	50600004 	beqzl	v1,9d00341c <.LBE16+0xfc>
9d00340c:	00021400 	sll	v0,v0,0x10
9d003410:	258afffe 	addiu	t2,t4,-2
9d003414:	00a72821 	addu	a1,a1,a3
9d003418:	00021400 	sll	v0,v0,0x10
9d00341c:	01421025 	or	v0,t2,v0
9d003420:	00ab2823 	subu	a1,a1,t3

9d003424 <.LBB20>:
9d003424:	00460019 	multu	v0,a2
9d003428:	00003810 	mfhi	a3

9d00342c <.LBE20>:
9d00342c:	00a7182b 	sltu	v1,a1,a3
9d003430:	14600044 	bnez	v1,9d003544 <.LBE20+0x118>
9d003434:	00003012 	mflo	a2
9d003438:	10a7003f 	beq	a1,a3,9d003538 <.LBE20+0x10c>
9d00343c:	01042004 	sllv	a0,a0,t0
9d003440:	03e00008 	jr	ra
9d003444:	00001821 	move	v1,zero
9d003448:	24020020 	li	v0,32
9d00344c:	00431023 	subu	v0,v0,v1
9d003450:	00454806 	srlv	t1,a1,v0
9d003454:	00083c02 	srl	a3,t0,0x10
9d003458:	0127001b 	divu	zero,t1,a3
9d00345c:	00e001f4 	teq	a3,zero,0x7
9d003460:	00003010 	mfhi	a2
9d003464:	00006012 	mflo	t4
9d003468:	310bffff 	andi	t3,t0,0xffff
9d00346c:	00652804 	sllv	a1,a1,v1
9d003470:	00441006 	srlv	v0,a0,v0
9d003474:	00452825 	or	a1,v0,a1
9d003478:	00056c02 	srl	t5,a1,0x10
9d00347c:	00641004 	sllv	v0,a0,v1
9d003480:	00001812 	mflo	v1
9d003484:	718b5002 	mul	t2,t4,t3
9d003488:	00063400 	sll	a2,a2,0x10
9d00348c:	01a63025 	or	a2,t5,a2
9d003490:	00ca202b 	sltu	a0,a2,t2
9d003494:	0127001b 	divu	zero,t1,a3
9d003498:	00e001f4 	teq	a3,zero,0x7
9d00349c:	5080000b 	beqzl	a0,9d0034cc <.LBE20+0xa0>
9d0034a0:	00ca3023 	subu	a2,a2,t2
9d0034a4:	00c83021 	addu	a2,a2,t0
9d0034a8:	00c8202b 	sltu	a0,a2,t0
9d0034ac:	14800006 	bnez	a0,9d0034c8 <.LBE20+0x9c>
9d0034b0:	2583ffff 	addiu	v1,t4,-1
9d0034b4:	00ca202b 	sltu	a0,a2,t2
9d0034b8:	50800004 	beqzl	a0,9d0034cc <.LBE20+0xa0>
9d0034bc:	00ca3023 	subu	a2,a2,t2
9d0034c0:	2583fffe 	addiu	v1,t4,-2
9d0034c4:	00c83021 	addu	a2,a2,t0
9d0034c8:	00ca3023 	subu	a2,a2,t2
9d0034cc:	30acffff 	andi	t4,a1,0xffff
9d0034d0:	00c7001b 	divu	zero,a2,a3
9d0034d4:	00e001f4 	teq	a3,zero,0x7
9d0034d8:	00002010 	mfhi	a0
9d0034dc:	00005012 	mflo	t2
9d0034e0:	00004812 	mflo	t1
9d0034e4:	714b2802 	mul	a1,t2,t3
9d0034e8:	00042400 	sll	a0,a0,0x10
9d0034ec:	008c2025 	or	a0,a0,t4
9d0034f0:	0085602b 	sltu	t4,a0,a1
9d0034f4:	00c7001b 	divu	zero,a2,a3
9d0034f8:	00e001f4 	teq	a3,zero,0x7
9d0034fc:	5180000b 	beqzl	t4,9d00352c <.LBE20+0x100>
9d003500:	00031c00 	sll	v1,v1,0x10
9d003504:	00882021 	addu	a0,a0,t0
9d003508:	0088302b 	sltu	a2,a0,t0
9d00350c:	14c00006 	bnez	a2,9d003528 <.LBE20+0xfc>
9d003510:	2549ffff 	addiu	t1,t2,-1
9d003514:	0085302b 	sltu	a2,a0,a1
9d003518:	50c00004 	beqzl	a2,9d00352c <.LBE20+0x100>
9d00351c:	00031c00 	sll	v1,v1,0x10
9d003520:	2549fffe 	addiu	t1,t2,-2
9d003524:	00882021 	addu	a0,a0,t0
9d003528:	00031c00 	sll	v1,v1,0x10
9d00352c:	00852023 	subu	a0,a0,a1
9d003530:	0b400c9c 	j	9d003270 <.LBB16>
9d003534:	01231825 	or	v1,t1,v1
9d003538:	0086302b 	sltu	a2,a0,a2
9d00353c:	10c0ffc0 	beqz	a2,9d003440 <.LBE20+0x14>
9d003540:	00000000 	nop
9d003544:	0b400d10 	j	9d003440 <.LBE20+0x14>
9d003548:	2442ffff 	addiu	v0,v0,-1
9d00354c:	00001821 	move	v1,zero
9d003550:	03e00008 	jr	ra
9d003554:	24020001 	li	v0,1
9d003558:	0b400cb1 	j	9d0032c4 <.LBB16+0x54>
9d00355c:	00c83021 	addu	a2,a2,t0

Disassembly of section .text.fpsubadd:

9d003560 <__subsf3>:
9d003560:	3c018000 00a12826                       ...<&(..

9d003568 <__addsf3>:
9d003568:	00044dc2 312900ff 00055dc2 316b00ff     .M....)1.]....k1
9d003578:	3c078000 00044200 01074025 00055200     ...<.B..%@...R..
9d003588:	01475025 252dffff 2da100fe 10200061     %PG...-%...-a. .
9d003598:	00000000                                ....

9d00359c <Blab1>:
9d00359c:	256dffff 	addiu	t5,t3,-1
9d0035a0:	2da100fe 	sltiu	at,t5,254
9d0035a4:	10200077 	beqz	at,9d003784 <BspecB>
9d0035a8:	00000000 	nop

9d0035ac <Blab2>:
9d0035ac:	012b6023 	subu	t4,t1,t3
9d0035b0:	0580000d 	bltz	t4,9d0035e8 <i1>
9d0035b4:	00000000 	nop
9d0035b8:	29810020 	slti	at,t4,32
9d0035bc:	14200003 	bnez	at,9d0035cc <i2>
9d0035c0:	00000000 	nop
9d0035c4:	10000015 	b	9d00361c <e1>
9d0035c8:	240a0002 	li	t2,2

9d0035cc <i2>:
9d0035cc:	000a3025 	or	a2,zero,t2
9d0035d0:	018a5006 	srlv	t2,t2,t4
9d0035d4:	018a6804 	sllv	t5,t2,t4
9d0035d8:	11a60010 	beq	t5,a2,9d00361c <e1>
9d0035dc:	00000000 	nop
9d0035e0:	1000000e 	b	9d00361c <e1>
9d0035e4:	354a0002 	ori	t2,t2,0x2

9d0035e8 <i1>:
9d0035e8:	000b4825 	or	t1,zero,t3
9d0035ec:	000c6023 	negu	t4,t4
9d0035f0:	29810020 	slti	at,t4,32
9d0035f4:	14200003 	bnez	at,9d003604 <i4>
9d0035f8:	00000000 	nop
9d0035fc:	10000007 	b	9d00361c <e1>
9d003600:	24080002 	li	t0,2

9d003604 <i4>:
9d003604:	00083025 	or	a2,zero,t0
9d003608:	01884006 	srlv	t0,t0,t4
9d00360c:	01886804 	sllv	t5,t0,t4
9d003610:	11a60002 	beq	t5,a2,9d00361c <e1>
9d003614:	00000000 	nop
9d003618:	35080002 	ori	t0,t0,0x2

9d00361c <e1>:
9d00361c:	00876024 	and	t4,a0,a3
9d003620:	01856826 	xor	t5,t4,a1
9d003624:	05a00010 	bltz	t5,9d003668 <Bsub1>
9d003628:	00000000 	nop
9d00362c:	010a4021 	addu	t0,t0,t2
9d003630:	010a682b 	sltu	t5,t0,t2
9d003634:	11a00017 	beqz	t5,9d003694 <Bres>
9d003638:	00000000 	nop
9d00363c:	310d0001 	andi	t5,t0,0x1
9d003640:	11a00002 	beqz	t5,9d00364c <i7>
9d003644:	00000000 	nop
9d003648:	35080002 	ori	t0,t0,0x2

9d00364c <i7>:
9d00364c:	00084042 	srl	t0,t0,0x1
9d003650:	25290001 	addiu	t1,t1,1
9d003654:	240100ff 	li	at,255
9d003658:	1521000e 	bne	t1,at,9d003694 <Bres>
9d00365c:	00000000 	nop
9d003660:	1000000c 	b	9d003694 <Bres>
9d003664:	24080000 	li	t0,0

9d003668 <Bsub1>:
9d003668:	010a682b 	sltu	t5,t0,t2
9d00366c:	11a00004 	beqz	t5,9d003680 <i9>
9d003670:	010a4023 	subu	t0,t0,t2
9d003674:	00084023 	negu	t0,t0
9d003678:	10000003 	b	9d003688 <e9>
9d00367c:	01876026 	xor	t4,t4,a3

9d003680 <i9>:
9d003680:	11000050 	beqz	t0,9d0037c4 <Bzer>
9d003684:	00000000 	nop

9d003688 <e9>:
9d003688:	71063020 	clz	a2,t0
9d00368c:	01264823 	subu	t1,t1,a2
9d003690:	00c84004 	sllv	t0,t0,a2

9d003694 <Bres>:
9d003694:	1920000e 	blez	t1,9d0036d0 <Bund>
9d003698:	00000000 	nop

9d00369c <Blab12>:
9d00369c:	25080080 	addiu	t0,t0,128
9d0036a0:	2d0d0080 	sltiu	t5,t0,128
9d0036a4:	012d4821 	addu	t1,t1,t5
9d0036a8:	00086a02 	srl	t5,t0,0x8
9d0036ac:	31ad0001 	andi	t5,t5,0x1
9d0036b0:	010d4023 	subu	t0,t0,t5
9d0036b4:	00084040 	sll	t0,t0,0x1
9d0036b8:	00084242 	srl	t0,t0,0x9
9d0036bc:	00096dc0 	sll	t5,t1,0x17
9d0036c0:	010d4025 	or	t0,t0,t5
9d0036c4:	010c1025 	or	v0,t0,t4

9d0036c8 <B999>:
9d0036c8:	03e00008 	jr	ra
9d0036cc:	00000000 	nop

9d0036d0 <Bund>:
9d0036d0:	24060001 	li	a2,1
9d0036d4:	00c93023 	subu	a2,a2,t1
9d0036d8:	2cc10020 	sltiu	at,a2,32
9d0036dc:	10200039 	beqz	at,9d0037c4 <Bzer>
9d0036e0:	00000000 	nop
9d0036e4:	3c018000 	lui	at,0x8000
9d0036e8:	01014025 	or	t0,t0,at
9d0036ec:	240d0020 	li	t5,32
9d0036f0:	01a66823 	subu	t5,t5,a2
9d0036f4:	01a84804 	sllv	t1,t0,t5
9d0036f8:	11200002 	beqz	t1,9d003704 <i10>
9d0036fc:	00c84006 	srlv	t0,t0,a2
9d003700:	35080001 	ori	t0,t0,0x1

9d003704 <i10>:
9d003704:	24090000 	li	t1,0
9d003708:	250d0080 	addiu	t5,t0,128
9d00370c:	05a1ffe3 	bgez	t5,9d00369c <Blab12>
9d003710:	00000000 	nop
9d003714:	1000ffe1 	b	9d00369c <Blab12>
9d003718:	24090001 	li	t1,1

9d00371c <BspecA>:
9d00371c:	1520000e 	bnez	t1,9d003758 <i12>
9d003720:	00000000 	nop
9d003724:	01084021 	addu	t0,t0,t0
9d003728:	11000005 	beqz	t0,9d003740 <i13>
9d00372c:	00000000 	nop
9d003730:	710c6020 	clz	t4,t0
9d003734:	012c4823 	subu	t1,t1,t4
9d003738:	1000ff98 	b	9d00359c <Blab1>
9d00373c:	01884004 	sllv	t0,t0,t4

9d003740 <i13>:
9d003740:	240100ff 	li	at,255
9d003744:	1161000f 	beq	t3,at,9d003784 <BspecB>
9d003748:	00000000 	nop
9d00374c:	3c018000 	lui	at,0x8000
9d003750:	14a10018 	bne	a1,at,9d0037b4 <BretB>
9d003754:	00000000 	nop

9d003758 <i12>:
9d003758:	01086821 	addu	t5,t0,t0
9d00375c:	15a0001b 	bnez	t5,9d0037cc <Bnan>
9d003760:	00000000 	nop
9d003764:	240100ff 	li	at,255
9d003768:	15610014 	bne	t3,at,9d0037bc <BretA>
9d00376c:	00000000 	nop
9d003770:	00856826 	xor	t5,a0,a1
9d003774:	05a00015 	bltz	t5,9d0037cc <Bnan>
9d003778:	00000000 	nop
9d00377c:	1000000d 	b	9d0037b4 <BretB>
9d003780:	00000000 	nop

9d003784 <BspecB>:
9d003784:	15600008 	bnez	t3,9d0037a8 <i15>
9d003788:	00000000 	nop
9d00378c:	014a5021 	addu	t2,t2,t2
9d003790:	1140000a 	beqz	t2,9d0037bc <BretA>
9d003794:	00000000 	nop
9d003798:	714c6020 	clz	t4,t2
9d00379c:	016c5823 	subu	t3,t3,t4
9d0037a0:	1000ff82 	b	9d0035ac <Blab2>
9d0037a4:	018a5004 	sllv	t2,t2,t4

9d0037a8 <i15>:
9d0037a8:	014a6821 	addu	t5,t2,t2
9d0037ac:	15a00007 	bnez	t5,9d0037cc <Bnan>
9d0037b0:	00000000 	nop

9d0037b4 <BretB>:
9d0037b4:	1000ffc4 	b	9d0036c8 <B999>
9d0037b8:	00051025 	or	v0,zero,a1

9d0037bc <BretA>:
9d0037bc:	1000ffc2 	b	9d0036c8 <B999>
9d0037c0:	00041025 	or	v0,zero,a0

9d0037c4 <Bzer>:
9d0037c4:	1000ffc0 	b	9d0036c8 <B999>
9d0037c8:	24020000 	li	v0,0

9d0037cc <Bnan>:
9d0037cc:	1000ffbe 	b	9d0036c8 <B999>
9d0037d0:	3c02ffc0 	lui	v0,0xffc0
9d0037d4:	00000000 	nop

Disassembly of section .text.fp32div:

9d0037d8 <__divsf3>:
9d0037d8:	3c0b8000 000445c2 310800ff 000555c2     ...<.E.....1.U..
9d0037e8:	314a00ff 00043a00 00eb3825 00054a00     ..J1.:..%8...J..
9d0037f8:	012b4825 00857026 016e5824 250effff     %H+.&p..$Xn....%
9d003808:	2dc100fe 1020003f 00000000              ...-?. .....

9d003814 <Dlab1>:
9d003814:	254effff 	addiu	t6,t2,-1
9d003818:	2dc100fe 	sltiu	at,t6,254
9d00381c:	10200053 	beqz	at,9d00396c <DspecB>
9d003820:	00000000 	nop

9d003824 <Dlab2>:
9d003824:	00e9082b 	sltu	at,a3,t1
9d003828:	14200003 	bnez	at,9d003838 <i27>
9d00382c:	00000000 	nop
9d003830:	00073842 	srl	a3,a3,0x1
9d003834:	25080001 	addiu	t0,t0,1

9d003838 <i27>:
9d003838:	00096382 	srl	t4,t1,0xe
9d00383c:	018001f4 	teq	t4,zero,0x7
9d003840:	00ec001b 	divu	zero,a3,t4
9d003844:	00002012 	mflo	a0
9d003848:	00003010 	mfhi	a2
9d00384c:	312d3fff 	andi	t5,t1,0x3fff
9d003850:	01a40019 	multu	t5,a0
9d003854:	00002812 	mflo	a1
9d003858:	00063380 	sll	a2,a2,0xe
9d00385c:	00c5702b 	sltu	t6,a2,a1
9d003860:	11c00004 	beqz	t6,9d003874 <i28>
9d003864:	00c53023 	subu	a2,a2,a1
9d003868:	2484ffff 	addiu	a0,a0,-1
9d00386c:	00c93021 	addu	a2,a2,t1
9d003870:	00c9702b 	sltu	t6,a2,t1

9d003874 <i28>:
9d003874:	018001f4 	teq	t4,zero,0x7
9d003878:	00cc001b 	divu	zero,a2,t4
9d00387c:	00003812 	mflo	a3
9d003880:	00003010 	mfhi	a2
9d003884:	01a70019 	multu	t5,a3
9d003888:	00002812 	mflo	a1
9d00388c:	00063380 	sll	a2,a2,0xe
9d003890:	00c5702b 	sltu	t6,a2,a1
9d003894:	11c00004 	beqz	t6,9d0038a8 <i29>
9d003898:	00c53023 	subu	a2,a2,a1
9d00389c:	24e7ffff 	addiu	a3,a3,-1
9d0038a0:	00c93021 	addu	a2,a2,t1
9d0038a4:	00c9702b 	sltu	t6,a2,t1

9d0038a8 <i29>:
9d0038a8:	00047380 	sll	t6,a0,0xe
9d0038ac:	00ee3821 	addu	a3,a3,t6
9d0038b0:	10c00002 	beqz	a2,9d0038bc <i30>
9d0038b4:	00073900 	sll	a3,a3,0x4
9d0038b8:	34e70001 	ori	a3,a3,0x1

9d0038bc <i30>:
9d0038bc:	240e007e 	li	t6,126
9d0038c0:	01ca7023 	subu	t6,t6,t2
9d0038c4:	010e4021 	addu	t0,t0,t6
9d0038c8:	250effff 	addiu	t6,t0,-1
9d0038cc:	2dc100fe 	sltiu	at,t6,254
9d0038d0:	10200034 	beqz	at,9d0039a4 <Doveund>
9d0038d4:	00000000 	nop

9d0038d8 <Dlab8>:
9d0038d8:	24e70080 	addiu	a3,a3,128
9d0038dc:	2cee0080 	sltiu	t6,a3,128
9d0038e0:	010e4021 	addu	t0,t0,t6
9d0038e4:	00077202 	srl	t6,a3,0x8
9d0038e8:	31ce0001 	andi	t6,t6,0x1
9d0038ec:	00ee3823 	subu	a3,a3,t6
9d0038f0:	00073840 	sll	a3,a3,0x1
9d0038f4:	00073a42 	srl	a3,a3,0x9
9d0038f8:	000875c0 	sll	t6,t0,0x17
9d0038fc:	00ee3825 	or	a3,a3,t6
9d003900:	00eb1025 	or	v0,a3,t3

9d003904 <D999>:
9d003904:	03e00008 	jr	ra
9d003908:	00000000 	nop

9d00390c <DspecA>:
9d00390c:	15000008 	bnez	t0,9d003930 <i31>
9d003910:	00000000 	nop
9d003914:	00e73821 	addu	a3,a3,a3
9d003918:	10e00005 	beqz	a3,9d003930 <i31>
9d00391c:	00000000 	nop
9d003920:	70ec6020 	clz	t4,a3
9d003924:	010c4023 	subu	t0,t0,t4
9d003928:	1000ffba 	b	9d003814 <Dlab1>
9d00392c:	01873804 	sllv	a3,a3,t4

9d003930 <i31>:
9d003930:	15480004 	bne	t2,t0,9d003944 <i33>
9d003934:	00000000 	nop
9d003938:	01297021 	addu	t6,t1,t1
9d00393c:	11c0002f 	beqz	t6,9d0039fc <Dnan>
9d003940:	00000000 	nop

9d003944 <i33>:
9d003944:	240100ff 	li	at,255
9d003948:	11410008 	beq	t2,at,9d00396c <DspecB>
9d00394c:	00000000 	nop
9d003950:	11000012 	beqz	t0,9d00399c <Dzer>
9d003954:	00000000 	nop
9d003958:	00e77021 	addu	t6,a3,a3
9d00395c:	15c00027 	bnez	t6,9d0039fc <Dnan>
9d003960:	00000000 	nop
9d003964:	10000022 	b	9d0039f0 <Dinf>
9d003968:	00000000 	nop

9d00396c <DspecB>:
9d00396c:	15400008 	bnez	t2,9d003990 <i34>
9d003970:	00000000 	nop
9d003974:	01294821 	addu	t1,t1,t1
9d003978:	1120001d 	beqz	t1,9d0039f0 <Dinf>
9d00397c:	00000000 	nop
9d003980:	712c6020 	clz	t4,t1
9d003984:	014c5023 	subu	t2,t2,t4
9d003988:	1000ffa6 	b	9d003824 <Dlab2>
9d00398c:	01894804 	sllv	t1,t1,t4

9d003990 <i34>:
9d003990:	01297021 	addu	t6,t1,t1
9d003994:	15c00019 	bnez	t6,9d0039fc <Dnan>
9d003998:	00000000 	nop

9d00399c <Dzer>:
9d00399c:	1000ffd9 	b	9d003904 <D999>
9d0039a0:	000b1025 	or	v0,zero,t3

9d0039a4 <Doveund>:
9d0039a4:	1d000012 	bgtz	t0,9d0039f0 <Dinf>
9d0039a8:	00000000 	nop
9d0039ac:	240c0001 	li	t4,1
9d0039b0:	01886023 	subu	t4,t4,t0
9d0039b4:	2d810020 	sltiu	at,t4,32
9d0039b8:	1020fff8 	beqz	at,9d00399c <Dzer>
9d0039bc:	00000000 	nop
9d0039c0:	240e0020 	li	t6,32
9d0039c4:	01cc7023 	subu	t6,t6,t4
9d0039c8:	01c74004 	sllv	t0,a3,t6
9d0039cc:	11000002 	beqz	t0,9d0039d8 <i37>
9d0039d0:	01873806 	srlv	a3,a3,t4
9d0039d4:	34e70002 	ori	a3,a3,0x2

9d0039d8 <i37>:
9d0039d8:	24080000 	li	t0,0
9d0039dc:	24ee0080 	addiu	t6,a3,128
9d0039e0:	05c1ffbd 	bgez	t6,9d0038d8 <Dlab8>
9d0039e4:	00000000 	nop
9d0039e8:	1000ffbb 	b	9d0038d8 <Dlab8>
9d0039ec:	24080001 	li	t0,1

9d0039f0 <Dinf>:
9d0039f0:	3c017f80 	lui	at,0x7f80
9d0039f4:	1000ffc3 	b	9d003904 <D999>
9d0039f8:	01611025 	or	v0,t3,at

9d0039fc <Dnan>:
9d0039fc:	1000ffc1 	b	9d003904 <D999>
9d003a00:	3c02ffc0 	lui	v0,0xffc0
9d003a04:	00000000 	nop

Disassembly of section .text:

9d003a08 <CoreTimerISR>:
#define CORE_TICKS 4000000 // 4M ticks (10Hz)
#define MAX_MESSAGE_LENGTH 100 // max message length
#define SAMPLE_TIME 10       // 10 core timer ticks = 250 ns
#define VOLTS_PER_COUNT (3.3/1024)

void __ISR(_CORE_TIMER_VECTOR, IPL6SRS) CoreTimerISR(void) { // step 1: the ISR
9d003a08:	415de800 	rdpgpr	sp,sp
9d003a0c:	401a7000 	mfc0	k0,c0_epc
9d003a10:	401b6000 	mfc0	k1,c0_status
9d003a14:	27bdff70 	addiu	sp,sp,-144
9d003a18:	afba008c 	sw	k0,140(sp)
9d003a1c:	401a6002 	mfc0	k0,c0_srsctl
9d003a20:	afbb0088 	sw	k1,136(sp)
9d003a24:	afba0084 	sw	k0,132(sp)
9d003a28:	7c1b7844 	ins	k1,zero,0x1,0xf
9d003a2c:	377b1800 	ori	k1,k1,0x1800
9d003a30:	409b6000 	mtc0	k1,c0_status
9d003a34:	00001012 	mflo	v0
9d003a38:	afa2007c 	sw	v0,124(sp)
9d003a3c:	00001810 	mfhi	v1
9d003a40:	afa30078 	sw	v1,120(sp)
  IFS0bits.CTIF = 0;                // clear CT int flag IFS0<0>, same as IFS0CLR=0x0001
9d003a44:	3c02bf88 	lui	v0,0xbf88
9d003a48:	8c431030 	lw	v1,4144(v0)
9d003a4c:	7c030004 	ins	v1,zero,0x0,0x1
9d003a50:	ac431030 	sw	v1,4144(v0)
  unsigned int elapsed = 0, finish_time = 0;

  // ADC sampling
  AD1CHSbits.CH0SA = 0; // set MUXA to sample B0
9d003a54:	3c02bf81 	lui	v0,0xbf81
9d003a58:	8c439040 	lw	v1,-28608(v0)
9d003a5c:	7c039c04 	ins	v1,zero,0x10,0x4
9d003a60:	ac439040 	sw	v1,-28608(v0)
  AD1CON1bits.SAMP = 1; // start sampling
9d003a64:	3c02bf81 	lui	v0,0xbf81
9d003a68:	94439000 	lhu	v1,-28672(v0)
9d003a6c:	24040001 	li	a0,1
9d003a70:	7c830844 	ins	v1,a0,0x1,0x1
9d003a74:	a4439000 	sh	v1,-28672(v0)
  elapsed = _CP0_GET_COUNT();
9d003a78:	40034800 	mfc0	v1,c0_count
  finish_time = elapsed + SAMPLE_TIME;
9d003a7c:	2463000a 	addiu	v1,v1,10
  while (_CP0_GET_COUNT() < finish_time) { ; }   // sample for more than 250 ns
9d003a80:	40024800 	mfc0	v0,c0_count
9d003a84:	0043102b 	sltu	v0,v0,v1
9d003a88:	1440fffd 	bnez	v0,9d003a80 <CoreTimerISR+0x78>
9d003a8c:	3c02bf81 	lui	v0,0xbf81
  AD1CON1bits.SAMP = 0; // stop sampling and start converting
9d003a90:	94439000 	lhu	v1,-28672(v0)
9d003a94:	7c030844 	ins	v1,zero,0x1,0x1
9d003a98:	a4439000 	sh	v1,-28672(v0)
  while (!AD1CON1bits.DONE) { ; }     // wait for the conversion process to finish
9d003a9c:	00401821 	move	v1,v0
9d003aa0:	8c629000 	lw	v0,-28672(v1)
9d003aa4:	30420001 	andi	v0,v0,0x1
9d003aa8:	1040fffd 	beqz	v0,9d003aa0 <CoreTimerISR+0x98>
9d003aac:	3c02bf81 	lui	v0,0xbf81

  // Prints voltage
  char message[MAX_MESSAGE_LENGTH];
  float voltage = 0;
  voltage = ADC1BUF0 * VOLTS_PER_COUNT;
9d003ab0:	8c449070 	lw	a0,-28560(v0)
9d003ab4:	0f401368 	jal	9d004da0 <__floatunsisf>
9d003ab8:	00000000 	nop
9d003abc:	00402021 	move	a0,v0
9d003ac0:	3c029d00 	lui	v0,0x9d00
9d003ac4:	0f400f6e 	jal	9d003db8 <.LFE9>
9d003ac8:	8c455088 	lw	a1,20616(v0)
  sprintf(message, "B0 is %fV\r\n", voltage);
9d003acc:	27a40010 	addiu	a0,sp,16
9d003ad0:	3c059d00 	lui	a1,0x9d00
9d003ad4:	24a5507c 	addiu	a1,a1,20604
9d003ad8:	0f4012ec 	jal	9d004bb0 <_sprintf_fF>
9d003adc:	00403021 	move	a2,v0

9d003ae0 <.LVL9>:
  NU32_WriteUART3(message);
9d003ae0:	0f400f5f 	jal	9d003d7c <NU32_WriteUART3>
9d003ae4:	27a40010 	addiu	a0,sp,16

9d003ae8 <.LVL10>:

  _CP0_SET_COUNT(0);                // set core timer counter to 0
9d003ae8:	00001021 	move	v0,zero
9d003aec:	40824800 	mtc0	v0,c0_count
9d003af0:	000000c0 	ehb
  _CP0_SET_COMPARE(CORE_TICKS);     // must set CP0_COMPARE again after interrupt
9d003af4:	3c02003d 	lui	v0,0x3d
9d003af8:	24420900 	addiu	v0,v0,2304
9d003afc:	40825800 	mtc0	v0,c0_compare
9d003b00:	000000c0 	ehb
}
9d003b04:	8fa2007c 	lw	v0,124(sp)
9d003b08:	00400013 	mtlo	v0
9d003b0c:	8fa30078 	lw	v1,120(sp)
9d003b10:	00600011 	mthi	v1
9d003b14:	41606000 	di
9d003b18:	000000c0 	ehb
9d003b1c:	8fbb0084 	lw	k1,132(sp)
9d003b20:	8fba008c 	lw	k0,140(sp)
9d003b24:	409b6002 	mtc0	k1,c0_srsctl
9d003b28:	8fbb0088 	lw	k1,136(sp)
9d003b2c:	409a7000 	mtc0	k0,c0_epc
9d003b30:	27bd0090 	addiu	sp,sp,144
9d003b34:	41dde800 	wrpgpr	sp,sp
9d003b38:	409b6000 	mtc0	k1,c0_status
9d003b3c:	42000018 	eret

9d003b40 <main>:

int main(void) {
9d003b40:	27bdffe8 	addiu	sp,sp,-24
9d003b44:	afbf0014 	sw	ra,20(sp)
  NU32_Startup(); // cache on, min flash wait, interrupts on, LED/button init, UART init
9d003b48:	0f400efd 	jal	9d003bf4 <NU32_Startup>
9d003b4c:	00000000 	nop

9d003b50 <.LVL11>:
  AD1PCFGbits.PCFG0 = 0;    // set B0 as analog input
9d003b50:	3c02bf81 	lui	v0,0xbf81
9d003b54:	94439060 	lhu	v1,-28576(v0)
9d003b58:	7c030004 	ins	v1,zero,0x0,0x1
9d003b5c:	a4439060 	sh	v1,-28576(v0)
  AD1CON3bits.ADCS = 2;                   // ADC clock period is Tad = 2*(ADCS+1)*Tpb =
9d003b60:	24030002 	li	v1,2
9d003b64:	3c02bf81 	lui	v0,0xbf81
9d003b68:	a0439020 	sb	v1,-28640(v0)
                                          //                           2*3*12.5ns = 75ns
  AD1CON1bits.ADON = 1; // turn on A/D converter
9d003b6c:	3c02bf81 	lui	v0,0xbf81
9d003b70:	94439000 	lhu	v1,-28672(v0)
9d003b74:	24040001 	li	a0,1
9d003b78:	7c837bc4 	ins	v1,a0,0xf,0x1
9d003b7c:	a4439000 	sh	v1,-28672(v0)

  __builtin_disable_interrupts();   // step 2: disable interrupts at CPU
9d003b80:	41626000 	di	v0
9d003b84:	000000c0 	ehb
  _CP0_SET_COMPARE(CORE_TICKS);     // step 3: CP0_COMPARE register set to 40 M
9d003b88:	3c02003d 	lui	v0,0x3d
9d003b8c:	24420900 	addiu	v0,v0,2304
9d003b90:	40825800 	mtc0	v0,c0_compare
9d003b94:	000000c0 	ehb
  IPC0bits.CTIP = 6;                // step 4: interrupt priority
9d003b98:	3c02bf88 	lui	v0,0xbf88
9d003b9c:	8c431090 	lw	v1,4240(v0)
9d003ba0:	24040006 	li	a0,6
9d003ba4:	7c832084 	ins	v1,a0,0x2,0x3
9d003ba8:	ac431090 	sw	v1,4240(v0)
  IPC0bits.CTIS = 0;                // step 4: subp is 0, which is the default
9d003bac:	8c431090 	lw	v1,4240(v0)
9d003bb0:	7c030804 	ins	v1,zero,0x0,0x2
9d003bb4:	ac431090 	sw	v1,4240(v0)
  IFS0bits.CTIF = 0;                // step 5: clear CT interrupt flag
9d003bb8:	3c02bf88 	lui	v0,0xbf88
9d003bbc:	8c431030 	lw	v1,4144(v0)
9d003bc0:	7c030004 	ins	v1,zero,0x0,0x1
9d003bc4:	ac431030 	sw	v1,4144(v0)
  IEC0bits.CTIE = 1;                // step 6: enable core timer interrupt
9d003bc8:	3c02bf88 	lui	v0,0xbf88
9d003bcc:	8c431060 	lw	v1,4192(v0)
9d003bd0:	24040001 	li	a0,1
9d003bd4:	7c830004 	ins	v1,a0,0x0,0x1
9d003bd8:	ac431060 	sw	v1,4192(v0)
  __builtin_enable_interrupts();    // step 7: CPU interrupts enabled
9d003bdc:	41626020 	ei	v0

  _CP0_SET_COUNT(0);                // set core timer counter to 0
9d003be0:	00001021 	move	v0,zero
9d003be4:	40824800 	mtc0	v0,c0_count
9d003be8:	000000c0 	ehb
9d003bec:	0b400efb 	j	9d003bec <.LVL11+0x9c>
9d003bf0:	00000000 	nop

9d003bf4 <NU32_Startup>:

// Perform startup routines:
//  Make NU32_LED1 and NU32_LED2 pins outputs (NU32_USER is by default an input)
//  Initialize the serial port - UART3 (no interrupt) 
//  Enable interrupts
void NU32_Startup() {
9d003bf4:	27bdfff8 	addiu	sp,sp,-8
9d003bf8:	afbf0004 	sw	ra,4(sp)
  // disable interrupts
  __builtin_disable_interrupts();
9d003bfc:	41626000 	di	v0
9d003c00:	000000c0 	ehb
  // see Chapter 2 "CPU for Devices with M4K Core" of the PIC32 reference manual
  // most of the other bits have prescribed values
  // microchip does not provide a _CP0_SET_CONFIG macro, so we directly use
  // the compiler built-in command _mtc0
  // to disable cache, use 0xa4210582 
  __builtin_mtc0(_CP0_CONFIG, _CP0_CONFIG_SELECT, 0xa4210583); 
9d003c04:	3c02a421 	lui	v0,0xa421
9d003c08:	24420583 	addiu	v0,v0,1411
9d003c0c:	40828000 	mtc0	v0,c0_config
9d003c10:	000000c0 	ehb
  
  // set the prefectch cache wait state to 2, as per the
  // electrical characteristics data sheet
  CHECONbits.PFMWS = 0x2;   
9d003c14:	3c02bf88 	lui	v0,0xbf88
9d003c18:	8c434000 	lw	v1,16384(v0)
9d003c1c:	24050002 	li	a1,2
9d003c20:	7ca31004 	ins	v1,a1,0x0,0x3
9d003c24:	ac434000 	sw	v1,16384(v0)

  //enable prefetch for cacheable and noncacheable memory
  CHECONbits.PREFEN = 0x3; 
9d003c28:	8c434000 	lw	v1,16384(v0)
9d003c2c:	24040003 	li	a0,3
9d003c30:	7c832904 	ins	v1,a0,0x4,0x2
9d003c34:	ac434000 	sw	v1,16384(v0)

  // 0 data RAM access wait states
  BMXCONbits.BMXWSDRM = 0x0;
9d003c38:	3c02bf88 	lui	v0,0xbf88
9d003c3c:	8c432000 	lw	v1,8192(v0)
9d003c40:	7c033184 	ins	v1,zero,0x6,0x1
9d003c44:	ac432000 	sw	v1,8192(v0)
  
  // enable multi vector interrupts
  INTCONbits.MVEC = 0x1;
9d003c48:	3c02bf88 	lui	v0,0xbf88
9d003c4c:	8c461000 	lw	a2,4096(v0)
9d003c50:	24030001 	li	v1,1
9d003c54:	7c666304 	ins	a2,v1,0xc,0x1
9d003c58:	ac461000 	sw	a2,4096(v0)

  // disable JTAG to get B10, B11, B12 and B13 back
  DDPCONbits.JTAGEN = 0;
9d003c5c:	3c02bf81 	lui	v0,0xbf81
9d003c60:	9046f200 	lbu	a2,-3584(v0)
9d003c64:	7c0618c4 	ins	a2,zero,0x3,0x1
9d003c68:	a046f200 	sb	a2,-3584(v0)

  TRISFCLR = 0x0003;  // Make F0 and F1 outputs (LED1 and LED2)
9d003c6c:	3c02bf88 	lui	v0,0xbf88
9d003c70:	ac446144 	sw	a0,24900(v0)
  NU32_LED1 = 1;      // LED1 is off
9d003c74:	3c02bf88 	lui	v0,0xbf88
9d003c78:	90446160 	lbu	a0,24928(v0)
9d003c7c:	7c640004 	ins	a0,v1,0x0,0x1
9d003c80:	a0446160 	sb	a0,24928(v0)
  NU32_LED2 = 0;      // LED2 is on
9d003c84:	90446160 	lbu	a0,24928(v0)
9d003c88:	7c040844 	ins	a0,zero,0x1,0x1
9d003c8c:	a0446160 	sb	a0,24928(v0)

  // turn on UART3 without an interrupt
  U3MODEbits.BRGH = 0; // set baud to NU32_DESIRED_BAUD
9d003c90:	3c02bf80 	lui	v0,0xbf80
9d003c94:	94446400 	lhu	a0,25600(v0)
9d003c98:	7c0418c4 	ins	a0,zero,0x3,0x1
9d003c9c:	a4446400 	sh	a0,25600(v0)
  U3BRG = ((NU32_SYS_FREQ / NU32_DESIRED_BAUD) / 16) - 1;
9d003ca0:	24060014 	li	a2,20
9d003ca4:	3c04bf80 	lui	a0,0xbf80
9d003ca8:	ac866440 	sw	a2,25664(a0)

  // 8 bit, no parity bit, and 1 stop bit (8N1 setup)
  U3MODEbits.PDSEL = 0;
9d003cac:	94446400 	lhu	a0,25600(v0)
9d003cb0:	7c041044 	ins	a0,zero,0x1,0x2
9d003cb4:	a4446400 	sh	a0,25600(v0)
  U3MODEbits.STSEL = 0;
9d003cb8:	94446400 	lhu	a0,25600(v0)
9d003cbc:	7c040004 	ins	a0,zero,0x0,0x1
9d003cc0:	a4446400 	sh	a0,25600(v0)

  // configure TX & RX pins as output & input pins
  U3STAbits.UTXEN = 1;
9d003cc4:	3c04bf80 	lui	a0,0xbf80
9d003cc8:	8c866410 	lw	a2,25616(a0)
9d003ccc:	7c665284 	ins	a2,v1,0xa,0x1
9d003cd0:	ac866410 	sw	a2,25616(a0)
  U3STAbits.URXEN = 1;
9d003cd4:	8c866410 	lw	a2,25616(a0)
9d003cd8:	7c666304 	ins	a2,v1,0xc,0x1
9d003cdc:	ac866410 	sw	a2,25616(a0)
  // configure hardware flow control using RTS and CTS
  U3MODEbits.UEN = 2;
9d003ce0:	94446400 	lhu	a0,25600(v0)
9d003ce4:	7ca44a04 	ins	a0,a1,0x8,0x2
9d003ce8:	a4446400 	sh	a0,25600(v0)

  // enable the uart
  U3MODEbits.ON = 1;
9d003cec:	94446400 	lhu	a0,25600(v0)
9d003cf0:	7c647bc4 	ins	a0,v1,0xf,0x1
9d003cf4:	a4446400 	sh	a0,25600(v0)

  __builtin_enable_interrupts();
9d003cf8:	41626020 	ei	v0
}
9d003cfc:	8fbf0004 	lw	ra,4(sp)
9d003d00:	03e00008 	jr	ra
9d003d04:	27bd0008 	addiu	sp,sp,8

9d003d08 <NU32_ReadUART3>:
// Read from UART3
// block other functions until you get a '\r' or '\n'
// send the pointer to your char array and the number of elements in the array
void NU32_ReadUART3(char * message, int maxLength) {
  char data = 0;
  int complete = 0, num_bytes = 0;
9d003d08:	00003021 	move	a2,zero
  // loop until you get a '\r' or '\n'
  while (!complete) {
    if (U3STAbits.URXDA) { // if data is available
9d003d0c:	3c03bf80 	lui	v1,0xbf80
      data = U3RXREG;      // read the data
9d003d10:	3c08bf80 	lui	t0,0xbf80
      if ((data == '\n') || (data == '\r')) {
9d003d14:	2407000a 	li	a3,10
9d003d18:	0b400f56 	j	9d003d58 <NU32_ReadUART3+0x50>
9d003d1c:	2409000d 	li	t1,13
void NU32_ReadUART3(char * message, int maxLength) {
  char data = 0;
  int complete = 0, num_bytes = 0;
  // loop until you get a '\r' or '\n'
  while (!complete) {
    if (U3STAbits.URXDA) { // if data is available
9d003d20:	8c626410 	lw	v0,25616(v1)
9d003d24:	30420001 	andi	v0,v0,0x1
9d003d28:	1040fffd 	beqz	v0,9d003d20 <NU32_ReadUART3+0x18>
9d003d2c:	00000000 	nop
      data = U3RXREG;      // read the data
9d003d30:	8d026430 	lw	v0,25648(t0)
9d003d34:	7c021420 	seb	v0,v0
      if ((data == '\n') || (data == '\r')) {
9d003d38:	5047000e 	beql	v0,a3,9d003d74 <NU32_ReadUART3+0x6c>
9d003d3c:	00862021 	addu	a0,a0,a2
9d003d40:	1049000b 	beq	v0,t1,9d003d70 <NU32_ReadUART3+0x68>
9d003d44:	00865021 	addu	t2,a0,a2
        complete = 1;
      } else {
        message[num_bytes] = data;
9d003d48:	a1420000 	sb	v0,0(t2)
        ++num_bytes;
9d003d4c:	24c60001 	addiu	a2,a2,1
        // roll over if the array is too small
        if (num_bytes >= maxLength) {
9d003d50:	00c5102a 	slt	v0,a2,a1
          num_bytes = 0;
9d003d54:	0002300a 	movz	a2,zero,v0
void NU32_ReadUART3(char * message, int maxLength) {
  char data = 0;
  int complete = 0, num_bytes = 0;
  // loop until you get a '\r' or '\n'
  while (!complete) {
    if (U3STAbits.URXDA) { // if data is available
9d003d58:	8c626410 	lw	v0,25616(v1)
9d003d5c:	30420001 	andi	v0,v0,0x1
9d003d60:	1040ffef 	beqz	v0,9d003d20 <NU32_ReadUART3+0x18>
9d003d64:	00000000 	nop
9d003d68:	0b400f4c 	j	9d003d30 <NU32_ReadUART3+0x28>
9d003d6c:	00000000 	nop
        }
      }
    }
  }
  // end the string
  message[num_bytes] = '\0';
9d003d70:	00862021 	addu	a0,a0,a2
9d003d74:	03e00008 	jr	ra
9d003d78:	a0800000 	sb	zero,0(a0)

9d003d7c <NU32_WriteUART3>:
}

// Write a character array using UART3
void NU32_WriteUART3(const char * string) {
  while (*string != '\0') {
9d003d7c:	80850000 	lb	a1,0(a0)
9d003d80:	10a0000b 	beqz	a1,9d003db0 <NU32_WriteUART3+0x34>
9d003d84:	3c03bf80 	lui	v1,0xbf80
    while (U3STAbits.UTXBF) {
      ; // wait until tx buffer isn't full
    }
    U3TXREG = *string;
9d003d88:	3c06bf80 	lui	a2,0xbf80
}

// Write a character array using UART3
void NU32_WriteUART3(const char * string) {
  while (*string != '\0') {
    while (U3STAbits.UTXBF) {
9d003d8c:	8c626410 	lw	v0,25616(v1)
9d003d90:	30420200 	andi	v0,v0,0x200
9d003d94:	1440fffd 	bnez	v0,9d003d8c <NU32_WriteUART3+0x10>
9d003d98:	00000000 	nop
      ; // wait until tx buffer isn't full
    }
    U3TXREG = *string;
9d003d9c:	acc56420 	sw	a1,25632(a2)
    ++string;
9d003da0:	24840001 	addiu	a0,a0,1
  message[num_bytes] = '\0';
}

// Write a character array using UART3
void NU32_WriteUART3(const char * string) {
  while (*string != '\0') {
9d003da4:	80850000 	lb	a1,0(a0)
9d003da8:	14a0fff8 	bnez	a1,9d003d8c <NU32_WriteUART3+0x10>
9d003dac:	00000000 	nop
9d003db0:	03e00008 	jr	ra
9d003db4:	00000000 	nop

Disassembly of section .text.fp32mul:

9d003db8 <__mulsf3>:
9d003db8:	00043dc2 30e700ff 00054dc2 312900ff     .=.....0.M....)1
9d003dc8:	3c0a8000 00043200 00ca3025 00054200     ...<.2..%0...B..
9d003dd8:	010a4025 00856026 014c5024 24ecffff     %@..&`..$PL....$
9d003de8:	2d8100fe 10200021 00000000              ...-!. .....

9d003df4 <Clab1>:
9d003df4:	252cffff 	addiu	t4,t1,-1
9d003df8:	2d8100fe 	sltiu	at,t4,254
9d003dfc:	10200036 	beqz	at,9d003ed8 <CspecB>
9d003e00:	00000000 	nop

9d003e04 <Clab2>:
9d003e04:	00c80019 	multu	a2,t0
9d003e08:	00005812 	mflo	t3
9d003e0c:	11600002 	beqz	t3,9d003e18 <i17>
9d003e10:	00003010 	mfhi	a2
9d003e14:	34c60001 	ori	a2,a2,0x1

9d003e18 <i17>:
9d003e18:	04c00003 	bltz	a2,9d003e28 <i18>
9d003e1c:	00000000 	nop
9d003e20:	00063040 	sll	a2,a2,0x1
9d003e24:	24e7ffff 	addiu	a3,a3,-1

9d003e28 <i18>:
9d003e28:	252cff82 	addiu	t4,t1,-126
9d003e2c:	00ec3821 	addu	a3,a3,t4
9d003e30:	24ecffff 	addiu	t4,a3,-1
9d003e34:	2d8100fe 	sltiu	at,t4,254
9d003e38:	1020003a 	beqz	at,9d003f24 <Coveund>
9d003e3c:	00000000 	nop

9d003e40 <Clab8>:
9d003e40:	24c60080 	addiu	a2,a2,128
9d003e44:	2ccc0080 	sltiu	t4,a2,128
9d003e48:	00ec3821 	addu	a3,a3,t4
9d003e4c:	00066202 	srl	t4,a2,0x8
9d003e50:	318c0001 	andi	t4,t4,0x1
9d003e54:	00cc3023 	subu	a2,a2,t4
9d003e58:	00063040 	sll	a2,a2,0x1
9d003e5c:	00063242 	srl	a2,a2,0x9
9d003e60:	000765c0 	sll	t4,a3,0x17
9d003e64:	00cc3025 	or	a2,a2,t4
9d003e68:	00ca1025 	or	v0,a2,t2

9d003e6c <C999>:
9d003e6c:	03e00008 	jr	ra
9d003e70:	00000000 	nop

9d003e74 <CspecA>:
9d003e74:	14e0000d 	bnez	a3,9d003eac <i19>
9d003e78:	00000000 	nop
9d003e7c:	00c63021 	addu	a2,a2,a2
9d003e80:	10c00005 	beqz	a2,9d003e98 <i20>
9d003e84:	00000000 	nop
9d003e88:	70cb5820 	clz	t3,a2
9d003e8c:	00eb3823 	subu	a3,a3,t3
9d003e90:	1000ffd8 	b	9d003df4 <Clab1>
9d003e94:	01663004 	sllv	a2,a2,t3

9d003e98 <i20>:
9d003e98:	240100ff 	li	at,255
9d003e9c:	1121001f 	beq	t1,at,9d003f1c <Cnan>
9d003ea0:	00000000 	nop
9d003ea4:	10000015 	b	9d003efc <Czer>
9d003ea8:	00000000 	nop

9d003eac <i19>:
9d003eac:	00c66021 	addu	t4,a2,a2
9d003eb0:	1580001a 	bnez	t4,9d003f1c <Cnan>
9d003eb4:	00000000 	nop
9d003eb8:	15200004 	bnez	t1,9d003ecc <i21>
9d003ebc:	00000000 	nop
9d003ec0:	01086021 	addu	t4,t0,t0
9d003ec4:	11800015 	beqz	t4,9d003f1c <Cnan>
9d003ec8:	00000000 	nop

9d003ecc <i21>:
9d003ecc:	240100ff 	li	at,255
9d003ed0:	1521000f 	bne	t1,at,9d003f10 <Cinf>
9d003ed4:	00000000 	nop

9d003ed8 <CspecB>:
9d003ed8:	1520000a 	bnez	t1,9d003f04 <i22>
9d003edc:	00000000 	nop
9d003ee0:	01084021 	addu	t0,t0,t0
9d003ee4:	11000005 	beqz	t0,9d003efc <Czer>
9d003ee8:	00000000 	nop
9d003eec:	710b5820 	clz	t3,t0
9d003ef0:	012b4823 	subu	t1,t1,t3
9d003ef4:	1000ffc3 	b	9d003e04 <Clab2>
9d003ef8:	01684004 	sllv	t0,t0,t3

9d003efc <Czer>:
9d003efc:	1000ffdb 	b	9d003e6c <C999>
9d003f00:	000a1025 	or	v0,zero,t2

9d003f04 <i22>:
9d003f04:	01086021 	addu	t4,t0,t0
9d003f08:	15800004 	bnez	t4,9d003f1c <Cnan>
9d003f0c:	00000000 	nop

9d003f10 <Cinf>:
9d003f10:	3c017f80 	lui	at,0x7f80
9d003f14:	1000ffd5 	b	9d003e6c <C999>
9d003f18:	01411025 	or	v0,t2,at

9d003f1c <Cnan>:
9d003f1c:	1000ffd3 	b	9d003e6c <C999>
9d003f20:	3c02ffc0 	lui	v0,0xffc0

9d003f24 <Coveund>:
9d003f24:	1ce0fffa 	bgtz	a3,9d003f10 <Cinf>
9d003f28:	00000000 	nop
9d003f2c:	240b0001 	li	t3,1
9d003f30:	01675823 	subu	t3,t3,a3
9d003f34:	2d610020 	sltiu	at,t3,32
9d003f38:	1020fff0 	beqz	at,9d003efc <Czer>
9d003f3c:	00000000 	nop
9d003f40:	240c0020 	li	t4,32
9d003f44:	018b6023 	subu	t4,t4,t3
9d003f48:	01863804 	sllv	a3,a2,t4
9d003f4c:	10e00002 	beqz	a3,9d003f58 <i25>
9d003f50:	01663006 	srlv	a2,a2,t3
9d003f54:	34c60002 	ori	a2,a2,0x2

9d003f58 <i25>:
9d003f58:	24070000 	li	a3,0
9d003f5c:	24cc0080 	addiu	t4,a2,128
9d003f60:	0581ffb7 	bgez	t4,9d003e40 <Clab8>
9d003f64:	00000000 	nop
9d003f68:	1000ffb5 	b	9d003e40 <Clab8>
9d003f6c:	24070001 	li	a3,1
9d003f70:	00000000 	nop

Disassembly of section .text._outcnvrt:

9d003f74 <_outcnvrt>:
9d003f74:	27bdffd8 	addiu	sp,sp,-40
9d003f78:	afbf0024 	sw	ra,36(sp)
9d003f7c:	afb40020 	sw	s4,32(sp)
9d003f80:	afb3001c 	sw	s3,28(sp)
9d003f84:	afb20018 	sw	s2,24(sp)
9d003f88:	afb10014 	sw	s1,20(sp)
9d003f8c:	afb00010 	sw	s0,16(sp)
9d003f90:	00809821 	move	s3,a0
9d003f94:	00a0a021 	move	s4,a1
9d003f98:	97a20038 	lhu	v0,56(sp)
9d003f9c:	30420008 	andi	v0,v0,0x8
9d003fa0:	00c08021 	move	s0,a2
9d003fa4:	10400014 	beqz	v0,9d003ff8 <_outcnvrt+0x84>
9d003fa8:	00e08821 	move	s1,a3
9d003fac:	00a02021 	move	a0,a1
9d003fb0:	00c02821 	move	a1,a2
9d003fb4:	0f401307 	jal	9d004c1c <__sputn>
9d003fb8:	02603021 	move	a2,s3
9d003fbc:	2403ffff 	li	v1,-1
9d003fc0:	10430003 	beq	v0,v1,9d003fd0 <_outcnvrt+0x5c>
9d003fc4:	0211902a 	slt	s2,s0,s1
9d003fc8:	1640001c 	bnez	s2,9d00403c <_outcnvrt+0xc8>
9d003fcc:	02602021 	move	a0,s3
9d003fd0:	02201021 	move	v0,s1
9d003fd4:	0212100a 	movz	v0,s0,s2
9d003fd8:	8fbf0024 	lw	ra,36(sp)
9d003fdc:	8fb40020 	lw	s4,32(sp)
9d003fe0:	8fb3001c 	lw	s3,28(sp)
9d003fe4:	8fb20018 	lw	s2,24(sp)
9d003fe8:	8fb10014 	lw	s1,20(sp)
9d003fec:	8fb00010 	lw	s0,16(sp)
9d003ff0:	03e00008 	jr	ra
9d003ff4:	27bd0028 	addiu	sp,sp,40
9d003ff8:	00c7902a 	slt	s2,a2,a3
9d003ffc:	1640001d 	bnez	s2,9d004074 <_outcnvrt+0x100>
9d004000:	00e62823 	subu	a1,a3,a2
9d004004:	02802021 	move	a0,s4
9d004008:	02002821 	move	a1,s0
9d00400c:	0f401307 	jal	9d004c1c <__sputn>
9d004010:	02603021 	move	a2,s3
9d004014:	02201021 	move	v0,s1
9d004018:	0212100a 	movz	v0,s0,s2
9d00401c:	8fbf0024 	lw	ra,36(sp)
9d004020:	8fb40020 	lw	s4,32(sp)
9d004024:	8fb3001c 	lw	s3,28(sp)
9d004028:	8fb20018 	lw	s2,24(sp)
9d00402c:	8fb10014 	lw	s1,20(sp)
9d004030:	8fb00010 	lw	s0,16(sp)
9d004034:	03e00008 	jr	ra
9d004038:	27bd0028 	addiu	sp,sp,40
9d00403c:	02302823 	subu	a1,s1,s0
9d004040:	3c069d00 	lui	a2,0x9d00
9d004044:	0f4011f8 	jal	9d0047e0 <repl>
9d004048:	24c64cc0 	addiu	a2,a2,19648
9d00404c:	02201021 	move	v0,s1
9d004050:	0212100a 	movz	v0,s0,s2
9d004054:	8fbf0024 	lw	ra,36(sp)
9d004058:	8fb40020 	lw	s4,32(sp)
9d00405c:	8fb3001c 	lw	s3,28(sp)
9d004060:	8fb20018 	lw	s2,24(sp)
9d004064:	8fb10014 	lw	s1,20(sp)
9d004068:	8fb00010 	lw	s0,16(sp)
9d00406c:	03e00008 	jr	ra
9d004070:	27bd0028 	addiu	sp,sp,40
9d004074:	3c069d00 	lui	a2,0x9d00
9d004078:	0f4011f8 	jal	9d0047e0 <repl>
9d00407c:	24c64cc0 	addiu	a2,a2,19648
9d004080:	2403ffff 	li	v1,-1
9d004084:	1443ffdf 	bne	v0,v1,9d004004 <_outcnvrt+0x90>
9d004088:	02201021 	move	v0,s1
9d00408c:	0212100a 	movz	v0,s0,s2
9d004090:	8fbf0024 	lw	ra,36(sp)
9d004094:	8fb40020 	lw	s4,32(sp)
9d004098:	8fb3001c 	lw	s3,28(sp)
9d00409c:	8fb20018 	lw	s2,24(sp)
9d0040a0:	8fb10014 	lw	s1,20(sp)
9d0040a4:	8fb00010 	lw	s0,16(sp)
9d0040a8:	03e00008 	jr	ra
9d0040ac:	27bd0028 	addiu	sp,sp,40

Disassembly of section .dinit:

9d0040b0 <.dinit>:
9d0040b0:	a000000c 	sb	zero,12(zero)
9d0040b4:	000000d4 	0xd4
9d0040b8:	00000001 	movf	zero,zero,$fcc0
9d0040bc:	a0000070 	sb	zero,112(zero)
9d0040c0:	a000008c 	sb	zero,140(zero)
9d0040c4:	a00000a8 	sb	zero,168(zero)
9d0040c8:	a000006c 	sb	zero,108(zero)
9d0040cc:	a00000e0 	sb	zero,224(zero)
9d0040d0:	00000001 	movf	zero,zero,$fcc0
	...
9d004120:	ffffffff 	sdc3	$31,-1(ra)
9d004124:	ffffffff 	sdc3	$31,-1(ra)
9d004128:	00000000 	nop
9d00412c:	00000040 	ssnop
9d004130:	00001009 	jalr	v0,zero
9d004134:	00000000 	nop
9d004138:	9d005040 	0x9d005040
9d00413c:	ffffffff 	sdc3	$31,-1(ra)
	...
9d00414c:	00011002 	srl	v0,at,0x0
9d004150:	00000000 	nop
9d004154:	9d005040 	0x9d005040
9d004158:	ffffffff 	sdc3	$31,-1(ra)
	...
9d004168:	00020002 	srl	zero,v0,0x0
9d00416c:	00000000 	nop
9d004170:	9d005040 	0x9d005040
9d004174:	fffffffd 	sdc3	$31,-3(ra)
	...
9d004190:	a00000e0 	sb	zero,224(zero)
9d004194:	00000088 	0x88
9d004198:	00000000 	nop
9d00419c:	a0000000 	sb	zero,0(zero)
9d0041a0:	00000004 	sllv	zero,zero,zero
9d0041a4:	00000001 	movf	zero,zero,$fcc0
9d0041a8:	a000000c 	sb	zero,12(zero)
9d0041ac:	a0000008 	sb	zero,8(zero)
9d0041b0:	00000004 	sllv	zero,zero,zero
9d0041b4:	00000000 	nop
9d0041b8:	a0000004 	sb	zero,4(zero)
9d0041bc:	00000004 	sllv	zero,zero,zero
9d0041c0:	00000001 	movf	zero,zero,$fcc0
9d0041c4:	00000002 	srl	zero,zero,0x0
9d0041c8:	00000000 	nop
9d0041cc:	22222222 	addi	v0,s1,8738

Disassembly of section .text.dptofp:

9d0041d0 <__truncdfsf2>:
9d0041d0:	00053ac0 00045d42 00eb3825 000432c0     .:..B]..%8...2..
9d0041e0:	3c018000 00e13825 3c018000 00a14824     ...<%8.....<$H..
9d0041f0:	00054040 00084542 2508fc80 250bffff     @@..BE.....%...%
9d004200:	2d6100fe 10200012 00000000              ..a-.. .....

9d00420c <Hlab1>:
9d00420c:	10c00002 	beqz	a2,9d004218 <i45>
9d004210:	00000000 	nop
9d004214:	34e70001 	ori	a3,a3,0x1

9d004218 <i45>:
9d004218:	24e70080 	addiu	a3,a3,128
9d00421c:	2ceb0080 	sltiu	t3,a3,128
9d004220:	010b4021 	addu	t0,t0,t3
9d004224:	00075a02 	srl	t3,a3,0x8
9d004228:	316b0001 	andi	t3,t3,0x1
9d00422c:	00eb3823 	subu	a3,a3,t3
9d004230:	00073840 	sll	a3,a3,0x1
9d004234:	00073a42 	srl	a3,a3,0x9
9d004238:	00085dc0 	sll	t3,t0,0x17
9d00423c:	00eb3825 	or	a3,a3,t3
9d004240:	00e91025 	or	v0,a3,t1

9d004244 <H999>:
9d004244:	03e00008 	jr	ra
9d004248:	00000000 	nop
9d00424c:	00000000 	nop

9d004250 <Hspec>:
9d004250:	2401047f 	li	at,1151
9d004254:	15010007 	bne	t0,at,9d004274 <i46>
9d004258:	00000000 	nop
9d00425c:	00075840 	sll	t3,a3,0x1
9d004260:	01665825 	or	t3,t3,a2
9d004264:	11600003 	beqz	t3,9d004274 <i46>
9d004268:	00000000 	nop
9d00426c:	1000fff5 	b	9d004244 <H999>
9d004270:	3c02ffc0 	lui	v0,0xffc0

9d004274 <i46>:
9d004274:	290100ff 	slti	at,t0,255
9d004278:	14200004 	bnez	at,9d00428c <i48>
9d00427c:	00000000 	nop
9d004280:	3c017f80 	lui	at,0x7f80
9d004284:	1000ffef 	b	9d004244 <H999>
9d004288:	01211025 	or	v0,t1,at

9d00428c <i48>:
9d00428c:	240a0001 	li	t2,1
9d004290:	01485023 	subu	t2,t2,t0
9d004294:	2d410020 	sltiu	at,t2,32
9d004298:	14200003 	bnez	at,9d0042a8 <i49>
9d00429c:	00000000 	nop
9d0042a0:	1000ffe8 	b	9d004244 <H999>
9d0042a4:	00091025 	or	v0,zero,t1

9d0042a8 <i49>:
9d0042a8:	240c0020 	li	t4,32
9d0042ac:	018a6023 	subu	t4,t4,t2
9d0042b0:	01875804 	sllv	t3,a3,t4
9d0042b4:	00cb3025 	or	a2,a2,t3
9d0042b8:	01473806 	srlv	a3,a3,t2
9d0042bc:	24080000 	li	t0,0
9d0042c0:	3c018000 	lui	at,0x8000
9d0042c4:	1000ffd1 	b	9d00420c <Hlab1>
9d0042c8:	00e13825 	or	a3,a3,at
9d0042cc:	00000000 	nop

Disassembly of section .text._flsbuf_simple:

9d0042d0 <_flsbuf_simple>:
9d0042d0:	27bdffd8 	addiu	sp,sp,-40
9d0042d4:	afbf0024 	sw	ra,36(sp)
9d0042d8:	afb10020 	sw	s1,32(sp)
9d0042dc:	afb0001c 	sw	s0,28(sp)
9d0042e0:	00a08021 	move	s0,a1
9d0042e4:	8ca2000c 	lw	v0,12(a1)
9d0042e8:	1040002d 	beqz	v0,9d0043a0 <_flsbuf_simple+0xd0>
9d0042ec:	00808821 	move	s1,a0
9d0042f0:	8ca20000 	lw	v0,0(a1)
9d0042f4:	24420001 	addiu	v0,v0,1
9d0042f8:	2403ffff 	li	v1,-1
9d0042fc:	1043001e 	beq	v0,v1,9d004378 <_flsbuf_simple+0xa8>
9d004300:	aca20000 	sw	v0,0(a1)
9d004304:	0f40128c 	jal	9d004a30 <_fflush_simple>
9d004308:	02002021 	move	a0,s0
9d00430c:	8e040000 	lw	a0,0(s0)
9d004310:	8e020004 	lw	v0,4(s0)
9d004314:	2484ffff 	addiu	a0,a0,-1
9d004318:	24430001 	addiu	v1,v0,1
9d00431c:	ae040000 	sw	a0,0(s0)
9d004320:	ae030004 	sw	v1,4(s0)
9d004324:	a0510000 	sb	s1,0(v0)
9d004328:	2402000a 	li	v0,10
9d00432c:	52220007 	beql	s1,v0,9d00434c <_flsbuf_simple+0x7c>
9d004330:	96020010 	lhu	v0,16(s0)
9d004334:	02201021 	move	v0,s1
9d004338:	8fbf0024 	lw	ra,36(sp)
9d00433c:	8fb10020 	lw	s1,32(sp)
9d004340:	8fb0001c 	lw	s0,28(sp)
9d004344:	03e00008 	jr	ra
9d004348:	27bd0028 	addiu	sp,sp,40
9d00434c:	30420008 	andi	v0,v0,0x8
9d004350:	1040fff9 	beqz	v0,9d004338 <_flsbuf_simple+0x68>
9d004354:	02201021 	move	v0,s1
9d004358:	0f40128c 	jal	9d004a30 <_fflush_simple>
9d00435c:	02002021 	move	a0,s0
9d004360:	02201021 	move	v0,s1
9d004364:	8fbf0024 	lw	ra,36(sp)
9d004368:	8fb10020 	lw	s1,32(sp)
9d00436c:	8fb0001c 	lw	s0,28(sp)
9d004370:	03e00008 	jr	ra
9d004374:	27bd0028 	addiu	sp,sp,40
9d004378:	8ca20008 	lw	v0,8(a1)
9d00437c:	1440ffe1 	bnez	v0,9d004304 <_flsbuf_simple+0x34>
9d004380:	00000000 	nop
9d004384:	94a20010 	lhu	v0,16(a1)
9d004388:	aca00004 	sw	zero,4(a1)
9d00438c:	aca0000c 	sw	zero,12(a1)
9d004390:	34420010 	ori	v0,v0,0x10
9d004394:	aca00000 	sw	zero,0(a1)
9d004398:	0b4010c1 	j	9d004304 <_flsbuf_simple+0x34>
9d00439c:	a4a20010 	sh	v0,16(a1)
9d0043a0:	27a40010 	addiu	a0,sp,16
9d0043a4:	24050001 	li	a1,1
9d0043a8:	0f40137b 	jal	9d004dec <.LFE0>
9d0043ac:	a3b10010 	sb	s1,16(sp)
9d0043b0:	ae000000 	sw	zero,0(s0)
9d0043b4:	02201021 	move	v0,s1
9d0043b8:	8fbf0024 	lw	ra,36(sp)
9d0043bc:	8fb10020 	lw	s1,32(sp)
9d0043c0:	8fb0001c 	lw	s0,28(sp)
9d0043c4:	03e00008 	jr	ra
9d0043c8:	27bd0028 	addiu	sp,sp,40

Disassembly of section .text._mon_getc:

9d0043cc <_mon_getc>:
9d0043cc:	27bdffe8 	addiu	sp,sp,-24

9d0043d0 <.LCFI0>:
9d0043d0:	afbf0014 	sw	ra,20(sp)
9d0043d4:	3c02a000 	lui	v0,0xa000
9d0043d8:	8c420004 	lw	v0,4(v0)
9d0043dc:	1440000a 	bnez	v0,9d004408 <.LCFI0+0x38>
9d0043e0:	24030002 	li	v1,2
9d0043e4:	3c020000 	lui	v0,0x0
9d0043e8:	24420000 	addiu	v0,v0,0
9d0043ec:	10400029 	beqz	v0,9d004494 <.LCFI0+0xc4>
9d0043f0:	3c020000 	lui	v0,0x0
9d0043f4:	0c000000 	jal	90000000 <_bmxdudba_address+0x8ffe0000>
9d0043f8:	00000000 	nop
9d0043fc:	8fbf0014 	lw	ra,20(sp)
9d004400:	03e00008 	jr	ra
9d004404:	27bd0018 	addiu	sp,sp,24
9d004408:	1043001c 	beq	v0,v1,9d00447c <.LCFI0+0xac>
9d00440c:	3c02bf80 	lui	v0,0xbf80
9d004410:	3c02bf80 	lui	v0,0xbf80
9d004414:	8c426000 	lw	v0,24576(v0)
9d004418:	3c05bf80 	lui	a1,0xbf80
9d00441c:	24a56030 	addiu	a1,a1,24624
9d004420:	3c04bf80 	lui	a0,0xbf80
9d004424:	24846010 	addiu	a0,a0,24592
9d004428:	30428000 	andi	v0,v0,0x8000
9d00442c:	14400003 	bnez	v0,9d00443c <.LCFI0+0x6c>
9d004430:	34038000 	li	v1,0x8000
9d004434:	3c02bf80 	lui	v0,0xbf80
9d004438:	ac436008 	sw	v1,24584(v0)
9d00443c:	8c820000 	lw	v0,0(a0)
9d004440:	30420001 	andi	v0,v0,0x1
9d004444:	14400009 	bnez	v0,9d00446c <.LCFI0+0x9c>
9d004448:	240200a0 	li	v0,160
9d00444c:	0b401117 	j	9d00445c <.LCFI0+0x8c>
9d004450:	00000000 	nop
9d004454:	10400005 	beqz	v0,9d00446c <.LCFI0+0x9c>
9d004458:	00000000 	nop
9d00445c:	8c830000 	lw	v1,0(a0)
9d004460:	30630001 	andi	v1,v1,0x1
9d004464:	1060fffb 	beqz	v1,9d004454 <.LCFI0+0x84>
9d004468:	2442ffff 	addiu	v0,v0,-1
9d00446c:	8ca20000 	lw	v0,0(a1)
9d004470:	8fbf0014 	lw	ra,20(sp)
9d004474:	03e00008 	jr	ra
9d004478:	27bd0018 	addiu	sp,sp,24
9d00447c:	8c426800 	lw	v0,26624(v0)
9d004480:	3c05bf80 	lui	a1,0xbf80
9d004484:	24a56830 	addiu	a1,a1,26672
9d004488:	3c04bf80 	lui	a0,0xbf80
9d00448c:	0b40110a 	j	9d004428 <.LCFI0+0x58>
9d004490:	24846810 	addiu	a0,a0,26640
9d004494:	24420000 	addiu	v0,v0,0
9d004498:	5040ffde 	beqzl	v0,9d004414 <.LCFI0+0x44>
9d00449c:	3c02bf80 	lui	v0,0xbf80
9d0044a0:	0c000000 	jal	90000000 <_bmxdudba_address+0x8ffe0000>
9d0044a4:	00000000 	nop
9d0044a8:	0b401100 	j	9d004400 <.LCFI0+0x30>
9d0044ac:	8fbf0014 	lw	ra,20(sp)

Disassembly of section .text.general_exception:

9d0044b0 <_general_exception_context>:
9d0044b0:	27bdffa8 	addiu	sp,sp,-88
9d0044b4:	afa10004 	sw	at,4(sp)
9d0044b8:	afa20008 	sw	v0,8(sp)
9d0044bc:	afa3000c 	sw	v1,12(sp)
9d0044c0:	afa40010 	sw	a0,16(sp)
9d0044c4:	afa50014 	sw	a1,20(sp)
9d0044c8:	afa60018 	sw	a2,24(sp)
9d0044cc:	afa7001c 	sw	a3,28(sp)
9d0044d0:	afa80020 	sw	t0,32(sp)
9d0044d4:	afa90024 	sw	t1,36(sp)
9d0044d8:	afaa0028 	sw	t2,40(sp)
9d0044dc:	afab002c 	sw	t3,44(sp)
9d0044e0:	afac0030 	sw	t4,48(sp)
9d0044e4:	afad0034 	sw	t5,52(sp)
9d0044e8:	afae0038 	sw	t6,56(sp)
9d0044ec:	afaf003c 	sw	t7,60(sp)
9d0044f0:	afb80040 	sw	t8,64(sp)
9d0044f4:	afb90044 	sw	t9,68(sp)
9d0044f8:	afbf0048 	sw	ra,72(sp)
9d0044fc:	00004012 	mflo	t0
9d004500:	afa8004c 	sw	t0,76(sp)
9d004504:	00004010 	mfhi	t0
9d004508:	afa80050 	sw	t0,80(sp)
9d00450c:	3c1a9d00 	lui	k0,0x9d00
9d004510:	275a4e80 	addiu	k0,k0,20096
9d004514:	00000000 	nop
9d004518:	40046800 	mfc0	a0,c0_cause
9d00451c:	40056000 	mfc0	a1,c0_status
9d004520:	0340f809 	jalr	k0
9d004524:	00000000 	nop
9d004528:	8fa80050 	lw	t0,80(sp)
9d00452c:	01000011 	mthi	t0
9d004530:	8fa8004c 	lw	t0,76(sp)
9d004534:	01000013 	mtlo	t0
9d004538:	8fa10004 	lw	at,4(sp)
9d00453c:	8fa20008 	lw	v0,8(sp)
9d004540:	8fa3000c 	lw	v1,12(sp)
9d004544:	8fa40010 	lw	a0,16(sp)
9d004548:	8fa50014 	lw	a1,20(sp)
9d00454c:	8fa60018 	lw	a2,24(sp)
9d004550:	8fa7001c 	lw	a3,28(sp)
9d004554:	8fa80020 	lw	t0,32(sp)
9d004558:	8fa90024 	lw	t1,36(sp)
9d00455c:	8faa0028 	lw	t2,40(sp)
9d004560:	8fab002c 	lw	t3,44(sp)
9d004564:	8fac0030 	lw	t4,48(sp)
9d004568:	8fad0034 	lw	t5,52(sp)
9d00456c:	8fae0038 	lw	t6,56(sp)
9d004570:	8faf003c 	lw	t7,60(sp)
9d004574:	8fb80040 	lw	t8,64(sp)
9d004578:	8fb90044 	lw	t9,68(sp)
9d00457c:	8fbf0048 	lw	ra,72(sp)
9d004580:	27bd0058 	addiu	sp,sp,88
9d004584:	000000c0 	ehb
9d004588:	42000018 	eret

Disassembly of section .text.libm:

9d00458c <fpmodf>:
9d00458c:	00043dc2 30e700ff 3c088000 00043200     .=.....0...<.2..
9d00459c:	00c83025 01044024 240100ff 10e10028     %0..$@.....$(...
9d0045ac:	00000000 00064825 00075025 00085825     ....%H..%P..%X..
9d0045bc:	240c009e 01876023 19800006 00000000     ...$#`..........
9d0045cc:	29810020 1020001c 00000000 01894806      ..).. ......H..
9d0045dc:	01894804                                .H..

9d0045e0 <Dlab3>:
9d0045e0:	00096040 	sll	t4,t1,0x1
9d0045e4:	000c6242 	srl	t4,t4,0x9
9d0045e8:	000a6dc0 	sll	t5,t2,0x17
9d0045ec:	018d6025 	or	t4,t4,t5
9d0045f0:	018b6825 	or	t5,t4,t3
9d0045f4:	acad0000 	sw	t5,0(a1)
9d0045f8:	00ea6023 	subu	t4,a3,t2
9d0045fc:	2d810020 	sltiu	at,t4,32
9d004600:	14200002 	bnez	at,9d00460c <L2>
9d004604:	00000000 	nop
9d004608:	34090000 	li	t1,0x0

9d00460c <L2>:
9d00460c:	01894806 	srlv	t1,t1,t4
9d004610:	00c93023 	subu	a2,a2,t1
9d004614:	10c00008 	beqz	a2,9d004638 <Dret2>
9d004618:	00000000 	nop
9d00461c:	70cc6020 	clz	t4,a2
9d004620:	00ec3823 	subu	a3,a3,t4
9d004624:	01863004 	sllv	a2,a2,t4

9d004628 <Dret>:
9d004628:	00063040 	sll	a2,a2,0x1
9d00462c:	00063242 	srl	a2,a2,0x9
9d004630:	00076dc0 	sll	t5,a3,0x17
9d004634:	00cd3025 	or	a2,a2,t5

9d004638 <Dret2>:
9d004638:	00c81025 	or	v0,a2,t0

9d00463c <D999>:
9d00463c:	03e00008 	jr	ra
9d004640:	00000000 	nop

9d004644 <Dzer>:
9d004644:	1000fff8 	b	9d004628 <Dret>
9d004648:	aca80000 	sw	t0,0(a1)

9d00464c <Dinfnan>:
9d00464c:	3c04ffc0 	lui	a0,0xffc0
9d004650:	aca40000 	sw	a0,0(a1)
9d004654:	1000fff9 	b	9d00463c <D999>
9d004658:	00041025 	or	v0,zero,a0
9d00465c:	00000000 	nop

Disassembly of section .text._mon_putc:

9d004660 <_mon_putc>:
9d004660:	27bdffe8 	addiu	sp,sp,-24

9d004664 <.LCFI0>:
9d004664:	afbf0014 	sw	ra,20(sp)
9d004668:	3c02a000 	lui	v0,0xa000
9d00466c:	8c420004 	lw	v0,4(v0)
9d004670:	1440000a 	bnez	v0,9d00469c <.LCFI0+0x38>
9d004674:	00802821 	move	a1,a0
9d004678:	3c020000 	lui	v0,0x0
9d00467c:	24420000 	addiu	v0,v0,0
9d004680:	10400025 	beqz	v0,9d004718 <.LCFI0+0xb4>
9d004684:	3c020000 	lui	v0,0x0
9d004688:	0c000000 	jal	90000000 <_bmxdudba_address+0x8ffe0000>
9d00468c:	00000000 	nop
9d004690:	8fbf0014 	lw	ra,20(sp)
9d004694:	03e00008 	jr	ra
9d004698:	27bd0018 	addiu	sp,sp,24
9d00469c:	24030001 	li	v1,1
9d0046a0:	10430015 	beq	v0,v1,9d0046f8 <.LCFI0+0x94>
9d0046a4:	3c04bf80 	lui	a0,0xbf80
9d0046a8:	3c04bf80 	lui	a0,0xbf80
9d0046ac:	24846820 	addiu	a0,a0,26656
9d0046b0:	3c02bf80 	lui	v0,0xbf80
9d0046b4:	24426818 	addiu	v0,v0,26648
9d0046b8:	3c06bf80 	lui	a2,0xbf80
9d0046bc:	24c66808 	addiu	a2,a2,26632
9d0046c0:	3c03bf80 	lui	v1,0xbf80
9d0046c4:	24636810 	addiu	v1,v1,26640
9d0046c8:	34078000 	li	a3,0x8000
9d0046cc:	acc70000 	sw	a3,0(a2)
9d0046d0:	24060400 	li	a2,1024
9d0046d4:	ac460000 	sw	a2,0(v0)
9d0046d8:	8c620000 	lw	v0,0(v1)
9d0046dc:	30420100 	andi	v0,v0,0x100
9d0046e0:	1040fffd 	beqz	v0,9d0046d8 <.LCFI0+0x74>
9d0046e4:	00000000 	nop
9d0046e8:	ac850000 	sw	a1,0(a0)
9d0046ec:	8fbf0014 	lw	ra,20(sp)
9d0046f0:	03e00008 	jr	ra
9d0046f4:	27bd0018 	addiu	sp,sp,24
9d0046f8:	24846020 	addiu	a0,a0,24608
9d0046fc:	3c02bf80 	lui	v0,0xbf80
9d004700:	24426018 	addiu	v0,v0,24600
9d004704:	3c06bf80 	lui	a2,0xbf80
9d004708:	24c66008 	addiu	a2,a2,24584
9d00470c:	3c03bf80 	lui	v1,0xbf80
9d004710:	0b4011b2 	j	9d0046c8 <.LCFI0+0x64>
9d004714:	24636010 	addiu	v1,v1,24592
9d004718:	24420000 	addiu	v0,v0,0
9d00471c:	5040ffe3 	beqzl	v0,9d0046ac <.LCFI0+0x48>
9d004720:	3c04bf80 	lui	a0,0xbf80
9d004724:	0c000000 	jal	90000000 <_bmxdudba_address+0x8ffe0000>
9d004728:	00000000 	nop
9d00472c:	0b4011a5 	j	9d004694 <.LCFI0+0x30>
9d004730:	8fbf0014 	lw	ra,20(sp)

Disassembly of section .text.fputc:

9d004734 <fputc>:
9d004734:	27bdffe0 	addiu	sp,sp,-32
9d004738:	afbf001c 	sw	ra,28(sp)
9d00473c:	afb10018 	sw	s1,24(sp)
9d004740:	afb00014 	sw	s0,20(sp)
9d004744:	00a08021 	move	s0,a1
9d004748:	8ca20018 	lw	v0,24(a1)
9d00474c:	00808821 	move	s1,a0
9d004750:	24050001 	li	a1,1
9d004754:	8c420010 	lw	v0,16(v0)
9d004758:	0040f809 	jalr	v0
9d00475c:	02002021 	move	a0,s0
9d004760:	1040000e 	beqz	v0,9d00479c <fputc+0x68>
9d004764:	2402ffff 	li	v0,-1
9d004768:	8e020000 	lw	v0,0(s0)
9d00476c:	2442ffff 	addiu	v0,v0,-1
9d004770:	04400011 	bltz	v0,9d0047b8 <fputc+0x84>
9d004774:	ae020000 	sw	v0,0(s0)
9d004778:	96020010 	lhu	v0,16(s0)
9d00477c:	30420008 	andi	v0,v0,0x8
9d004780:	1440000b 	bnez	v0,9d0047b0 <fputc+0x7c>
9d004784:	2402000a 	li	v0,10
9d004788:	8e030004 	lw	v1,4(s0)
9d00478c:	02201021 	move	v0,s1
9d004790:	24640001 	addiu	a0,v1,1
9d004794:	ae040004 	sw	a0,4(s0)
9d004798:	a0710000 	sb	s1,0(v1)
9d00479c:	8fbf001c 	lw	ra,28(sp)
9d0047a0:	8fb10018 	lw	s1,24(sp)
9d0047a4:	8fb00014 	lw	s0,20(sp)
9d0047a8:	03e00008 	jr	ra
9d0047ac:	27bd0020 	addiu	sp,sp,32
9d0047b0:	5622fff6 	bnel	s1,v0,9d00478c <fputc+0x58>
9d0047b4:	8e030004 	lw	v1,4(s0)
9d0047b8:	8e020018 	lw	v0,24(s0)
9d0047bc:	02202021 	move	a0,s1
9d0047c0:	8c420004 	lw	v0,4(v0)
9d0047c4:	0040f809 	jalr	v0
9d0047c8:	02002821 	move	a1,s0
9d0047cc:	8fbf001c 	lw	ra,28(sp)
9d0047d0:	8fb10018 	lw	s1,24(sp)
9d0047d4:	8fb00014 	lw	s0,20(sp)
9d0047d8:	03e00008 	jr	ra
9d0047dc:	27bd0020 	addiu	sp,sp,32

Disassembly of section .text.repl:

9d0047e0 <repl>:
9d0047e0:	27bdffd8 	addiu	sp,sp,-40
9d0047e4:	afbf0024 	sw	ra,36(sp)
9d0047e8:	afb40020 	sw	s4,32(sp)
9d0047ec:	afb3001c 	sw	s3,28(sp)
9d0047f0:	afb20018 	sw	s2,24(sp)
9d0047f4:	afb10014 	sw	s1,20(sp)
9d0047f8:	afb00010 	sw	s0,16(sp)
9d0047fc:	00a08021 	move	s0,a1
9d004800:	0080a021 	move	s4,a0
9d004804:	00c09821 	move	s3,a2
9d004808:	24120020 	li	s2,32
9d00480c:	2411ffff 	li	s1,-1
9d004810:	12000011 	beqz	s0,9d004858 <repl+0x78>
9d004814:	2e020021 	sltiu	v0,s0,33
9d004818:	02401821 	move	v1,s2
9d00481c:	0202180b 	movn	v1,s0,v0
9d004820:	02602021 	move	a0,s3
9d004824:	00602821 	move	a1,v1
9d004828:	02803021 	move	a2,s4
9d00482c:	0f401307 	jal	9d004c1c <__sputn>
9d004830:	02038023 	subu	s0,s0,v1
9d004834:	1451fff6 	bne	v0,s1,9d004810 <repl+0x30>
9d004838:	8fbf0024 	lw	ra,36(sp)
9d00483c:	8fb40020 	lw	s4,32(sp)
9d004840:	8fb3001c 	lw	s3,28(sp)
9d004844:	8fb20018 	lw	s2,24(sp)
9d004848:	8fb10014 	lw	s1,20(sp)
9d00484c:	8fb00010 	lw	s0,16(sp)
9d004850:	03e00008 	jr	ra
9d004854:	27bd0028 	addiu	sp,sp,40
9d004858:	00001021 	move	v0,zero
9d00485c:	8fbf0024 	lw	ra,36(sp)
9d004860:	8fb40020 	lw	s4,32(sp)
9d004864:	8fb3001c 	lw	s3,28(sp)
9d004868:	8fb20018 	lw	s2,24(sp)
9d00486c:	8fb10014 	lw	s1,20(sp)
9d004870:	8fb00010 	lw	s0,16(sp)
9d004874:	03e00008 	jr	ra
9d004878:	27bd0028 	addiu	sp,sp,40

Disassembly of section .text.fpcmp:

9d00487c <__eqsf2>:
9d00487c:	2408fffe 00043040 00053840 00c74825     ...$@0..@8..%H..
9d00488c:	1120001b 00000000 3c01ff00 34210001     .. ........<..!4
9d00489c:	00c1082b 1020001a 00000000 3c01ff00     +..... ........<
9d0048ac:	34210001 00e1082b 10200015 00000000     ..!4+..... .....
9d0048bc:	04810002 00063042 00063023              ....B0..#0..

9d0048c8 <i48>:
9d0048c8:	04a10002 	bgez	a1,9d0048d4 <i49>
9d0048cc:	00073842 	srl	a3,a3,0x1
9d0048d0:	00073823 	negu	a3,a3

9d0048d4 <i49>:
9d0048d4:	00c7082a 	slt	at,a2,a3
9d0048d8:	10200003 	beqz	at,9d0048e8 <i50>
9d0048dc:	00000000 	nop
9d0048e0:	10000007 	b	9d004900 <J999>
9d0048e4:	2402ffff 	li	v0,-1

9d0048e8 <i50>:
9d0048e8:	00e6082a 	slt	at,a3,a2
9d0048ec:	10200003 	beqz	at,9d0048fc <Jequ>
9d0048f0:	00000000 	nop
9d0048f4:	10000002 	b	9d004900 <J999>
9d0048f8:	24020001 	li	v0,1

9d0048fc <Jequ>:
9d0048fc:	24020000 	li	v0,0

9d004900 <J999>:
9d004900:	03e00008 	jr	ra
9d004904:	00000000 	nop
9d004908:	00000000 	nop

9d00490c <Jnan>:
9d00490c:	1000fffc 	b	9d004900 <J999>
9d004910:	00081025 	or	v0,zero,t0
9d004914:	00000000 	nop

Disassembly of section .text.strlen:

9d004918 <strlen>:
9d004918:	30830003 	andi	v1,a0,0x3
9d00491c:	1460001e 	bnez	v1,9d004998 <strlen+0x80>
9d004920:	00801021 	move	v0,a0
9d004924:	8c820000 	lw	v0,0(a0)
9d004928:	3c07fefe 	lui	a3,0xfefe
9d00492c:	34e7feff 	ori	a3,a3,0xfeff
9d004930:	00471821 	addu	v1,v0,a3
9d004934:	00021027 	nor	v0,zero,v0
9d004938:	3c068080 	lui	a2,0x8080
9d00493c:	34c68080 	ori	a2,a2,0x8080
9d004940:	00621824 	and	v1,v1,v0
9d004944:	00661824 	and	v1,v1,a2
9d004948:	14600013 	bnez	v1,9d004998 <strlen+0x80>
9d00494c:	00801021 	move	v0,a0
9d004950:	24420004 	addiu	v0,v0,4
9d004954:	8c430000 	lw	v1,0(v0)
9d004958:	00672821 	addu	a1,v1,a3
9d00495c:	00031827 	nor	v1,zero,v1
9d004960:	00a31824 	and	v1,a1,v1
9d004964:	00661824 	and	v1,v1,a2
9d004968:	5460000c 	bnezl	v1,9d00499c <strlen+0x84>
9d00496c:	80430000 	lb	v1,0(v0)
9d004970:	24420004 	addiu	v0,v0,4
9d004974:	8c430000 	lw	v1,0(v0)
9d004978:	00672821 	addu	a1,v1,a3
9d00497c:	00031827 	nor	v1,zero,v1
9d004980:	00a31824 	and	v1,a1,v1
9d004984:	00661824 	and	v1,v1,a2
9d004988:	5060fff2 	beqzl	v1,9d004954 <strlen+0x3c>
9d00498c:	24420004 	addiu	v0,v0,4
9d004990:	0b401267 	j	9d00499c <strlen+0x84>
9d004994:	80430000 	lb	v1,0(v0)
9d004998:	80430000 	lb	v1,0(v0)
9d00499c:	5460fffe 	bnezl	v1,9d004998 <strlen+0x80>
9d0049a0:	24420001 	addiu	v0,v0,1
9d0049a4:	03e00008 	jr	ra
9d0049a8:	00441023 	subu	v0,v0,a0

Disassembly of section .text:

9d0049ac <__pic32_data_init>:
9d0049ac:	03e01821 	move	v1,ra

9d0049b0 <_dinit_init>:
9d0049b0:	3c089d00 	lui	t0,0x9d00
9d0049b4:	250840b0 	addiu	t0,t0,16560
9d0049b8:	8d090000 	lw	t1,0(t0)
9d0049bc:	11200018 	beqz	t1,9d004a20 <_dinit_end+0x18>
9d0049c0:	25080004 	addiu	t0,t0,4
9d0049c4:	8d0a0000 	lw	t2,0(t0)
9d0049c8:	25080004 	addiu	t0,t0,4
9d0049cc:	8d0b0000 	lw	t3,0(t0)
9d0049d0:	11600009 	beqz	t3,9d0049f8 <_dinit_clear>
9d0049d4:	25080004 	addiu	t0,t0,4

9d0049d8 <_dinit_copy>:
9d0049d8:	910c0000 	lbu	t4,0(t0)
9d0049dc:	254affff 	addiu	t2,t2,-1
9d0049e0:	25080001 	addiu	t0,t0,1
9d0049e4:	a12c0000 	sb	t4,0(t1)
9d0049e8:	1540fffb 	bnez	t2,9d0049d8 <_dinit_copy>
9d0049ec:	25290001 	addiu	t1,t1,1
9d0049f0:	10000005 	b	9d004a08 <_dinit_end>
9d0049f4:	00000000 	nop

9d0049f8 <_dinit_clear>:
9d0049f8:	a1200000 	sb	zero,0(t1)
9d0049fc:	254affff 	addiu	t2,t2,-1
9d004a00:	1540fffd 	bnez	t2,9d0049f8 <_dinit_clear>
9d004a04:	25290001 	addiu	t1,t1,1

9d004a08 <_dinit_end>:
9d004a08:	25080003 	addiu	t0,t0,3
9d004a0c:	240afffc 	li	t2,-4
9d004a10:	01484024 	and	t0,t2,t0
9d004a14:	8d090000 	lw	t1,0(t0)
9d004a18:	1520ffe7 	bnez	t1,9d0049b8 <_dinit_init+0x8>
9d004a1c:	00000000 	nop
9d004a20:	0060f821 	move	ra,v1
9d004a24:	03e00008 	jr	ra
9d004a28:	00000000 	nop
9d004a2c:	00000000 	nop

Disassembly of section .text._fflush_simple:

9d004a30 <_fflush_simple>:
9d004a30:	27bdffe8 	addiu	sp,sp,-24
9d004a34:	afbf0014 	sw	ra,20(sp)
9d004a38:	afb00010 	sw	s0,16(sp)
9d004a3c:	94820010 	lhu	v0,16(a0)
9d004a40:	30420002 	andi	v0,v0,0x2
9d004a44:	10400013 	beqz	v0,9d004a94 <_fflush_simple+0x64>
9d004a48:	00808021 	move	s0,a0
9d004a4c:	8c850000 	lw	a1,0(a0)
9d004a50:	04a0000c 	bltz	a1,9d004a84 <_fflush_simple+0x54>
9d004a54:	00001021 	move	v0,zero
9d004a58:	8c82000c 	lw	v0,12(a0)
9d004a5c:	50a20006 	beql	a1,v0,9d004a78 <_fflush_simple+0x48>
9d004a60:	8e030008 	lw	v1,8(s0)
9d004a64:	8c840008 	lw	a0,8(a0)
9d004a68:	0f40137b 	jal	9d004dec <.LFE0>
9d004a6c:	00452823 	subu	a1,v0,a1
9d004a70:	8e02000c 	lw	v0,12(s0)
9d004a74:	8e030008 	lw	v1,8(s0)
9d004a78:	ae020000 	sw	v0,0(s0)
9d004a7c:	ae030004 	sw	v1,4(s0)
9d004a80:	00001021 	move	v0,zero
9d004a84:	8fbf0014 	lw	ra,20(sp)
9d004a88:	8fb00010 	lw	s0,16(sp)
9d004a8c:	03e00008 	jr	ra
9d004a90:	27bd0018 	addiu	sp,sp,24
9d004a94:	2402ffff 	li	v0,-1
9d004a98:	ac820004 	sw	v0,4(a0)
9d004a9c:	00001021 	move	v0,zero
9d004aa0:	8fbf0014 	lw	ra,20(sp)
9d004aa4:	8fb00010 	lw	s0,16(sp)
9d004aa8:	03e00008 	jr	ra
9d004aac:	27bd0018 	addiu	sp,sp,24

Disassembly of section .text._fwrite_simple:

9d004ab0 <_fwrite_simple>:
9d004ab0:	27bdffd8 	addiu	sp,sp,-40
9d004ab4:	afbf0024 	sw	ra,36(sp)
9d004ab8:	afb10020 	sw	s1,32(sp)
9d004abc:	afb0001c 	sw	s0,28(sp)
9d004ac0:	70c58002 	mul	s0,a2,a1
9d004ac4:	12000007 	beqz	s0,9d004ae4 <_fwrite_simple+0x34>
9d004ac8:	00001021 	move	v0,zero
9d004acc:	94e30010 	lhu	v1,16(a3)
9d004ad0:	30630001 	andi	v1,v1,0x1
9d004ad4:	10600008 	beqz	v1,9d004af8 <_fwrite_simple+0x48>
9d004ad8:	3c03a000 	lui	v1,0xa000
9d004adc:	24040009 	li	a0,9
9d004ae0:	ac640008 	sw	a0,8(v1)
9d004ae4:	8fbf0024 	lw	ra,36(sp)
9d004ae8:	8fb10020 	lw	s1,32(sp)
9d004aec:	8fb0001c 	lw	s0,28(sp)
9d004af0:	03e00008 	jr	ra
9d004af4:	27bd0028 	addiu	sp,sp,40
9d004af8:	00808821 	move	s1,a0
9d004afc:	00e02021 	move	a0,a3
9d004b00:	0f40128c 	jal	9d004a30 <_fflush_simple>
9d004b04:	afa60010 	sw	a2,16(sp)
9d004b08:	02202021 	move	a0,s1
9d004b0c:	0f40137b 	jal	9d004dec <.LFE0>
9d004b10:	02002821 	move	a1,s0
9d004b14:	8fa60010 	lw	a2,16(sp)
9d004b18:	00c01021 	move	v0,a2
9d004b1c:	8fbf0024 	lw	ra,36(sp)
9d004b20:	8fb10020 	lw	s1,32(sp)
9d004b24:	8fb0001c 	lw	s0,28(sp)
9d004b28:	03e00008 	jr	ra
9d004b2c:	27bd0028 	addiu	sp,sp,40

Disassembly of section .text.fptoli:

9d004b30 <__fixsfsi>:
9d004b30:	00042a00 3c018000 00a12825 00043dc2     .*.....<%(...=..
9d004b40:	30e700ff 2406009e 00c73023 18c0000d     ...0...$#0......
9d004b50:	00000000 28c10020 14200003 00000000     .... ..(.. .....
9d004b60:	10000005 24020000                       .......$

9d004b68 <i42>:
9d004b68:	04810002 	bgez	a0,9d004b74 <i43>
9d004b6c:	00c52806 	srlv	a1,a1,a2
9d004b70:	00052823 	negu	a1,a1

9d004b74 <i43>:
9d004b74:	00051025 	or	v0,zero,a1

9d004b78 <G999>:
9d004b78:	03e00008 	jr	ra
9d004b7c:	00000000 	nop
9d004b80:	00000000 	nop

9d004b84 <Gspec>:
9d004b84:	3c017f80 	lui	at,0x7f80
9d004b88:	34210001 	ori	at,at,0x1
9d004b8c:	0081082b 	sltu	at,a0,at
9d004b90:	14200003 	bnez	at,9d004ba0 <i44>
9d004b94:	00000000 	nop
9d004b98:	1000fff7 	b	9d004b78 <G999>
9d004b9c:	3c028000 	lui	v0,0x8000

9d004ba0 <i44>:
9d004ba0:	3c027fff 	lui	v0,0x7fff
9d004ba4:	1000fff4 	b	9d004b78 <G999>
9d004ba8:	3442ffff 	ori	v0,v0,0xffff
9d004bac:	00000000 	nop

Disassembly of section .text._sprintf_fF:

9d004bb0 <_sprintf_fF>:
9d004bb0:	27bdffc8 	addiu	sp,sp,-56
9d004bb4:	afbf0034 	sw	ra,52(sp)
9d004bb8:	27a20040 	addiu	v0,sp,64
9d004bbc:	00801821 	move	v1,a0
9d004bc0:	afa60040 	sw	a2,64(sp)
9d004bc4:	27a40010 	addiu	a0,sp,16
9d004bc8:	00403021 	move	a2,v0
9d004bcc:	afa70044 	sw	a3,68(sp)
9d004bd0:	2407ffff 	li	a3,-1
9d004bd4:	a7a70022 	sh	a3,34(sp)
9d004bd8:	24070082 	li	a3,130
9d004bdc:	a7a70020 	sh	a3,32(sp)
9d004be0:	3c077fff 	lui	a3,0x7fff
9d004be4:	34e7fffe 	ori	a3,a3,0xfffe
9d004be8:	afa70010 	sw	a3,16(sp)
9d004bec:	afa30018 	sw	v1,24(sp)
9d004bf0:	afa30014 	sw	v1,20(sp)
9d004bf4:	3c039d00 	lui	v1,0x9d00
9d004bf8:	24635068 	addiu	v1,v1,20584
9d004bfc:	afa30028 	sw	v1,40(sp)
9d004c00:	0f400780 	jal	9d001e00 <_do_print_fF>
9d004c04:	afa2002c 	sw	v0,44(sp)
9d004c08:	8fa30014 	lw	v1,20(sp)
9d004c0c:	a0600000 	sb	zero,0(v1)
9d004c10:	8fbf0034 	lw	ra,52(sp)
9d004c14:	03e00008 	jr	ra
9d004c18:	27bd0038 	addiu	sp,sp,56

Disassembly of section .text.__sputn:

9d004c1c <__sputn>:
9d004c1c:	27bdffd8 	addiu	sp,sp,-40
9d004c20:	afbf0024 	sw	ra,36(sp)
9d004c24:	afb30020 	sw	s3,32(sp)
9d004c28:	afb2001c 	sw	s2,28(sp)
9d004c2c:	afb10018 	sw	s1,24(sp)
9d004c30:	afb00014 	sw	s0,20(sp)
9d004c34:	00808021 	move	s0,a0
9d004c38:	00c09021 	move	s2,a2
9d004c3c:	00858821 	addu	s1,a0,a1
9d004c40:	0b401317 	j	9d004c5c <__sputn+0x40>
9d004c44:	2413ffff 	li	s3,-1
9d004c48:	26100001 	addiu	s0,s0,1
9d004c4c:	0f4011cd 	jal	9d004734 <.LFE0>
9d004c50:	8204ffff 	lb	a0,-1(s0)
9d004c54:	10530005 	beq	v0,s3,9d004c6c <__sputn+0x50>
9d004c58:	8fbf0024 	lw	ra,36(sp)
9d004c5c:	1611fffa 	bne	s0,s1,9d004c48 <__sputn+0x2c>
9d004c60:	02402821 	move	a1,s2
9d004c64:	00001021 	move	v0,zero
9d004c68:	8fbf0024 	lw	ra,36(sp)
9d004c6c:	8fb30020 	lw	s3,32(sp)
9d004c70:	8fb2001c 	lw	s2,28(sp)
9d004c74:	8fb10018 	lw	s1,24(sp)
9d004c78:	8fb00014 	lw	s0,20(sp)
9d004c7c:	03e00008 	jr	ra
9d004c80:	27bd0028 	addiu	sp,sp,40

Disassembly of section .rodata:

9d004c84 <zeroData-0x1c>:
9d004c84:	004e614e 	0x4e614e
9d004c88:	666e492d 	0x666e492d
9d004c8c:	00000000 	nop
9d004c90:	666e492b 	0x666e492b
9d004c94:	00000000 	nop
9d004c98:	6c756e28 	0x6c756e28
9d004c9c:	0000296c 	0x296c

9d004ca0 <zeroData>:
9d004ca0:	30303030 30303030 30303030 30303030     0000000000000000
9d004cb0:	30303030 30303030 30303030 30303030     0000000000000000

9d004cc0 <spaceData>:
9d004cc0:	20202020 20202020 20202020 20202020                     
9d004cd0:	20202020 20202020 20202020 20202020                     
9d004ce0:	41200000 3c23d70a 40800000              .. A..#<...@

Disassembly of section .text.sitofp:

9d004cec <__floatsisf>:
9d004cec:	3c018000 10800012 00813024 04810002     ...<....$0......
9d004cfc:	00000000 00042023                       ....# ..

9d004d04 <i40>:
9d004d04:	2405009e 	li	a1,158
9d004d08:	70873820 	clz	a3,a0
9d004d0c:	00a72823 	subu	a1,a1,a3
9d004d10:	00e42004 	sllv	a0,a0,a3
9d004d14:	24840080 	addiu	a0,a0,128
9d004d18:	2c880080 	sltiu	t0,a0,128
9d004d1c:	00a82821 	addu	a1,a1,t0
9d004d20:	00044203 	sra	t0,a0,0x8
9d004d24:	31080001 	andi	t0,t0,0x1
9d004d28:	00882023 	subu	a0,a0,t0
9d004d2c:	00042040 	sll	a0,a0,0x1
9d004d30:	00042242 	srl	a0,a0,0x9
9d004d34:	000545c0 	sll	t0,a1,0x17
9d004d38:	00882025 	or	a0,a0,t0

9d004d3c <i39>:
9d004d3c:	00861025 	or	v0,a0,a2

9d004d40 <E999>:
9d004d40:	03e00008 	jr	ra
9d004d44:	00000000 	nop
9d004d48:	00000000 	nop

Disassembly of section .text.main_entry:

9d004d4c <_main_entry>:
9d004d4c:	3c040000 	lui	a0,0x0
9d004d50:	27bdffe8 	addiu	sp,sp,-24
9d004d54:	24840000 	addiu	a0,a0,0
9d004d58:	10800003 	beqz	a0,9d004d68 <_main_entry+0x1c>
9d004d5c:	afbf0014 	sw	ra,20(sp)
9d004d60:	0080f809 	jalr	a0
9d004d64:	00000000 	nop
9d004d68:	30840000 	andi	a0,a0,0x0
9d004d6c:	30a50000 	andi	a1,a1,0x0
9d004d70:	3c089d00 	lui	t0,0x9d00
9d004d74:	25083b40 	addiu	t0,t0,15168
9d004d78:	0100f809 	jalr	t0
9d004d7c:	00000000 	nop

9d004d80 <__crt0_exit>:
9d004d80:	3c020000 24420000 10400003 00000000     ...<..B$..@.....
9d004d90:	0040f809 00000000 1000fff9 00000000     ..@.............

Disassembly of section .text:

9d004da0 <__floatunsisf>:
9d004da0:	27bdffe8 	addiu	sp,sp,-24
9d004da4:	afbf0014 	sw	ra,20(sp)
9d004da8:	04800006 	bltz	a0,9d004dc4 <__floatunsisf+0x24>
9d004dac:	00801021 	move	v0,a0
9d004db0:	0f40133b 	jal	9d004cec <__floatsisf>
9d004db4:	00000000 	nop
9d004db8:	8fbf0014 	lw	ra,20(sp)
9d004dbc:	03e00008 	jr	ra
9d004dc0:	27bd0018 	addiu	sp,sp,24
9d004dc4:	00042042 	srl	a0,a0,0x1
9d004dc8:	30420001 	andi	v0,v0,0x1
9d004dcc:	0f40133b 	jal	9d004cec <__floatsisf>
9d004dd0:	00822025 	or	a0,a0,v0
9d004dd4:	00402021 	move	a0,v0
9d004dd8:	0f400d5a 	jal	9d003568 <__addsf3>
9d004ddc:	00402821 	move	a1,v0
9d004de0:	8fbf0014 	lw	ra,20(sp)
9d004de4:	03e00008 	jr	ra
9d004de8:	27bd0018 	addiu	sp,sp,24

Disassembly of section .text._mon_write:

9d004dec <_mon_write>:
9d004dec:	27bdffe0 	addiu	sp,sp,-32

9d004df0 <.LCFI0>:
9d004df0:	afbf001c 	sw	ra,28(sp)
9d004df4:	afb10018 	sw	s1,24(sp)
9d004df8:	afb00014 	sw	s0,20(sp)
9d004dfc:	10800009 	beqz	a0,9d004e24 <.LCFI0+0x34>
9d004e00:	00808021 	move	s0,a0
9d004e04:	10a00007 	beqz	a1,9d004e24 <.LCFI0+0x34>
9d004e08:	00a08821 	move	s1,a1
9d004e0c:	82040000 	lb	a0,0(s0)
9d004e10:	2631ffff 	addiu	s1,s1,-1
9d004e14:	0f401198 	jal	9d004660 <_mon_putc>
9d004e18:	26100001 	addiu	s0,s0,1
9d004e1c:	5620fffc 	bnezl	s1,9d004e10 <.LCFI0+0x20>
9d004e20:	82040000 	lb	a0,0(s0)
9d004e24:	8fbf001c 	lw	ra,28(sp)
9d004e28:	8fb10018 	lw	s1,24(sp)
9d004e2c:	8fb00014 	lw	s0,20(sp)
9d004e30:	03e00008 	jr	ra
9d004e34:	27bd0020 	addiu	sp,sp,32

Disassembly of section .text._bootstrap_exception_handler:

9d004e38 <_bootstrap_exception_handler>:
9d004e38:	3c020000 	lui	v0,0x0
9d004e3c:	24420000 	addiu	v0,v0,0
9d004e40:	10400005 	beqz	v0,9d004e58 <_bootstrap_exception_handler+0x20>
9d004e44:	3c020000 	lui	v0,0x0
9d004e48:	24420000 	addiu	v0,v0,0
9d004e4c:	10400003 	beqz	v0,9d004e5c <_bootstrap_exception_handler+0x24>
9d004e50:	3c029d00 	lui	v0,0x9d00
9d004e54:	7000003f 	sdbbp
9d004e58:	3c029d00 	lui	v0,0x9d00
9d004e5c:	24424f10 	addiu	v0,v0,20240
9d004e60:	10400005 	beqz	v0,9d004e78 <.LCFI2>
9d004e64:	00000000 	nop
9d004e68:	27bdffe8 	addiu	sp,sp,-24

9d004e6c <.LCFI0>:
9d004e6c:	afbf0014 	sw	ra,20(sp)
9d004e70:	0040f809 	jalr	v0
9d004e74:	00000000 	nop

9d004e78 <.LCFI2>:
9d004e78:	0b40139e 	j	9d004e78 <.LCFI2>
9d004e7c:	00000000 	nop

Disassembly of section .text._general_exception_handler:

9d004e80 <_general_exception_handler>:
9d004e80:	3c020000 	lui	v0,0x0
9d004e84:	24420000 	addiu	v0,v0,0
9d004e88:	10400005 	beqz	v0,9d004ea0 <_general_exception_handler+0x20>
9d004e8c:	3c020000 	lui	v0,0x0
9d004e90:	24420000 	addiu	v0,v0,0
9d004e94:	10400003 	beqz	v0,9d004ea4 <_general_exception_handler+0x24>
9d004e98:	3c029d00 	lui	v0,0x9d00
9d004e9c:	7000003f 	sdbbp
9d004ea0:	3c029d00 	lui	v0,0x9d00
9d004ea4:	24424f10 	addiu	v0,v0,20240
9d004ea8:	10400005 	beqz	v0,9d004ec0 <.LCFI2>
9d004eac:	00000000 	nop
9d004eb0:	27bdffe8 	addiu	sp,sp,-24

9d004eb4 <.LCFI0>:
9d004eb4:	afbf0014 	sw	ra,20(sp)
9d004eb8:	0040f809 	jalr	v0
9d004ebc:	00000000 	nop

9d004ec0 <.LCFI2>:
9d004ec0:	0b4013b0 	j	9d004ec0 <.LCFI2>
9d004ec4:	00000000 	nop

Disassembly of section .vector_default:

9d004ec8 <_DefaultInterrupt>:
9d004ec8:	3c020000 	lui	v0,0x0
9d004ecc:	24420000 	addiu	v0,v0,0
9d004ed0:	10400007 	beqz	v0,9d004ef0 <_DefaultInterrupt+0x28>
9d004ed4:	3c020000 	lui	v0,0x0
9d004ed8:	24420000 	addiu	v0,v0,0
9d004edc:	50400005 	beqzl	v0,9d004ef4 <_DefaultInterrupt+0x2c>
9d004ee0:	3c029d00 	lui	v0,0x9d00
9d004ee4:	7000003f 	sdbbp
9d004ee8:	03e00008 	jr	ra
9d004eec:	00000000 	nop
9d004ef0:	3c029d00 	lui	v0,0x9d00
9d004ef4:	24424f10 	addiu	v0,v0,20240
9d004ef8:	10400003 	beqz	v0,9d004f08 <_DefaultInterrupt+0x40>
9d004efc:	00000000 	nop
9d004f00:	0040f809 	jalr	v0
9d004f04:	00000000 	nop
9d004f08:	03e00008 	jr	ra
9d004f0c:	00000000 	nop

Disassembly of section .text:

9d004f10 <__pic32_software_reset>:
9d004f10:	41606000 	di
9d004f14:	000000c0 	ehb
9d004f18:	3c03aa99 	lui	v1,0xaa99
9d004f1c:	3c02bf81 	lui	v0,0xbf81
9d004f20:	24636655 	addiu	v1,v1,26197
9d004f24:	ac40f230 	sw	zero,-3536(v0)
9d004f28:	ac43f230 	sw	v1,-3536(v0)
9d004f2c:	3c035566 	lui	v1,0x5566
9d004f30:	346399aa 	ori	v1,v1,0x99aa
9d004f34:	ac43f230 	sw	v1,-3536(v0)
9d004f38:	3c02bf81 	lui	v0,0xbf81
9d004f3c:	24030001 	li	v1,1
9d004f40:	ac43f618 	sw	v1,-2536(v0)
9d004f44:	3c02bf81 	lui	v0,0xbf81
9d004f48:	8c42f610 	lw	v0,-2544(v0)
9d004f4c:	0b4013c6 	j	9d004f18 <__pic32_software_reset+0x8>
9d004f50:	00000000 	nop

Disassembly of section .text._filbuf_simple:

9d004f54 <_filbuf_simple>:
9d004f54:	8c820004 	lw	v0,4(a0)
9d004f58:	2403ffff 	li	v1,-1
9d004f5c:	10430003 	beq	v0,v1,9d004f6c <_filbuf_simple+0x18>
9d004f60:	ac800000 	sw	zero,0(a0)
9d004f64:	03e00008 	jr	ra
9d004f68:	ac830004 	sw	v1,4(a0)
9d004f6c:	27bdffe8 	addiu	sp,sp,-24
9d004f70:	afbf0014 	sw	ra,20(sp)
9d004f74:	0f4010f3 	jal	9d0043cc <_mon_getc>
9d004f78:	24040001 	li	a0,1
9d004f7c:	8fbf0014 	lw	ra,20(sp)
9d004f80:	03e00008 	jr	ra
9d004f84:	27bd0018 	addiu	sp,sp,24

Disassembly of section .text._fsync_simple:

9d004f88 <_fsync_simple>:
9d004f88:	94830010 	lhu	v1,16(a0)
9d004f8c:	00a32824 	and	a1,a1,v1
9d004f90:	10a00007 	beqz	a1,9d004fb0 <_fsync_simple+0x28>
9d004f94:	24020001 	li	v0,1
9d004f98:	34630040 	ori	v1,v1,0x40
9d004f9c:	a4830010 	sh	v1,16(a0)
9d004fa0:	24030009 	li	v1,9
9d004fa4:	3c02a000 	lui	v0,0xa000
9d004fa8:	ac430008 	sw	v1,8(v0)
9d004fac:	00001021 	move	v0,zero
9d004fb0:	03e00008 	jr	ra
9d004fb4:	00000000 	nop

Disassembly of section .text.putchar:

9d004fb8 <putchar>:
9d004fb8:	27bdffe8 	addiu	sp,sp,-24
9d004fbc:	afbf0014 	sw	ra,20(sp)
9d004fc0:	3c02a000 	lui	v0,0xa000
9d004fc4:	8c420000 	lw	v0,0(v0)
9d004fc8:	0f4011cd 	jal	9d004734 <.LFE0>
9d004fcc:	8c450004 	lw	a1,4(v0)
9d004fd0:	8fbf0014 	lw	ra,20(sp)
9d004fd4:	03e00008 	jr	ra
9d004fd8:	27bd0018 	addiu	sp,sp,24

Disassembly of section .text._vfprintf_fF:

9d004fdc <_vfprintf_fF>:
9d004fdc:	27bdffe8 	addiu	sp,sp,-24
9d004fe0:	afbf0014 	sw	ra,20(sp)
9d004fe4:	0f400780 	jal	9d001e00 <_do_print_fF>
9d004fe8:	00000000 	nop
9d004fec:	8fbf0014 	lw	ra,20(sp)
9d004ff0:	03e00008 	jr	ra
9d004ff4:	27bd0018 	addiu	sp,sp,24

Disassembly of section .text.putc:

9d004ff8 <putc>:
9d004ff8:	27bdffe8 	addiu	sp,sp,-24
9d004ffc:	afbf0014 	sw	ra,20(sp)
9d005000:	0f4011cd 	jal	9d004734 <.LFE0>
9d005004:	00000000 	nop
9d005008:	8fbf0014 	lw	ra,20(sp)
9d00500c:	03e00008 	jr	ra
9d005010:	27bd0018 	addiu	sp,sp,24

Disassembly of section .text:

9d005014 <_nmi_handler>:
9d005014:	401a6000 	mfc0	k0,c0_status
9d005018:	3c1bffbf 	lui	k1,0xffbf
9d00501c:	377bffff 	ori	k1,k1,0xffff
9d005020:	035bd024 	and	k0,k0,k1
9d005024:	409a6000 	mtc0	k0,c0_status
9d005028:	42000018 	eret

Disassembly of section .text._io_exit:

9d00502c <_io_exit>:
9d00502c:	3c02a000 	lui	v0,0xa000
9d005030:	8c420000 	lw	v0,0(v0)
9d005034:	24030001 	li	v1,1
9d005038:	03e00008 	jr	ra
9d00503c:	ac430038 	sw	v1,56(v0)

Disassembly of section .rodata:

9d005040 <_io_funcs>:
9d005040:	9d004f54 9d0042d0 9d004a30 9d004ab0     TO...B..0J...J..
9d005050:	9d004f88                                .O..

Disassembly of section .text._io_exit:

9d005054 <.text._io_exit>:
9d005054:	3c02a000 	lui	v0,0xa000
9d005058:	8c420000 	lw	v0,0(v0)
9d00505c:	24030001 	li	v1,1
9d005060:	03e00008 	jr	ra
9d005064:	ac430038 	sw	v1,56(v0)

Disassembly of section .rodata:

9d005068 <_io_strfuncs>:
9d005068:	9d00509c 9d0050a4 9d0050ac 9d0050b4     .P...P...P...P..
9d005078:	9d0050bc                                .P..

9d00507c <.LC0>:
9d00507c:	69203042 	0x69203042
9d005080:	66252073 	0x66252073
9d005084:	000a0d56 	0xa0d56
9d005088:	3b533333 	xori	s3,k0,0x3333

Disassembly of section .text._on_reset:

9d00508c <_on_reset>:
9d00508c:	03e00008 	jr	ra
9d005090:	00000000 	nop

Disassembly of section .text._on_bootstrap:

9d005094 <_on_bootstrap>:
9d005094:	03e00008 	jr	ra
9d005098:	00000000 	nop

Disassembly of section .text._filbuf_string:

9d00509c <_filbuf_string>:
9d00509c:	03e00008 	jr	ra
9d0050a0:	2402ffff 	li	v0,-1

Disassembly of section .text._flsbuf_string:

9d0050a4 <_flsbuf_string>:
9d0050a4:	03e00008 	jr	ra
9d0050a8:	00801021 	move	v0,a0

Disassembly of section .text._fflush_string:

9d0050ac <_fflush_string>:
9d0050ac:	03e00008 	jr	ra
9d0050b0:	00001021 	move	v0,zero

Disassembly of section .text._fwrite_string:

9d0050b4 <_fwrite_string>:
9d0050b4:	03e00008 	jr	ra
9d0050b8:	00001021 	move	v0,zero

Disassembly of section .text._fsync_string:

9d0050bc <_fsync_string>:
9d0050bc:	03e00008 	jr	ra
9d0050c0:	24020001 	li	v0,1
